(lp0
F-3.1390000000000002
aF-3.1180000000000025
aF-3.106000000000004
aF-3.1000000000000045
aF-3.0890000000000057
aF-3.0840000000000063
aF-3.076000000000007
aF-3.0640000000000085
aF-3.0350000000000117
aF-3.0190000000000135
aF-3.0170000000000137
aF-3.0100000000000144
aF-2.995000000000016
aF-2.978000000000018
aF-2.976000000000018
aF-2.9650000000000194
aF-2.933000000000023
aF-2.932000000000023
aF-0.2100000000002351
aF-0.1970000000002351
aF-0.1950000000002351
aF-0.1930000000002351
aF-0.18000000000023508
aF-0.17300000000023508
aF-0.15800000000023506
aF-0.13100000000023504
aF-0.12500000000023503
aF-0.11700000000023503
aF-0.11200000000023502
aF-0.080000000000235
aF-0.07200000000023499
aF-2.3493013090458703e-13
aF0.07199999999976513
aF0.07999999999976513
aF0.11199999999976516
aF0.11699999999976517
aF0.12499999999976517
aF0.13099999999976517
aF0.1579999999997652
aF0.1729999999997652
aF0.1799999999997652
aF0.19299999999976522
aF0.19499999999976522
aF0.19699999999976522
aF0.20999999999976524
aF2.931999999999553
aF2.932999999999553
aF2.9649999999995496
aF2.9759999999995483
aF2.977999999999548
aF2.9949999999995462
aF3.0099999999995446
aF3.016999999999544
aF3.0189999999995436
aF3.034999999999542
aF3.0639999999995386
aF3.0759999999995373
aF3.0839999999995364
aF3.088999999999536
aF3.0999999999995347
aF3.105999999999534
aF3.1179999999995327
aF3.1389999999995304
a.