(lp0
F-97.04724598321928
aF-97.04741531234409
aF-97.04740290575945
aF-97.00198884170949
aF-97.0019637472478
aF-96.91105286569
aF-96.91101309769354
aF-96.41096426155202
aF-96.22922923071202
aF-96.2291360163492
aF-95.63825061704357
aF-95.638128926169
aF-95.54728384380257
aF-95.0923867237385
aF-94.95603367196443
aF-94.95588593468342
aF-94.41000045453501
aF-94.31910743644488
aF-93.9550931591092
aF-93.45434666741141
aF-93.13575349270516
aF-92.95357118927355
aF-92.31621028100683
aF-92.04288619460698
aF-91.90620930329521
aF-91.45070954680554
aF-91.40508615077222
aF-91.17736781675939
aF-90.81285577562038
aF-90.53933283031301
aF-90.4937808423969
aF-89.44527063919959
aF-89.1715809270502
aF-88.66995914697789
aF-88.48741251970806
aF-88.21383490817902
aF-87.98571368416228
aF-87.48370541230304
aF-87.11858655796524
aF-86.20553949881977
aF-85.9315118284855
aF-85.33790112638778
aF-84.51560790847138
aF-84.15006638861873
aF-83.2358494379962
aF-82.13844329094991
aF-81.90972518726326
aF-80.7658765888236
aF-79.98784206595992
aF-79.85054316731797
aF-79.25554676798461
aF-78.9348773266854
aF-74.90221632760667
aF-73.70956483246565
aF-73.52611947026385
aF-72.47065696277775
aF-71.78217524405696
aF-71.2769899066394
aF-69.94515179737881
aF-66.54382836143003
aF-66.45191291636728
aF-66.35988516758752
aF-64.05961927702735
aF-62.17206538922698
aF-58.57826914835153
aF-57.37952180628214
aF-53.73512239807108
aF-53.27351746471039
aF-51.19571101723212
aF-49.99466596216071
aF-47.73042320749921
aF-44.4937789678498
aF-39.95881284022485
aF-39.125579641484116
aF-35.60536539095431
aF-35.23485488263317
aF-33.47378116365265
aF-31.388012373023404
aF-30.136030965420066
aF-26.982200816358844
aF-25.636846655771954
aF-24.708815093609967
aF-23.966522990527448
aF-22.713486453923892
aF-20.717432481904005
aF-17.97824969433542
aF-14.216797819645413
aF-13.102089035574592
aF-8.781800895611527
aF-5.529544430383312
aF-4.182081536176297
aF-5.109799938701027e-11
aF4.182081536074196
aF5.529544430281282
aF8.78180089550975
aF13.102089035473332
aF14.216797819544318
aF17.978249694234997
aF20.717432481804163
aF22.713486453824537
aF23.96652299042842
aF24.708815093511134
aF25.636846655673384
aF26.98220081626068
aF30.13603096532292
aF31.3880123729267
aF33.47378116355673
aF35.23485488253795
aF35.60536539085925
aF39.125579641390594
aF39.95881284013172
aF44.49377896775898
aF47.730423207410226
aF49.994665962073114
aF51.1957110171453
aF53.27351746462497
aF53.73512239798598
aF57.379521806199726
aF58.57826914827004
aF62.1720653891485
aF64.05961927695056
aF66.35988516751293
aF66.45191291629278
aF66.54382836135562
aF69.94515179730796
aF71.27698990657004
aF71.78217524398816
aF72.47065696270977
aF73.52611947019713
aF73.70956483239915
aF74.90221632754167
aF78.93487732662592
aF79.25554676792561
aF79.85054316725986
aF79.98784206601782
aF80.76587658888029
aF81.9097251873181
aF82.13844329089545
aF83.23584943804877
aF84.15006638866964
aF84.51560790842112
aF85.33790112633909
aF85.93151182853302
aF86.20553949877282
aF87.11858655801029
aF87.48370541225877
aF87.98571368420542
aF88.21383490822167
aF88.48741251966607
aF88.66995914693632
aF89.17158092709056
aF89.44527063923928
aF90.49378084235994
aF90.53933283027618
aF90.8128557755843
aF91.17736781679444
aF91.40508615073783
aF91.4507095467713
aF91.90620930332808
aF92.04288619457454
aF92.31621028103841
aF92.95357118924413
aF93.13575349273393
aF93.45434666743903
aF93.95509315913483
aF94.31910743646901
aF94.41000045455874
aF94.9558859347046
aF94.95603367194326
aF95.09238672375898
aF95.54728384382055
aF95.63812892618644
aF95.63825061702613
aF96.22913601636256
aF96.22922923069865
aF96.4109642615402
aF96.91101309769925
aF96.91105286568431
aF97.00196374725141
aF97.0019888417059
aF97.04740290576123
aF97.0474153123423
aF97.0472459832175
a.