(lp0
F-1.483566272771239
aF-4.132170210652491
aF-5.200749949171352
aF-5.479667666546778
aF-8.917831906924977
aF-10.636726090136182
aF-14.956391269419237
aF-15.560278464011482
aF-15.931695268599505
aF-16.813975590481682
aF-17.55699113280386
aF-18.62503088690846
aF-18.99639600256329
aF-19.69282902906094
aF-20.52843747898924
aF-20.621203270635096
aF-21.549691755197276
aF-23.034895372186888
aF-26.607669167333665
aF-30.781820169411358
aF-31.801677710555257
aF-32.54343233121124
aF-33.702113505327425
aF-34.073021202845034
aF-35.32394983418823
aF-36.01902306267929
aF-36.34326224556656
aF-36.71394098153118
aF-36.945450161757655
aF-37.501221836030425
aF-40.00173613835771
aF-41.112824007904244
aF-42.26981723486623
aF-43.05638296173021
aF-44.0279462255583
aF-44.675466672120045
aF-46.9411286838928
aF-47.77329566382616
aF-48.2354160702871
aF-48.88253717158673
aF-49.76029686702297
aF-50.36085308268008
aF-50.82289803741196
aF-51.60798537046622
aF-51.97738424160663
aF-52.392962744587706
aF-53.68542625092981
aF-55.07003270177727
aF-56.82283025106945
aF-58.16006712337279
aF-60.92514070807856
aF-61.754238584786414
aF-61.984432673250346
aF-62.490905239506276
aF-62.537091604287085
aF-63.64185658413024
aF-64.65434432522366
aF-64.93056349601078
aF-65.48257986076457
aF-66.21860642820282
aF-66.67848215602685
aF-67.50612081044787
aF-67.6439360152028
aF-67.73590210203369
aF-68.2415818917574
aF-68.37949078948733
aF-69.84987892331614
aF-70.81455019255394
aF-72.14595729851875
aF-72.28358052180296
aF-72.69667387854736
aF-72.9263197716984
aF-74.48602655035451
aF-75.35741975624825
aF-75.44909659032658
aF-77.64910441716903
aF-78.19885349805828
aF-78.56523506226577
aF-78.74847060280918
aF-79.16059013408659
aF-80.2133974626424
aF-80.30498873799486
aF-80.44222852927777
aF-80.62524255948846
aF-80.8998110059763
aF-81.08286397047867
aF-81.22013821530068
aF-81.95212346424881
aF-81.99775344010098
aF-82.22661707672776
aF-83.09535531223251
aF-84.55783059420479
aF-84.64926965131859
aF-84.92330174053647
aF-85.42594889837206
aF-85.56279732785266
aF-85.60858094341482
aF-85.6542789504031
aF-85.69989130311963
aF-85.88247999311783
aF-86.70438845587184
aF-86.79581596410613
aF-87.02391122724258
aF-87.52601335144224
aF-87.6171827237715
aF-87.98221726190047
aF-88.16488620063546
aF-88.2103805722399
aF-89.16831045350754
aF-90.4448126026645
aF-90.49052842204756
aF-90.53609131245915
aF-90.58150119689795
aF-91.03727126294555
aF-91.35624601745884
aF-91.53842838565917
aF-91.90285808616723
aF-92.63148698430354
aF-92.95036597508607
aF-93.08681741004295
aF-93.2689335858095
aF-93.31447654929764
aF-93.49655739585506
aF-93.67870924536943
aF-93.76955555046322
aF-93.81507175587559
aF-94.22471824893033
aF-94.9071979421725
aF-94.99820107102319
aF-95.27092174124098
aF-95.40744691742358
aF-95.90761387208529
aF-95.95310069947215
aF-96.0894328113397
aF-96.180415806452
aF-96.31671192307249
aF-96.40767539637487
aF-96.49856127761582
aF-96.58960582026579
aF-96.68043025739998
aF-96.7714265277451
aF-96.81679469033719
aF-96.86221178739838
aF-96.90770728688533
aF-96.95303410412454
aF-96.95313546298378
aF-96.99847319775812
aF-96.99855061892703
aF-97.04400458230657
aF-97.04404586579213
aF-97.04724598322586
aF-97.04741531235064
aF-97.0474029057529
aF-97.00198884172273
aF-97.00196374723457
aF-96.911052865711
aF-96.91101309767255
aF-96.41096426159554
aF-96.2292292307612
aF-96.22913601630002
aF-95.63825061710779
aF-95.63812892610478
aF-95.54728384373635
aF-95.09238672366307
aF-94.9560336720424
aF-94.95588593460546
aF-94.41000045444765
aF-94.31910743635606
aF-93.95509315901475
aF-93.45434666730978
aF-93.13575349259922
aF-92.95357118938185
aF-92.31621028089062
aF-92.0428861947264
aF-91.90620930317422
aF-91.45070954693162
aF-91.4050861508988
aF-91.17736781663038
aF-90.8128557757532
aF-90.53933283044861
aF-90.49378084253296
aF-89.44527063905349
aF-89.1715809269016
aF-88.66995914713094
aF-88.48741251986269
aF-88.21383490802206
aF-87.9857136840034
aF-87.48370541246602
aF-87.11858655779932
aF-86.20553949899269
aF-85.93151182831055
aF-85.33790112656705
aF-84.5156079086564
aF-84.1500663884312
aF-83.23584943780266
aF-82.13844329115038
aF-81.90972518706137
aF-80.76587658861492
aF-79.98784206574678
aF-79.85054316753187
aF-79.66760410448668
aF-79.25554676820182
aF-78.93487732690434
aF-76.27764827096205
aF-75.81927424710462
aF-74.90221632784596
aF-74.67284410919902
aF-73.70956483271044
aF-73.52611947050947
aF-72.47065696302805
aF-71.78217524431022
aF-71.64433717624024
aF-71.59848090013612
aF-71.5525895407778
aF-71.50666312065201
aF-71.4607016622627
aF-71.41470518813104
aF-71.27698990689481
aF-70.63408721307123
aF-69.94515179763968
aF-69.71544603856589
aF-68.47485357620054
aF-66.54382836170394
aF-66.45191291664152
aF-66.35988516786209
aF-65.76202321856087
aF-64.47369089886891
aF-64.3357205415191
aF-64.19751793228798
aF-64.05961927731002
aF-63.231002973596915
aF-62.63244888764191
aF-62.4022831923513
aF-62.17206538951592
aF-61.573239249604434
aF-61.204845165652486
aF-60.74417971613318
aF-60.00699829541144
aF-58.67053020772264
aF-58.578269148651536
aF-57.37952180658563
aF-56.68781649856317
aF-55.627000034120435
aF-54.2426942138055
aF-53.735122398384426
aF-53.273517465024916
aF-53.134913326033576
aF-52.4425775133783
aF-51.19571101755179
aF-50.641459538165826
aF-50.318139821994876
aF-49.994665962483225
aF-47.73042320782684
aF-46.48230817743344
aF-45.927476486542545
aF-45.46506273676723
aF-44.4937789681842
aF-44.355066560570535
aF-42.226766714473285
aF-41.578890667890626
aF-40.88472728819959
aF-40.32932309415353
aF-39.95881284056775
aF-39.12557964182845
aF-38.66249816071194
aF-38.430890881566086
aF-36.85633565746809
aF-35.60536539130434
aF-35.23485488298377
aF-34.81778981811353
aF-34.400652427958065
aF-33.9373234928403
aF-33.47378116400583
aF-33.42755384661922
aF-32.176052108722345
aF-31.38801237337945
aF-30.136030965777724
aF-29.99692112963218
aF-27.167934823802174
aF-26.982200816720276
aF-25.729761463203467
aF-25.636846656134853
aF-24.708815093973833
aF-24.01285743636639
aF-23.96652299089206
aF-22.713486454289704
aF-22.202881288075062
aF-21.69232194844023
aF-20.71743248227159
aF-17.978249694705173
aF-14.216797820017616
aF-13.102089035947408
aF-12.312325475320323
aF-9.525136497161217
aF-8.781800895986244
aF-8.084887803722845
aF-6.226395651680453
aF-5.529544430758961
aF-4.182081536552209
aF-3.5315677840958104
aF-1.7657197931587598
aF-4.273588831391267e-10
aF1.7657197940133322
aF3.5315677849499587
aF4.182081535698284
aF5.529544429905632
aF6.22639565253345
aF8.084887804574588
aF8.781800895135033
aF9.52513649801185
aF12.312325476168132
aF13.102089035100516
aF14.21679781917212
aF17.978249693865244
aF20.717432481436575
aF21.692321949273325
aF22.202881288907157
aF22.71348645345872
aF23.966522990063808
aF24.012857437194572
aF24.708815093147273
aF25.636846655310485
aF25.729761464027604
aF26.982200815899244
aF27.167934824622765
aF29.996921130445052
aF30.136030964965254
aF31.38801237257066
aF32.17605210952873
aF33.42755384742164
aF33.47378116320355
aF33.93732349364106
aF34.40065242875733
aF34.817789818911365
aF35.234854882187356
aF35.60536539050921
aF36.85633565825883
aF38.43089088235099
aF38.66249816149592
aF39.12557964104626
aF39.95881283978882
aF40.32932309493101
aF40.88472728897482
aF41.578890668662986
aF42.226766715242874
aF44.35506656133082
aF44.49377896742458
aF45.465062737522416
aF45.92747648729556
aF46.48230817818377
aF47.73042320708261
aF49.994665961750606
aF50.318139822725776
aF50.64145953889498
aF51.195711016825626
aF52.44257751409756
aF53.13491332674888
aF53.27351746431046
aF53.73512239767263
aF54.24269421451432
aF55.62700003482085
aF56.687816499257
aF57.37952180589625
aF58.578269147970026
aF58.67053020840354
aF60.00699829608324
aF60.744179716799856
aF61.204845166315884
aF61.57323925026515
aF62.17206538885956
aF62.40228319300597
aF62.63244888829486
aF63.231002974245406
aF64.05961927666789
aF64.19751793292905
aF64.33572054215907
aF64.47369089950786
aF65.7620232191895
aF66.35988516723835
aF66.45191291601854
aF66.54382836108172
aF68.47485357680631
aF69.71544603916057
aF69.94515179704709
aF70.63408721365748
aF71.27698990631465
aF71.41470518870992
aF71.46070166284113
aF71.50666312122996
aF71.55258954135532
aF71.59848090071324
aF71.64433717681692
aF71.78217524373491
aF72.47065696245947
aF73.52611946995151
aF73.70956483215436
aF74.67284410974507
aF74.90221632730237
aF75.81927424763825
aF76.27764827149063
aF78.93487732640696
aF79.25554676770841
aF79.66760410497494
aF79.85054316704596
aF79.98784206623095
aF80.76587658908896
aF81.90972518751997
aF82.138443290695
aF83.23584943824234
aF84.15006638885718
aF84.51560790823609
aF85.33790112615984
aF85.93151182870797
aF86.2055394985999
aF87.11858655817619
aF87.4837054120958
aF87.98571368436431
aF88.21383490837862
aF88.48741251951144
aF88.66995914678327
aF89.17158092723916
aF89.44527063938538
aF90.49378084222387
aF90.53933283014058
aF90.81285577545147
aF91.17736781692346
aF91.40508615061127
aF91.45070954664521
aF91.90620930344909
aF92.04288619445511
aF92.31621028115462
aF92.95357118913581
aF93.13575349283987
aF93.45434666754065
aF93.95509315922928
aF94.31910743655783
aF94.4100004546461
aF94.95588593478256
aF94.9560336718653
aF95.0923867238344
aF95.54728384388676
aF95.63812892625064
aF95.63825061696193
aF96.22913601641174
aF96.22922923064948
aF96.4109642614967
aF96.91101309772023
aF96.91105286566332
aF97.00196374726465
aF97.00198884169265
aF97.04740290576778
aF97.04741531233576
aF97.04724598321091
aF97.0440458658086
aF97.04400458229007
aF96.99855061895795
aF96.99847319772718
aF96.95313546302428
aF96.95303410408404
aF96.90770728683714
aF96.8622117874532
aF96.81679469027645
aF96.771426527679
aF96.68043025732425
aF96.58960582018156
aF96.49856127752385
aF96.40767539647396
aF96.31671192296676
aF96.18041580656694
aF96.0894328114604
aF95.95310069934331
aF95.90761387221673
aF95.40744691726644
aF95.27092174107754
aF94.99820107119852
aF94.9071979419934
aF94.22471824913546
aF93.8150717560948
aF93.76955555024249
aF93.67870924514573
aF93.49655739608463
aF93.31447654953283
aF93.2689335860461
aF93.08681741028506
aF92.95036597483995
aF92.63148698404827
aF91.90285808589223
aF91.5384283859434
aF91.3562460177476
aF91.03727126324198
aF90.58150119720504
aF90.53609131276727
aF90.49052842235673
aF90.4448126029747
aF89.1683104538452
aF88.21038057259652
aF88.16488620027793
aF87.98221726226144
aF87.6171827234037
aF87.52601335181173
aF87.02391122686403
aF86.79581596448872
aF86.704388456256
aF85.88247999351604
aF85.6998913027183
aF85.65427895000109
aF85.60858094301199
aF85.56279732744915
aF85.42594889877786
aF84.92330174095038
aF84.64926965173682
aF84.55783059378513
aF83.09535531179073
aF82.22661707718194
aF81.9977534396436
aF81.95212346470682
aF81.22013821483267
aF81.08286397094852
aF80.89981100550402
aF80.6252425590126
aF80.44222852975608
aF80.30498873751475
aF80.21339746312368
aF79.16059013458116
aF78.74847060330882
aF78.56523506176386
aF78.19885349755194
aF77.6491044166561
aF75.44909659086426
aF75.35741975678697
aF74.48602654980647
aF72.92631977113427
aF72.69667387911369
aF72.28358052237341
aF72.14595729794695
aF70.8145501931385
aF69.84987892272258
aF68.37949079009397
aF68.24158189236523
aF67.73590210264588
aF67.64393601458987
aF67.50612081106202
aF66.67848215664796
aF66.21860642882773
aF65.48257986013357
aF64.93056349664609
aF64.65434432458613
aF63.64185658348493
aF62.53709160494078
aF62.49090523885229
aF61.98443267259265
aF61.754238585445854
aF60.925140707413156
aF58.16006712405707
aF56.82283025176241
aF55.0700327024811
aF53.685426250217624
aF52.39296274386817
aF51.97738424232846
aF51.60798537119011
aF50.822898036683824
aF50.36085308341075
aF49.76029686628917
aF48.88253717084829
aF48.23541606954529
aF47.77329566457021
aF46.94112868314465
aF44.67546667287888
aF44.02794622632006
aF43.056382962496265
aF42.26981723409678
aF41.11282400712995
aF40.001736137578916
aF37.50122183524211
aF36.945450160967155
aF36.713940982322434
aF36.34326224477398
aF36.01902306188556
aF35.32394983339201
aF34.07302120204476
aF33.702113506129
aF32.543432332016486
aF31.801677711362792
aF30.78182017022199
aF26.60766916651157
aF23.034895373017225
aF21.549691754363938
aF20.621203269799768
aF20.52843747982462
aF19.69282902989792
aF18.996396001725067
aF18.62503088606967
aF17.556991131963287
aF16.813975591323516
aF15.931695267756254
aF15.560278464855182
aF14.956391270263744
aF10.636726090985748
aF8.917831907776119
aF5.479667665693299
aF5.200749950024838
aF4.132170209798509
aF1.483566271916496
a.