(lp0
(lp1
F3.075123017754968
aa(lp2
F2.5924405701374824
aa(lp3
F2.1097477527611717
aa(lp4
F1.6270464963966633
aa(lp5
F1.1443387318483396
aa(lp6
F-0.2772276311848141
aa(lp7
F-0.7599422371523485
aa(lp8
F-1.2426538033520544
aa(lp9
F-1.7253603989382031
aa(lp10
F-2.208060093084949
aa(lp11
F-23.7218869967584
aa(lp12
F-24.20221786728255
aa(lp13
F-24.682451928967065
aa(lp14
F-25.162587260877203
aa(lp15
F-25.642621942471422
aa(lp16
F-26.12255405361249
aa(lp17
F-26.602381674571745
aa(lp18
F-27.082102886040197
aa(lp19
F-27.56171576913279
aa(lp20
F-28.04121840539948
aa(lp21
F-28.52060887682951
aa(lp22
F-42.365537066649246
aa(lp23
F-42.8406732191623
aa(lp24
F-43.31563800904002
aa(lp25
F-43.790429536423034
aa(lp26
F-44.26504590214671
aa(lp27
F-44.73948520774538
aa(lp28
F-45.21374555546329
aa(lp29
F-45.687825048258844
aa(lp30
F-46.16172178981555
aa(lp31
F-60.44892162228598
aa(lp32
F-60.91613140452592
aa(lp33
F-61.383097522321464
aa(lp34
F-64.248404943486
aa(lp35
F-64.71357508779386
aa(lp36
F-65.17848637788764
aa(lp37
F-71.82139530269315
aa(lp38
F-74.18986130515684
aa(lp39
F-79.38491145896535
aa(lp40
F-81.27292604415547
aa(lp41
F-85.50931525999218
aa(lp42
F-86.92850596635574
aa(lp43
F-90.22987340444115
aa(lp44
F-91.63735352085315
aa(lp45
F-94.91064163703038
aa(lp46
F-95.86297494187336
aa(lp47
F-98.66927535107139
aa(lp48
F-99.61450602236481
aa(lp49
F-108.47810645737411
aa(lp50
F-111.27174494423245
aa(lp51
F-114.5345446887356
aa(lp52
F-116.86453049980378
aa(lp53
F-119.18037584526539
aa(lp54
F-122.87734322867126
aa(lp55
F-123.35386357286049
aa(lp56
F-124.74197737967717
aa(lp57
F-130.2746556077889
aa(lp58
F-130.74069571870427
aa(lp59
F-136.70861407169227
aa(lp60
F-137.1648309828822
aa(lp61
F-144.03018546930605
aa(lp62
F-144.93973473242878
aa(lp63
F-147.6837402212837
aa(lp64
F-148.5802109899507
aa(lp65
F-150.85190641772047
aa(lp66
F-152.22239082756298
aa(lp67
F-154.03287991938308
aa(lp68
F-156.30586261472607
aa(lp69
F-164.4206920313888
aa(lp70
F-165.77712323820995
aa(lp71
F-167.57431076605988
aa(lp72
F-168.90762704185863
aa(lp73
F-172.03342463022165
aa(lp74
F-172.490645439222
aa(lp75
F-173.3822022900206
aa(lp76
F-173.8356813344025
aa(lp77
F-174.71988354805396
aa(lp78
F-175.1695918053134
aa(lp79
F-176.04638279317783
aa(lp80
F-176.49229148213982
aa(lp81
F-181.8281113924309
aa(lp82
F-184.03230591967494
aa(lp83
F-186.24578960375302
aa(lp84
F-187.1184797227778
aa(lp85
F-187.5749801963621
aa(lp86
F-196.3451210154726
aa(lp87
F-197.6413679500318
aa(lp88
F-199.38538018999716
aa(lp89
F-199.832511540943
aa(lp90
F-201.13663101295862
aa(lp91
F-205.4662072295035
aa(lp92
F-207.18238379750855
aa(lp93
F-209.771809675875
aa(lp94
F-210.21258841327594
aa(lp95
F-211.07217258889548
aa(lp96
F-211.5043675612037
aa(lp97
F-212.3469960265572
aa(lp98
F-214.4883590746751
aa(lp99
F-214.92933158509842
aa(lp100
F-216.19990163317848
aa(lp101
F-216.62733265315353
aa(lp102
F-217.91946278183454
aa(lp103
F-218.33273145490475
aa(lp104
F-219.62213341924337
aa(lp105
F-220.05007211551793
aa(lp106
F-221.3204494836535
aa(lp107
F-223.01764168751194
aa(lp108
F-224.28775279436059
aa(lp109
F-224.70470664487473
aa(lp110
F-227.24617018273176
aa(lp111
F-228.92624054958904
aa(lp112
F-229.75345389142757
aa(lp113
F-230.1929501162743
aa(lp114
F-230.6031222868846
aa(lp115
F-231.0264382895893
aa(lp116
F-231.4414373654665
aa(lp117
F-231.86791206232746
aa(lp118
F-232.70056459234772
aa(lp119
F-233.53171887723548
aa(lp120
F-233.95273976615923
aa(lp121
F-234.36229701764444
aa(lp122
F-235.20122508244444
aa(lp123
F-235.6270268032977
aa(lp124
F-235.61157097819088
aa(lp125
F-236.03774847486275
aa(lp126
F-236.8603427851379
aa(lp127
F-237.69869829320237
aa(lp128
F-238.52545992620713
aa(lp129
F-238.95069031344624
aa(lp130
F-238.94063470899593
aa(lp131
F-239.36338862716207
aa(lp132
F-239.78156739287198
aa(lp133
F-239.7734211362133
aa(lp134
F-240.1914926724585
aa(lp135
F-240.1844807726833
aa(lp136
F-240.5984094737852
aa(lp137
F-240.6118299166109
aa(lp138
F-241.0144731765532
aa(lp139
F-241.02722355570668
aa(lp140
F-241.02348191785885
aa(lp141
F-241.01066033678637
aa(lp142
F-241.1786966047064
aa(lp143
F-241.18787506517072
aa(lp144
F-241.1885554804709
aa(lp145
F-241.17939515556537
aa(lp146
F-240.77459509845315
aa(lp147
F-240.77585541523385
aa(lp148
F-240.34907967827505
aa(lp149
F-239.93764790868101
aa(lp150
F-239.93961317719075
aa(lp151
F-239.52073076115326
aa(lp152
F-239.11163407100418
aa(lp153
F-239.11410367751355
aa(lp154
F-238.70020213062998
aa(lp155
F-238.7028873123332
aa(lp156
F-238.29285943825084
aa(lp157
F-238.29574189163347
aa(lp158
F-237.03553248922722
aa(lp159
F-237.03895111388607
aa(lp160
F-236.6166812724581
aa(lp161
F-236.6202601704622
aa(lp162
F-234.11880147439132
aa(lp163
F-234.12321234977176
aa(lp164
F-233.70238765398113
aa(lp165
F-233.70692165172255
aa(lp166
F-233.27917936127318
aa(lp167
F-232.44960641810422
aa(lp168
F-232.45449094931195
aa(lp169
F-229.5167700712559
aa(lp170
F-229.5223841969133
aa(lp171
F-228.68152516202133
aa(lp172
F-227.8246024905125
aa(lp173
F-227.41725688189996
aa(lp174
F-224.44917260624277
aa(lp175
F-224.45584528602907
aa(lp176
F-223.1847457336055
aa(lp177
F-223.1916540364481
aa(lp178
F-222.34878470706045
aa(lp179
F-221.49481355052305
aa(lp180
F-218.93489703226916
aa(lp181
F-218.5190688643531
aa(lp182
F-214.2459939276654
aa(lp183
F-214.2543504454406
aa(lp184
F-213.80813861076712
aa(lp185
F-212.0957744526453
aa(lp186
F-212.10443553984098
aa(lp187
F-210.81586485649817
aa(lp188
F-209.51945663123587
aa(lp189
F-208.66651709376822
aa(lp190
F-206.0735481883223
aa(lp191
F-205.19852872991478
aa(lp192
F-203.9078643246044
aa(lp193
F-203.91757373961002
aa(lp194
F-202.60636490478808
aa(lp195
F-202.61622716186207
aa(lp196
F-199.12797808716857
aa(lp197
F-199.138233080257
aa(lp198
F-196.5113582530772
aa(lp199
F-196.07949727075686
aa(lp200
F-196.09007917510417
aa(lp201
F-188.1976614656883
aa(lp202
F-187.74347489196825
aa(lp203
F-187.75487958620576
aa(lp204
F-187.29904562391835
aa(lp205
F-184.21727341130892
aa(lp206
F-182.00419695925208
aa(lp207
F-182.0161160801879
aa(lp208
F-176.67494423854538
aa(lp209
F-176.68730842839068
aa(lp210
F-175.35380692273512
aa(lp211
F-172.6779498103261
aa(lp212
F-171.32340126766923
aa(lp213
F-171.33618418646773
aa(lp214
F-169.0989131688128
aa(lp215
F-166.84584775609807
aa(lp216
F-166.8589612739731
aa(lp217
F-162.80422247394793
aa(lp218
F-161.89782717675155
aa(lp219
F-161.91128680486366
aa(lp220
F-161.00078303118812
aa(lp221
F-160.09971387443437
aa(lp222
F-159.1946422331723
aa(lp223
F-158.28559073414573
aa(lp224
F-158.29929113915236
aa(lp225
F-157.38634185029255
aa(lp226
F-153.3089140006491
aa(lp227
F-153.32293074436214
aa(lp228
F-150.13209431778574
aa(lp229
F-147.8535619038062
aa(lp230
F-146.50014208384337
aa(lp231
F-142.84414487488795
aa(lp232
F-141.46411149814224
aa(lp233
F-141.47881561540615
aa(lp234
F-140.09177570124277
aa(lp235
F-140.10655392226673
aa(lp236
F-138.72742703601807
aa(lp237
F-134.1334266617531
aa(lp238
F-130.92118462756048
aa(lp239
F-129.07569512215503
aa(lp240
F-127.23499756579798
aa(lp241
F-125.38399404420363
aa(lp242
F-123.53842592271481
aa(lp243
F-119.36709819945318
aa(lp244
F-117.0524090753015
aa(lp245
F-114.72355675246475
aa(lp246
F-111.93732367970702
aa(lp247
F-109.148141164337
aa(lp248
F-106.34051287289043
aa(lp249
F-103.53130774882507
aa(lp250
F-103.0786409630225
aa(lp251
F-99.7935767937976
aa(lp252
F-96.04340065060053
aa(lp253
F-92.28223860563965
aa(lp254
F-91.81923184952883
aa(lp255
F-87.11191341508638
aa(lp256
F-87.1288385221979
aa(lp257
F-81.92934931499389
aa(lp258
F-81.45804836502572
aa(lp259
F-74.85327838371036
aa(lp260
F-74.37694927709819
aa(lp261
F-65.84979586569965
aa(lp262
F-65.3852618899017
aa(lp263
F-64.9029863837883
aa(lp264
F-64.43792145827534
aa(lp265
F-48.73877363544215
aa(lp266
F-48.265905204960326
aa(lp267
F-47.79284371092215
aa(lp268
F-47.31959104557284
aa(lp269
F-46.84614910192235
aa(lp270
F-46.35470910656851
aa(lp271
F-46.37251977373801
aa(lp272
F-45.88088735146336
aa(lp273
F-45.40688207286999
aa(lp274
F-44.93269516680887
aa(lp275
F-44.458328530026975
aa(lp276
F-43.983784059990256
aa(lp277
F-43.50906365487593
aa(lp278
F-43.03416921356501
aa(lp279
F-42.55910263563461
aa(lp280
F-28.715854272475923
aa(lp281
F-28.236510040662026
aa(lp282
F-27.75705286284561
aa(lp283
F-27.277484656854757
aa(lp284
F-26.797807340961644
aa(lp285
F-26.3180228338749
aa(lp286
F-25.838133054731905
aa(lp287
F-25.358139923091148
aa(lp288
F-24.878045358924506
aa(lp289
F-24.3978512826096
aa(lp290
F-23.917559614922094
aa(lp291
F-23.935618878980385
aa(lp292
F-23.455235103236433
aa(lp293
F-22.974757506583337
aa(lp294
F-22.494188010930852
aa(lp295
F-22.013528538556315
aa(lp296
F-21.532781012096862
aa(lp297
F-21.051947354542186
aa(lp298
F-20.571029489226156
aa(lp299
F3.825696397315344
aa(lp300
F4.308343580966059
aa(lp301
F4.790973531248196
aa(lp302
F5.273584317642702
aa(lp303
F6.694715965315133
aa(lp304
F7.177232323026344
aa(lp305
F7.659719971817834
aa(lp306
F8.142176981739649
aa(lp307
F8.624601422964394
aa(lp308
F9.088855602737626
aa(lp309
F9.571210522103573
aa(lp310
F10.053527156640193
aa(lp311
F10.535803577081591
aa(lp312
F11.018037854322834
aa(lp313
F56.841724089405176
aa(lp314
F57.31074825819207
aa(lp315
F57.779543184062334
aa(lp316
F58.74221570519212
aa(lp317
F59.2102986696481
aa(lp318
F59.67814479298835
aa(lp319
F69.65056876674676
aa(lp320
F70.11260849209134
aa(lp321
F70.59978248051189
aa(lp322
F71.06124386218255
aa(lp323
F77.69439927578291
aa(lp324
F78.15126531651296
aa(lp325
F78.63294591641319
aa(lp326
F84.28761739623829
aa(lp327
F84.76465673734322
aa(lp328
F89.46659085154482
aa(lp329
F89.93940210795537
aa(lp330
F93.70929669872577
aa(lp331
F94.17842644425498
aa(lp332
F97.918174507477
aa(lp333
F98.3834533913816
aa(lp334
F107.74283233822618
aa(lp335
F108.19832342868784
aa(lp336
F110.54132163227908
aa(lp337
F110.9938125247697
aa(lp338
F113.32112970607218
aa(lp339
F115.65833554599976
aa(lp340
F117.98154686843849
aa(lp341
F120.29048256765286
aa(lp342
F122.60775616239587
aa(lp343
F124.45106376747322
aa(lp344
F126.3071838015843
aa(lp345
F128.15307302286573
aa(lp346
F129.98858191529982
aa(lp347
F131.83582425444447
aa(lp348
F133.22561663568322
aa(lp349
F135.05354121520887
aa(lp350
F136.42854632579116
aa(lp351
F137.81889382583188
aa(lp352
F144.66798396887833
aa(lp353
F146.03796322397912
aa(lp354
F148.31238103825612
aa(lp355
F150.58660267413882
aa(lp356
F152.85970819858952
aa(lp357
F153.77122027961119
aa(lp358
F156.93159194814226
aa(lp359
F157.84649768165323
aa(lp360
F158.7374381835085
aa(lp361
F159.64451648545614
aa(lp362
F160.54760368280648
aa(lp363
F161.44667719842664
aa(lp364
F162.36138004879757
aa(lp365
F163.25226924080067
aa(lp366
F166.40626922821255
aa(lp367
F167.29745077337574
aa(lp368
F169.54484711577962
aa(lp369
F173.11456725228985
aa(lp370
F174.4544644488156
aa(lp371
F175.78319661916368
aa(lp372
F177.5738181729047
aa(lp373
F178.89369261341997
aa(lp374
F181.1268117772198
aa(lp375
F182.88788494552443
aa(lp376
F183.34227235958494
aa(lp377
F185.53879734834635
aa(lp378
F185.98412344062191
aa(lp379
F190.38269193427635
aa(lp380
F190.8268880251293
aa(lp381
F191.26936667527815
aa(lp382
F191.71012390241796
aa(lp383
F191.69397665122656
aa(lp384
F192.14915573973664
aa(lp385
F192.13307188789113
aa(lp386
F192.5864582359507
aa(lp387
F192.57043792820562
aa(lp388
F193.02202745534066
aa(lp389
F193.45585947778636
aa(lp390
F193.8879503988026
aa(lp391
F197.8209118368936
aa(lp392
F200.00792856678274
aa(lp393
F201.74720431177704
aa(lp394
F203.46668211486272
aa(lp395
F205.64422773368585
aa(lp396
F205.6303137866031
aa(lp397
F206.50987063838565
aa(lp398
F208.23858491264076
aa(lp399
F209.10093218989442
aa(lp400
F209.0876576284597
aa(lp401
F211.23670225063498
aa(lp402
F212.96425966339044
aa(lp403
F212.95175198478265
aa(lp404
F215.51998646935536
aa(lp405
F215.9528602137473
aa(lp406
F216.3822787169828
aa(lp407
F216.80823510837496
aa(lp408
F217.2307225726307
aa(lp409
F219.79225973216288
aa(lp410
F221.0700710127155
aa(lp411
F221.05940422161623
aa(lp412
F221.92238939957647
aa(lp413
F222.76739898533108
aa(lp414
F223.60437027877765
aa(lp415
F225.72029795497141
aa(lp416
F226.14479139592305
aa(lp417
F226.56363122886808
aa(lp418
F228.26078737744368
aa(lp419
F228.25215024777913
aa(lp420
F229.1012870115183
aa(lp421
F229.930784934116
aa(lp422
F230.3590280450408
aa(lp423
F231.61818504485106
aa(lp424
F232.02856650576604
aa(lp425
F232.0212474325452
aa(lp426
F232.8728621212833
aa(lp427
F232.86587579422346
aa(lp428
F234.9499770775713
aa(lp429
F235.37854612447143
aa(lp430
F235.79813578666105
aa(lp431
F236.20809661961383
aa(lp432
F236.2026344486459
aa(lp433
F237.46082659174755
aa(lp434
F237.45606857816983
aa(lp435
F237.8764214251208
aa(lp436
F238.27722097884003
aa(lp437
F239.53607913493218
aa(lp438
F239.53281843837223
aa(lp439
F239.9531006998648
aa(lp440
F239.95023599385812
aa(lp441
F240.36045459035086
aa(lp442
F240.35803944803007
aa(lp443
F240.76774395362642
aa(lp444
F240.7826592330192
aa(lp445
F240.7658851042144
aa(lp446
F241.18416536495792
aa(lp447
F241.19320088566658
aa(lp448
F241.19221777246457
aa(lp449
F241.183155693751
aa(lp450
F241.01732507752976
aa(lp451
F241.020655840355
aa(lp452
F240.6026516437227
aa(lp453
F240.60761352580428
aa(lp454
F240.19674904801593
aa(lp455
F239.76728460002468
aa(lp456
F239.3565073787451
aa(lp457
F238.53364016334075
aa(lp458
F238.11425303631822
aa(lp459
F238.124518214277
aa(lp460
F237.70798886618832
aa(lp461
F237.27795409526115
aa(lp462
F237.2894577450809
aa(lp463
F236.87063443077565
aa(lp464
F236.44412837440998
aa(lp465
F236.45674272886842
aa(lp466
F235.21324639301903
aa(lp467
F234.78738790648282
aa(lp468
F234.37510032497664
aa(lp469
F233.1131482047564
aa(lp470
F232.28038633158798
aa(lp471
F229.76986560248605
aa(lp472
F229.34200300404558
aa(lp473
F228.50088307682583
aa(lp474
F228.0888574152511
aa(lp475
F226.8184215394818
aa(lp476
F226.40306410428715
aa(lp477
F225.9820466042817
aa(lp478
F225.55537956488095
aa(lp479
F225.12307365273878
aa(lp480
F223.85921450921606
aa(lp481
F223.42907696261955
aa(lp482
F222.59846771073197
aa(lp483
F221.7498281046653
aa(lp484
F220.46674352159857
aa(lp485
F219.19755648792048
aa(lp486
F218.76515088930068
aa(lp487
F214.0687133949993
aa(lp488
F213.65033104647353
aa(lp489
F210.62843327236624
aa(lp490
F209.3506303415755
aa(lp491
F207.61660044471884
aa(lp492
F205.9059835802687
aa(lp493
F204.60314436062663
aa(lp494
F203.73565918701667
aa(lp495
F202.43145320568655
aa(lp496
F202.0018341885416
aa(lp497
F200.26758818767266
aa(lp498
F198.9461118566465
aa(lp499
F198.08670158277843
aa(lp500
F195.46797179501976
aa(lp501
F194.14847439358854
aa(lp502
F193.71743854929176
aa(lp503
F193.28465924935546
aa(lp504
F191.09474778768234
aa(lp505
F190.6515900958628
aa(lp506
F190.20671654101926
aa(lp507
F189.76013112701068
aa(lp508
F188.449433801479
aa(lp509
F185.3556954320044
aa(lp510
F184.9315116332778
aa(lp511
F182.26832835571835
aa(lp512
F177.39795776801822
aa(lp513
F176.94895460374178
aa(lp514
F170.24347194458647
aa(lp515
F168.00501689968934
aa(lp516
F166.2182059529063
aa(lp517
F163.97536072034387
aa(lp518
F156.76193926323367
aa(lp519
F155.84238710755722
aa(lp520
F154.50017507298787
aa(lp521
F152.68690566283692
aa(lp522
F146.76994101317916
aa(lp523
F145.86018746612262
aa(lp524
F141.7391841607489
aa(lp525
F140.36823659142962
aa(lp526
F138.99041100660273
aa(lp527
F134.86848950968974
aa(lp528
F134.41568283267318
aa(lp529
F131.6487993159504
aa(lp530
F131.19118106517786
aa(lp531
F123.81453119020945
aa(lp532
F122.4154397807751
aa(lp533
F119.6464431469787
aa(lp534
F115.00633624640189
aa(lp535
F113.14748041386606
aa(lp536
F112.66526856528031
aa(lp537
F109.88099884657031
aa(lp538
F107.07815950057969
aa(lp539
F104.7490206292231
aa(lp540
F103.82165834288173
aa(lp541
F101.47572008740109
aa(lp542
F100.54179775005085
aa(lp543
F97.73841838223697
aa(lp544
F96.79731541983753
aa(lp545
F93.97287095442141
aa(lp546
F92.5792523853713
aa(lp547
F89.28393662286784
aa(lp548
F87.87836314394356
aa(lp549
F84.10333691716266
aa(lp550
F82.68538134389993
aa(lp551
F77.96520020533293
aa(lp552
F76.07570943381081
aa(lp553
F69.9244320165748
aa(lp554
F69.4622785804816
aa(lp555
F67.55054583520186
aa(lp556
F67.08698657327449
aa(lp557
F58.0572672247407
aa(lp558
F57.58860904555022
aa(lp559
F57.11972051200033
aa(lp560
F56.65060349964457
aa(lp561
F52.82831988523619
aa(lp562
F52.35720369490761
aa(lp563
F51.88587807583406
aa(lp564
F51.41434491331738
aa(lp565
F17.523100698915727
aa(lp566
F17.04162406859831
aa(lp567
F16.56007927180745
aa(lp568
F16.078468234721473
aa(lp569
F15.596792883784
aa(lp570
F15.115055145695784
aa(lp571
F8.428091613700106
aa(lp572
F7.945653672796819
aa(lp573
F7.4631839492894345
aa(lp574
F6.980684373056203
aa(lp575
F6.4981568740947875
aa.