(lp0
(lp1
F-300.99612206659765
aF-78.39771619146512
aa(lp2
F-301.00174478330615
aF-78.4033389081736
aa(lp3
F-300.99790905690287
aF-77.8754398720592
aa(lp4
F-301.00019559946145
aF-77.35924115501523
aa(lp5
F-301.0032524707332
aF-76.84940377889771
aa(lp6
F-300.9985921029861
aF-76.33745299830392
aa(lp7
F-301.0012994722415
aF-70.69424967069837
aa(lp8
F-301.0046145279311
aF-66.24983114783363
aa(lp9
F-301.0043666631081
aF-64.80760625893154
aa(lp10
F-300.9950596451072
aF-63.450797771765025
aa(lp11
F-301.01124708991017
aF-63.144935650223815
aa(lp12
F-301.0070209947184
aF-62.514458261091775
aa(lp13
F-300.99706062290807
aF-62.200311817934995
aa(lp14
F-300.9953009526827
aF-60.23681405547967
aa(lp15
F-300.99924832602903
aF-59.984534977757896
aa(lp16
F-300.99567073384424
aF-59.730756289785866
aa(lp17
F-300.99809683676614
aF-57.38032471696288
aa(lp18
F-300.9927844872358
aF-57.1975601959623
aa(lp19
F-301.00812190902195
aF-55.55998731073349
aa(lp20
F-301.00565854597704
aF-55.28215689764799
aa(lp21
F-300.9963762404972
aF-55.193368818844164
aa(lp22
F-301.00759161846065
aF-55.00294443351934
aa(lp23
F-300.99402632389666
aF-54.72235689864459
aa(lp24
F-300.99970412930963
aF-54.72235689864461
aa(lp25
F-300.99922501386874
aF-54.72235689864461
aa(lp26
F-300.9925889895519
aF-54.72235689864461
aa(lp27
F-300.99849183839876
aF-55.00294443351944
aa(lp28
F-300.99273223673447
aF-55.28215689764816
aa(lp29
F-301.00286550127583
aF-55.47164021314511
aa(lp30
F-300.999492134408
aF-56.02401571529771
aa(lp31
F-301.0083917418581
aF-56.29810601379058
aa(lp32
F-301.0112232610296
aF-59.30067206358766
aa(lp33
F-301.0016202501114
aF-60.81592690105865
aa(lp34
F-301.0091983733197
aF-61.9602534908637
aa(lp35
F-301.0015428177127
aF-63.836848815866595
aa(lp36
F-301.003490666581
aF-64.51439895983549
aa(lp37
F-298.2527505334533
aF-78.35786854172156
aa(lp38
F-298.2373830208887
aF-78.34250102915694
aa(lp39
F-298.25179141317824
aF-75.65338553804567
aa(lp40
F-298.24006839895117
aF-74.59911395450497
aa(lp41
F-298.25059962549034
aF-74.09675093365486
aa(lp42
F-298.24740706872785
aF-69.27487289204043
aa(lp43
F-298.2489748755479
aF-67.94192507400473
aa(lp44
F-298.2459266887841
aF-67.07796958992374
aa(lp45
F-298.2417518077833
aF-65.8258036649746
aa(lp46
F-298.2470105527051
aF-65.02810298001675
aa(lp47
F-298.2384483260389
aF-62.750902154712826
aa(lp48
F-298.24747103513306
aF-60.06505667449974
aa(lp49
F-298.24226034091714
aF-55.193368818844164
aa(lp50
F-298.2475455040938
aF-55.00294443351919
aa(lp51
F-298.25046564727415
aF-54.632693527470906
aa(lp52
F-298.23562559897084
aF-54.440401307697314
aa(lp53
F-298.24422219705355
aF-53.01035040965903
aa(lp54
F-298.24468550457385
aF-52.13635952700016
aa(lp55
F-298.2375004497479
aF-52.13635952700024
aa(lp56
F-298.2516505813032
aF-52.627679974458545
aa(lp57
F-298.2515609814492
aF-52.72033569331846
aa(lp58
F-298.2454376238276
aF-52.918115304572694
aa(lp59
F-298.2416863011874
aF-56.29810601379058
aa(lp60
F-295.46863130987873
aF-78.4147003449052
aa(lp61
F-295.4836550998943
aF-78.42972413492076
aa(lp62
F-295.47362963436444
aF-78.41969866939095
aa(lp63
F-295.47712416830456
aF-77.27043325634412
aa(lp64
F-295.46919228321235
aF-74.4763129270246
aa(lp65
F-295.4844581506618
aF-71.84350370621563
aa(lp66
F-295.4710998895767
aF-70.80996078489447
aa(lp67
F-295.4791101981479
aF-69.8202523599232
aa(lp68
F-295.476706449506
aF-68.84269557547418
aa(lp69
F-295.4792730403629
aF-65.61131880056558
aa(lp70
F-295.48448343774965
aF-65.17743363620652
aa(lp71
F-295.47741848183733
aF-64.73703078279819
aa(lp72
F-295.47404117372037
aF-61.47549586756126
aa(lp73
F-295.472081149084
aF-59.984534977757896
aa(lp74
F-295.477041607777
aF-58.260767894953695
aa(lp75
F-295.480081930106
aF-56.385116960069276
aa(lp76
F-295.4808437958474
aF-54.722356898644335
aa(lp77
F-295.4743136903206
aF-53.49500988662716
aa(lp78
F-295.47478573840056
aF-52.627679974458545
aa(lp79
F-295.4778944934038
aF-52.42900297133088
aa(lp80
F-295.477099056934
aF-52.04286954021552
aa(lp81
F-295.47092841585277
aF-50.353385662413004
aa(lp82
F-295.4724123412189
aF-49.748910692889815
aa(lp83
F-295.4866633489065
aF-49.9554380607758
aa(lp84
F-295.4841155250936
aF-50.051773823520996
aa(lp85
F-295.4736190610569
aF-50.257449294400175
aa(lp86
F-295.4874829421401
aF-51.54716976817635
aa(lp87
F-295.46960067044677
aF-53.29903987000089
aa(lp88
F-295.4678502467011
aF-55.282156897648335
aa(lp89
F-295.4704831006766
aF-55.55998731073386
aa(lp90
F-292.695923388386
aF-78.01251050850563
aa(lp91
F-292.7084834386086
aF-77.42435304976102
aa(lp92
F-292.7034254321047
aF-76.82395962633697
aa(lp93
F-292.7073165030191
aF-75.65338553804564
aa(lp94
F-292.70466967010617
aF-75.0716383244149
aa(lp95
F-292.7071431615018
aF-72.26050691032967
aa(lp96
F-292.70866031887783
aF-70.63988270200959
aa(lp97
F-292.70494943083685
aF-69.58248024599307
aa(lp98
F-292.7085365027118
aF-67.54572350195943
aa(lp99
F-292.70064118990285
aF-61.96025349086373
aa(lp100
F-292.69439190870594
aF-59.47548433601759
aa(lp101
F-292.6993181896493
aF-58.70077288349018
aa(lp102
F-292.70004103585353
aF-50.952825335330864
aa(lp103
F-292.70106946587475
aF-49.65217794380177
aa(lp104
F-292.70156185745907
aF-48.73498026262494
aa(lp105
F-292.70838928217086
aF-48.1174105428708
aa(lp106
F-292.71201526817504
aF-47.59447251473519
aa(lp107
F-292.7127016438397
aF-46.653139324460994
aa(lp108
F-292.7035082670772
aF-46.55257132663987
aa(lp109
F-292.6972808562765
aF-46.55257132663987
aa(lp110
F-292.70455912461455
aF-46.6531393244611
aa(lp111
F-292.7132787427083
aF-47.18205345457763
aa(lp112
F-292.71421591577865
aF-47.28187421420601
aa(lp113
F-292.71119888881685
aF-47.49502912216008
aa(lp114
F-292.71320683978706
aF-56.57078886256532
aa(lp115
F-289.91792816356855
aF-78.31830389430218
aa(lp116
F-289.9304301873036
aF-77.70340589526093
aa(lp117
F-289.92858945922654
aF-77.07947080896136
aa(lp118
F-289.92196875039065
aF-74.63783836154309
aa(lp119
F-289.9196973293041
aF-71.14480200698232
aa(lp120
F-289.9330109142969
aF-60.065056674499615
aa(lp121
F-289.91860179781304
aF-57.91285400470602
aa(lp122
F-289.9322430840007
aF-57.11190497808882
aa(lp123
F-289.92794747902326
aF-54.440401307697094
aa(lp124
F-289.9309234169504
aF-51.74850905631706
aa(lp125
F-289.93090720359515
aF-50.2574492944002
aa(lp126
F-289.92035507126513
aF-47.49502912216008
aa(lp127
F-289.921123055021
aF-47.28187421420566
aa(lp128
F-289.91678976018915
aF-46.867898238116204
aa(lp129
F-289.92753417241306
aF-45.06103020287203
aa(lp130
F-289.9323090001941
aF-43.98872705305704
aa(lp131
F-289.91795508132105
aF-43.76701814088373
aa(lp132
F-289.923047919121
aF-43.663213078190864
aa(lp133
F-289.9206524018055
aF-43.663213078190864
aa(lp134
F-289.9222521867894
aF-43.98872705305704
aa(lp135
F-289.92662512185433
aF-46.33701845358532
aa(lp136
F-289.92664295003954
aF-48.21609175259765
aa(lp137
F-289.9226086487322
aF-52.4290029713314
aa(lp138
F-289.92387269345477
aF-53.781454716233
aa(lp139
F-287.13142450644654
aF-78.09414129310349
aa(lp140
F-287.12643377567383
aF-73.04910547890121
aa(lp141
F-287.144209148627
aF-72.4607962687466
aa(lp142
F-287.1276340950632
aF-71.84350370621559
aa(lp143
F-287.1449164512952
aF-65.61131880056567
aa(lp144
F-287.1396259708837
aF-62.98577727904818
aa(lp145
F-287.13435370578605
aF-61.47549586756128
aa(lp146
F-287.1338519619057
aF-60.98459074590148
aa(lp147
F-287.1434586756552
aF-59.556957978042554
aa(lp148
F-287.1255046591083
aF-56.385116960069126
aa(lp149
F-287.1383050414529
aF-54.722356898644165
aa(lp150
F-287.1398044522168
aF-50.2574492944002
aa(lp151
F-287.1357736755738
aF-47.18205345457763
aa(lp152
F-287.12895275981754
aF-45.38173705929486
aa(lp153
F-287.14107422646
aF-44.09218270438701
aa(lp154
F-287.13183181654534
aF-43.336607525271845
aa(lp155
F-287.14075830598324
aF-43.008918559421815
aa(lp156
F-287.136975993993
aF-42.01943324055322
aa(lp157
F-287.13740953229774
aF-41.79333954497052
aa(lp158
F-287.135627411115
aF-41.68749281282648
aa(lp159
F-287.13164712056425
aF-41.12699993562289
aa(lp160
F-287.1288197040473
aF-41.02049372647367
aa(lp161
F-287.1282962021028
aF-44.31314131203798
aa(lp162
F-287.1306838851291
aF-44.739196823041304
aa(lp163
F-287.12919906912725
aF-44.95863826868139
aa(lp164
F-287.14480472110614
aF-45.91843398036312
aa(lp165
F-287.1428303760322
aF-50.653738669286746
aa(lp166
F-287.125779429707
aF-52.42900297133146
aa(lp167
F-287.1373032897415
aF-53.58639685712177
aa(lp168
F-284.34575680815306
aF-77.95442677689194
aa(lp169
F-284.3310329092726
aF-77.27043325634416
aa(lp170
F-284.34154840662546
aF-75.95795562527636
aa(lp171
F-284.33393469671967
aF-75.2966514833766
aa(lp172
F-284.33717430981494
aF-74.00820420764188
aa(lp173
F-284.33353306489244
aF-72.10650877284976
aa(lp174
F-284.3419240601995
aF-68.46245825443174
aa(lp175
F-284.3486819858256
aF-67.879277738539
aa(lp176
F-284.3347556364922
aF-67.28082467151864
aa(lp177
F-284.3452291261381
aF-62.27645150926987
aa(lp178
F-284.3368295843652
aF-54.91371759319745
aa(lp179
F-284.3416767481931
aF-52.33592895508609
aa(lp180
F-284.3350321427266
aF-49.95543806077585
aa(lp181
F-284.3493319727569
aF-47.80681741648821
aa(lp182
F-284.34584204211046
aF-44.958638268681426
aa(lp183
F-284.3302886976844
aF-42.12494626081206
aa(lp184
F-284.330282400478
aF-39.335196606795186
aa(lp185
F-284.33744548388114
aF-39.10357369648656
aa(lp186
F-284.3392232052992
aF-38.99515321797198
aa(lp187
F-284.3383838858375
aF-38.07854904490738
aa(lp188
F-284.34878113581465
aF-38.07854904490741
aa(lp189
F-284.3359883685221
aF-38.07854904490741
aa(lp190
F-284.34154134052125
aF-41.12699993562316
aa(lp191
F-284.33978539154964
aF-43.113414650806575
aa(lp192
F-284.3494385008113
aF-45.599639398963376
aa(lp193
F-284.34674745642366
aF-47.18205345457765
aa(lp194
F-284.3489544021773
aF-49.652177943801796
aa(lp195
F-281.53826294107347
aF-77.87543987205916
aa(lp196
F-281.5430956396584
aF-75.82619500256595
aa(lp197
F-281.53691257995314
aF-74.47631292702467
aa(lp198
F-281.53002024805505
aF-73.14642746670592
aa(lp199
F-281.52925143035964
aF-71.84350370621553
aa(lp200
F-281.5415778868853
aF-69.9419536176189
aa(lp201
F-281.541266536223
aF-68.07537474461564
aa(lp202
F-281.5339615366815
aF-66.24983114783383
aa(lp203
F-281.5425045832711
aF-63.909473237579746
aa(lp204
F-281.53794218962963
aF-62.20031181793509
aa(lp205
F-281.5442619528859
aF-59.4754843360176
aa(lp206
F-281.5341734087985
aF-57.38032471696293
aa(lp207
F-281.5477284672294
aF-54.913717593197454
aa(lp208
F-281.54518537257
aF-49.95543806077585
aa(lp209
F-281.5464107200312
aF-45.70130937465479
aa(lp210
F-281.5294150248614
aF-44.31314131203801
aa(lp211
F-281.5329889263993
aF-43.988727053057076
aa(lp212
F-281.5295245178773
aF-43.66321307819089
aa(lp213
F-281.52926546495524
aF-39.7820497644325
aa(lp214
F-281.54053904366754
aF-39.335196606795186
aa(lp215
F-281.5288996455915
aF-39.10357369648644
aa(lp216
F-281.53018311558804
aF-37.73495882431455
aa(lp217
F-281.52977413486195
aF-35.89192133459991
aa(lp218
F-281.5302771008818
aF-35.6539089682881
aa(lp219
F-281.5471628614861
aF-35.54251567654476
aa(lp220
F-281.54574060732426
aF-35.303896833761044
aa(lp221
F-281.5423869669261
aF-35.30389683376111
aa(lp222
F-281.53806308142407
aF-35.54251567654476
aa(lp223
F-281.5342550450789
aF-36.00302975694821
aa(lp224
F-281.5445040486452
aF-36.69856240716201
aa(lp225
F-281.54710984336367
aF-37.28048399173972
aa(lp226
F-281.54020354900337
aF-41.35451019995066
aa(lp227
F-281.5347911661338
aF-42.78499206428585
aa(lp228
F-281.53318726128396
aF-47.59447251473574
aa(lp229
F-278.7282935650672
aF-77.87543987205916
aa(lp230
F-278.72472813807144
aF-75.75680366263505
aa(lp231
F-278.7344613934293
aF-75.07163832441498
aa(lp232
F-278.7378458150409
aF-73.70051748391853
aa(lp233
F-278.7202251849574
aF-73.00332454786496
aa(lp234
F-278.733515346926
aF-70.34992256557688
aa(lp235
F-278.7349281606124
aF-63.450797771764734
aa(lp236
F-278.7249299801217
aF-57.732050623933915
aa(lp237
F-278.7311578466915
aF-57.197560195961906
aa(lp238
F-278.72612767650304
aF-56.65735005963474
aa(lp239
F-278.72769411695435
aF-54.06655501227205
aa(lp240
F-278.7214448695769
aF-49.74891069288935
aa(lp241
F-278.73385053803923
aF-48.42680073649599
aa(lp242
F-278.7377421291998
aF-44.73919682304059
aa(lp243
F-278.7224003802242
aF-39.335196606795186
aa(lp244
F-278.72769481382306
aF-37.96920791661991
aa(lp245
F-278.7381263504793
aF-35.30389683376083
aa(lp246
F-278.73307329687174
aF-34.60123355031029
aa(lp247
F-278.7270738563449
aF-34.13609511704481
aa(lp248
F-278.73166033026484
aF-33.18559731159625
aa(lp249
F-278.72066775958126
aF-32.71602057463991
aa(lp250
F-278.73260075970717
aF-32.472765918777014
aa(lp251
F-278.7302052423917
aF-32.47276591877704
aa(lp252
F-278.72100911850794
aF-34.95300210365207
aa(lp253
F-278.7328741774202
aF-39.10357369648705
aa(lp254
F-278.7232015002079
aF-39.67425661775193
aa(lp255
F-278.7302239829619
aF-43.66321307819089
aa(lp256
F-278.7369195704123
aF-44.416244965619974
aa(lp257
F-275.9169726304188
aF-77.95442677689195
aa(lp258
F-275.9158089765079
aF-77.22321711066753
aa(lp259
F-275.90554464738096
aF-76.48787407367527
aa(lp260
F-275.9145722205418
aF-74.35164999560007
aa(lp261
F-275.90329522840284
aF-68.84269557547435
aa(lp262
F-275.9107207759262
aF-66.87343756258309
aa(lp263
F-275.9079558067005
aF-63.68093151465777
aa(lp264
F-275.90470693205793
aF-62.438815140450586
aa(lp265
F-275.914221570126
aF-61.23080869024555
aa(lp266
F-275.9084192342599
aF-56.57078886256535
aa(lp267
F-275.9188977070296
aF-56.02401571529776
aa(lp268
F-275.91827646431733
aF-55.47164021314516
aa(lp269
F-275.9065969493853
aF-54.913717593197454
aa(lp270
F-275.90235774815267
aF-51.74850905631709
aa(lp271
F-275.911777288078
aF-51.250638183395694
aa(lp272
F-275.91630713262504
aF-50.25744929440023
aa(lp273
F-275.9066892005066
aF-45.599639398963376
aa(lp274
F-275.907153921901
aF-44.73919682304054
aa(lp275
F-275.90288862383215
aF-44.31314131203801
aa(lp276
F-275.91638752145855
aF-40.79228370057201
aa(lp277
F-275.9173731849478
aF-37.734958824314404
aa(lp278
F-275.91388760568606
aF-36.24042969649107
aa(lp279
F-275.9193940631921
aF-33.07228829924999
aa(lp280
F-275.9069954354953
aF-32.472765918776794
aa(lp281
F-275.9103523271391
aF-32.11512803586561
aa(lp282
F-275.90393696135277
aF-31.037432991811688
aa(lp283
F-275.91767810757705
aF-30.922592313894288
aa(lp284
F-275.9105092353509
aF-30.676637447956338
aa(lp285
F-275.9056214917056
aF-30.56155150437833
aa(lp286
F-275.91032199675277
aF-30.199746657666505
aa(lp287
F-275.9089715882834
aF-31.642345736659422
aa(lp288
F-275.9102893054403
aF-35.192221457448866
aa(lp289
F-275.9135255468911
aF-36.00302975694845
aa(lp290
F-275.9147929811583
aF-38.42118730375755
aa(lp291
F-275.90964090849945
aF-40.11980020895169
aa(lp292
F-273.0871969282733
aF-78.09414129310348
aa(lp293
F-273.0808819286853
aF-77.33809480949344
aa(lp294
F-273.08967100092065
aF-76.60204595718967
aa(lp295
F-273.08587865895623
aF-75.85832787107859
aa(lp296
F-273.0841527265578
aF-74.39156086071745
aa(lp297
F-273.086987601568
aF-71.52406537662625
aa(lp298
F-273.08699419687525
aF-70.11906972143883
aa(lp299
F-273.0798722568856
aF-62.75090215471251
aa(lp300
F-273.085932705745
aF-60.2368140554798
aa(lp301
F-273.0807674189051
aF-51.547169768175515
aa(lp302
F-273.08575828652835
aF-49.44480384208206
aa(lp303
F-273.0879398411783
aF-48.426800736496
aa(lp304
F-273.0863250693587
aF-43.66321307819091
aa(lp305
F-273.0920418658282
aF-42.78499206428498
aa(lp306
F-273.0907108836767
aF-42.35032318463751
aa(lp307
F-273.0933117375065
aF-37.96920791661991
aa(lp308
F-273.08677754988696
aF-35.54251567654476
aa(lp309
F-273.0937962839368
aF-34.6012335503101
aa(lp310
F-273.08178788943576
aF-29.83718681886114
aa(lp311
F-273.0916531717427
aF-29.47388105193933
aa(lp312
F-273.087054747889
aF-28.496076008588943
aa(lp313
F-273.09461642571296
aF-27.646481827424484
aa(lp314
F-273.08189928535285
aF-27.278891863699773
aa(lp315
F-273.08756162982314
aF-27.027999310444436
aa(lp316
F-273.0980140717971
aF-26.910619929099248
aa(lp317
F-273.09274446070657
aF-26.910619929099248
aa(lp318
F-273.079419110598
aF-27.027999310444567
aa(lp319
F-273.0788235289971
aF-27.646481827424484
aa(lp320
F-273.0907481384948
aF-27.763425819239874
aa(lp321
F-273.08986482867317
aF-28.379579100605643
aa(lp322
F-273.0931531143401
aF-30.922592313894288
aa(lp323
F-273.09035951435146
aF-32.11512803586615
aa(lp324
F-273.0960931015394
aF-33.18559731159675
aa(lp325
F-273.0866110745031
aF-34.953002103652224
aa(lp326
F-273.0835396397182
aF-38.762865034925895
aa(lp327
F-270.25575596485317
aF-78.31018517042185
aa(lp328
F-270.2638746887335
aF-78.31830389430216
aa(lp329
F-270.2634563130323
aF-77.54876844546749
aa(lp330
F-270.26321039219283
aF-76.02476105728013
aa(lp331
F-270.2584181737698
aF-74.51563105457788
aa(lp332
F-270.256833571632
aF-70.11906972143885
aa(lp333
F-270.252985658011
aF-69.40013196500294
aa(lp334
F-270.2487491469553
aF-67.28082467151879
aa(lp335
F-270.2680919035888
aF-61.230808690245624
aa(lp336
F-270.2528966394871
aF-60.56714891534297
aa(lp337
F-270.267606330491
aF-59.300672063586745
aa(lp338
F-270.2508589635197
aF-53.78145471623305
aa(lp339
F-270.2611586495341
aF-53.207227684560465
aa(lp340
F-270.26071132015
aF-52.62767997445863
aa(lp341
F-270.2495604521761
aF-52.04286954021559
aa(lp342
F-270.26857791335465
aF-48.734980262624994
aa(lp343
F-270.2607785036457
aF-45.599639398963404
aa(lp344
F-270.2666550704607
aF-42.6801543728479
aa(lp345
F-270.2638644531236
aF-37.04495688043515
aa(lp346
F-270.26028244798226
aF-32.71602057463994
aa(lp347
F-270.24925001005266
aF-31.756687276425946
aa(lp348
F-270.25415201221887
aF-28.745068082668475
aa(lp349
F-270.2564516190754
aF-26.289870024241246
aa(lp350
F-270.2539332300488
aF-24.805798631760304
aa(lp351
F-270.2579786090748
aF-24.31439666193773
aa(lp352
F-270.2593975010119
aF-25.54911177294437
aa(lp353
F-270.24887457576676
aF-26.659267907497796
aa(lp354
F-270.2528353766023
aF-27.64648182742452
aa(lp355
F-270.2647067657866
aF-30.92259231389432
aa(lp356
F-270.2487370067171
aF-32.115128035866185
aa(lp357
F-270.2575824396687
aF-33.42772921837514
aa(lp358
F-270.2592323622199
aF-35.192221457448895
aa(lp359
F-270.249468839782
aF-36.69856240716231
aa(lp360
F-270.253535047232
aF-38.31215033536613
aa(lp361
F-270.2514143040976
aF-40.01232477435962
aa(lp362
F-267.4191564763684
aF-77.80965116608287
aa(lp363
F-267.4170905849617
aF-76.24543549293656
aa(lp364
F-267.4300756353769
aF-73.19162630046421
aa(lp365
F-267.4274677172535
aF-71.68468059806153
aa(lp366
F-267.4209498729633
aF-69.4584040194364
aa(lp367
F-267.4185885217119
aF-67.2808246715188
aa(lp368
F-267.42649641676735
aF-59.04290363541813
aa(lp369
F-267.4177983480779
aF-57.73205062393377
aa(lp370
F-267.420393110887
aF-55.19336881884424
aa(lp371
F-267.42048991584716
aF-52.136359526999485
aa(lp372
F-267.4266355739433
aF-51.54716976817543
aa(lp373
F-267.4222295826171
aF-50.952825335330424
aa(lp374
F-267.41473012045526
aF-46.96809386928303
aa(lp375
F-267.42629457460384
aF-40.79228370057182
aa(lp376
F-267.42157165622183
aF-34.60123355030994
aa(lp377
F-267.42627452453434
aF-33.42772921837514
aa(lp378
F-267.41602037048995
aF-30.199746657666537
aa(lp379
F-267.41775480470034
aF-26.659267907497203
aa(lp380
F-267.4288988251541
aF-25.91981489560371
aa(lp381
F-267.42777837818994
aF-22.561274408648863
aa(lp382
F-267.41903003466524
aF-22.185158247270643
aa(lp383
F-267.41189294763626
aF-21.68839129930711
aa(lp384
F-267.41932958988485
aF-21.311003612311204
aa(lp385
F-267.41214453505887
aF-21.311003612311204
aa(lp386
F-267.42681886274175
aF-21.431271457862444
aa(lp387
F-267.4170070453332
aF-22.441530626222953
aa(lp388
F-267.41832608851394
aF-23.31180525056653
aa(lp389
F-267.4121521809385
aF-24.80579863176073
aa(lp390
F-267.4285239830616
aF-28.379579100605675
aa(lp391
F-267.42527803743474
aF-31.282860060212982
aa(lp392
F-267.42594585599045
aF-32.35893495121946
aa(lp393
F-267.4127970330154
aF-32.71602057463994
aa(lp394
F-267.4164037975921
aF-35.89192133459994
aa(lp395
F-267.4244151314101
aF-37.62531626965339
aa(lp396
F-264.58521015828876
aF-78.15672867931352
aa(lp397
F-264.5688732968475
aF-77.33809480949347
aa(lp398
F-264.5781139472503
aF-75.756803662635
aa(lp399
F-264.57553588116303
aF-69.58248024599327
aa(lp400
F-264.5854826946664
aF-68.84269557547444
aa(lp401
F-264.5726380576202
aF-67.34508726974255
aa(lp402
F-264.58637022471186
aF-65.89377835887144
aa(lp403
F-264.5868147901575
aF-48.11741054287085
aa(lp404
F-264.58315718266016
aF-41.46068799781635
aa(lp405
F-264.5704485197608
aF-38.42118730375652
aa(lp406
F-264.57702538233775
aF-31.756687276425815
aa(lp407
F-264.5793407396173
aF-30.199746657666537
aa(lp408
F-264.57633950478237
aF-28.379579100605675
aa(lp409
F-264.57226118378634
aF-27.027999310444045
aa(lp410
F-264.5817217386895
aF-23.5670083904183
aa(lp411
F-264.57671969462444
aF-23.311805250566
aa(lp412
F-264.5874411764202
aF-20.296446561409933
aa(lp413
F-264.5818833880712
aF-19.03582036940261
aa(lp414
F-264.5792947783725
aF-18.776287356719465
aa(lp415
F-264.5824443998243
aF-18.39505025712644
aa(lp416
F-264.5771747887338
aF-18.39505025712654
aa(lp417
F-264.5766453093589
aF-22.185158247271115
aa(lp418
F-264.56843440481214
aF-33.89511017233964
aa(lp419
F-261.7379421535437
aF-76.92801662440684
aa(lp420
F-261.72513296235195
aF-75.29665148337669
aa(lp421
F-261.728912219941
aF-73.70051748391862
aa(lp422
F-261.72606871812087
aF-72.9047584335056
aa(lp423
F-261.72044707091374
aF-67.48199773600102
aa(lp424
F-261.72615274012475
aF-66.73309710495491
aa(lp425
F-261.734599045645
aF-65.24697400191401
aa(lp426
F-261.7329548195861
aF-57.380324716963045
aa(lp427
F-261.7286172643598
aF-52.042869540215605
aa(lp428
F-261.7252140500779
aF-44.09218270438648
aa(lp429
F-261.71950348935303
aF-38.07854904490671
aa(lp430
F-261.7225958146576
aF-34.13609511704486
aa(lp431
F-261.72950860323886
aF-30.561551504378375
aa(lp432
F-261.72028448008894
aF-25.177769923820208
aa(lp433
F-261.73357534431483
aF-22.93682653934166
aa(lp434
F-261.73210255540914
aF-16.865598585868028
aa(lp435
F-261.73615745174465
aF-16.098304651482582
aa(lp436
F-261.71869638591204
aF-15.714049200970697
aa(lp437
F-261.73627861042854
aF-15.591569080791944
aa(lp438
F-261.7222752583275
aF-16.098304651482856
aa(lp439
F-261.7189825921512
aF-16.743506173040924
aa(lp440
F-261.73772681239734
aF-17.63120597444995
aa(lp441
F-261.7189832480348
aF-21.808487458092227
aa(lp442
F-261.7212387123788
aF-26.289870024241903
aa(lp443
F-261.72627881226896
aF-26.659267907498023
aa(lp444
F-261.7247757688204
aF-27.02799931044493
aa(lp445
F-261.7242291206588
aF-30.19974665766657
aa(lp446
F-261.7314857568854
aF-32.82959198423211
aa(lp447
F-258.87437170545775
aF-78.19133111943226
aa(lp448
F-258.8767759711544
aF-77.35924115501511
aa(lp449
F-258.86325157660553
aF-76.51576045926892
aa(lp450
F-258.8703591922221
aF-74.87665214073033
aa(lp451
F-258.8644925189977
aF-71.63371403164355
aa(lp452
F-258.87418074014295
aF-65.39519365660412
aa(lp453
F-258.88060712015516
aF-51.1559143497661
aa(lp454
F-258.87281522283416
aF-47.905880955929916
aa(lp455
F-258.880163616503
aF-46.653139324460234
aa(lp456
F-258.86885780992577
aF-46.01973915966041
aa(lp457
F-258.8678235549287
aF-38.4211873037564
aa(lp458
F-258.8652817906443
aF-32.71602057463998
aa(lp459
F-258.8697819700173
aF-31.75668727642566
aa(lp460
F-258.8693607578258
aF-31.282860060213014
aa(lp461
F-258.87049023850227
aF-28.13010253946298
aa(lp462
F-258.8686391754941
aF-27.27889186369984
aa(lp463
F-258.8738765199049
aF-17.126660819382153
aa(lp464
F-258.8801661725934
aF-14.436123951276226
aa(lp465
F-258.8685156922154
aF-12.626671918652189
aa(lp466
F-258.86516205181715
aF-12.626671918652224
aa(lp467
F-258.87915493680447
aF-13.013800399538393
aa(lp468
F-258.88017640499766
aF-13.66400663834097
aa(lp469
F-258.87364470730483
aF-16.482157645217107
aa(lp470
F-258.8669075255224
aF-17.891676047037105
aa(lp471
F-258.8794582700079
aF-19.5373438181156
aa(lp472
F-258.8700997021459
aF-21.053519676963
aa(lp473
F-258.8652179333557
aF-27.763425819240233
aa(lp474
F-256.0123961069527
aF-77.85985659753598
aa(lp475
F-256.00522817473166
aF-77.00470627350714
aa(lp476
F-256.0148343442545
aF-75.33179375822901
aa(lp477
F-256.00740022923935
aF-71.19747470010246
aa(lp478
F-256.01096172496864
aF-69.58248024599334
aa(lp479
F-256.0042789087646
aF-65.61131880056595
aa(lp480
F-256.0098731446056
aF-64.06430235017417
aa(lp481
F-256.0112099256114
aF-58.78365913773367
aa(lp482
F-256.00332353263843
aF-54.44040130769662
aa(lp483
F-255.99875202410058
aF-52.33592895508616
aa(lp484
F-256.00537708262607
aF-46.96809386928286
aa(lp485
F-256.01586923488526
aF-44.4162449656187
aa(lp486
F-255.9992660147184
aF-40.11980020895044
aa(lp487
F-255.99988939566583
aF-32.35893495121949
aa(lp488
F-256.0005334871314
aF-27.027999310443814
aa(lp489
F-256.01276392468935
aF-23.192425818777423
aa(lp490
F-256.00195003372164
aF-17.509387300094904
aa(lp491
F-256.0107822061408
aF-10.562647607852293
aa(lp492
F-256.0168028206576
aF-9.908476843083887
aa(lp493
F-256.0021697489953
aF-9.784473076068277
aa(lp494
F-256.0096177658317
aF-9.908476843084026
aa(lp495
F-256.00818665903915
aF-10.297611319952885
aa(lp496
F-256.01381067632997
aF-10.686488357075046
aa(lp497
F-256.00723478648194
aF-12.239227771626036
aa(lp498
F-256.00695708527024
aF-13.40060353609248
aa(lp499
F-256.0088004414257
aF-16.098304651483094
aa(lp500
F-255.99841698928168
aF-17.24861788743381
aa(lp501
F-256.0000940561059
aF-20.93308315133497
aa(lp502
F-256.0077800706867
aF-21.311003612311236
aa(lp503
F-256.0090659040994
aF-21.688391299307145
aa(lp504
F-256.0039515241983
aF-22.06523677765017
aa(lp505
F-256.0013896432514
aF-24.060004931385517
aa(lp506
F-256.01263113577073
aF-26.659267907498123
aa(lp507
F-253.1309859071312
aF-78.41470034490523
aa(lp508
F-253.14600969714675
aF-78.42972413492079
aa(lp509
F-253.13598423161687
aF-78.41969866939093
aa(lp510
F-253.13072330846114
aF-77.54876844546746
aa(lp511
F-253.12965103198584
aF-76.68641640795107
aa(lp512
F-253.14579215203727
aF-74.99325264262055
aa(lp513
F-253.13836616702298
aF-74.13784426579849
aa(lp514
F-253.13173101797776
aF-73.28770172867006
aa(lp515
F-253.14383685477193
aF-72.4607962687464
aa(lp516
F-253.14125803929716
aF-68.33133251016024
aa(lp517
F-253.14386226291097
aF-62.75090215471235
aa(lp518
F-253.13190858288934
aF-61.960253490864055
aa(lp519
F-253.1449751033655
aF-56.657350059634474
aa(lp520
F-253.13299317353705
aF-54.44040130769659
aa(lp521
F-253.14811425985147
aF-53.010350409658265
aa(lp522
F-253.1294659177296
aF-44.09218270438637
aa(lp523
F-253.14014840935943
aF-39.67425661775199
aa(lp524
F-253.13561247055628
aF-25.549111772943483
aa(lp525
F-253.1360517262338
aF-19.917144153545355
aa(lp526
F-253.1374571031211
aF-18.013353282234515
aa(lp527
F-253.13583095413426
aF-15.591569080791944
aa(lp528
F-253.14520589249105
aF-14.050240922454236
aa(lp529
F-253.13046354063576
aF-12.115750192364514
aa(lp530
F-253.1447170838946
aF-10.297611319952471
aa(lp531
F-253.13686677461322
aF-9.519094654809878
aa(lp532
F-253.13715985169182
aF-9.005320105130355
aa(lp533
F-253.12918611014828
aF-13.787071658256007
aa(lp534
F-253.14598092523062
aF-15.329400900047707
aa(lp535
F-253.14064471116848
aF-15.975950709322513
aa(lp536
F-253.13188545876005
aF-24.687183677148415
aa(lp537
F-250.26112011252945
aF-78.16796272865027
aa(lp538
F-250.2640603007268
aF-77.2921952832695
aa(lp539
F-250.26436164498378
aF-75.54807608275785
aa(lp540
F-250.2590482822667
aF-72.10650877284995
aa(lp541
F-250.26552083201892
aF-69.58248024599337
aa(lp542
F-250.26533029484236
aF-63.836848815867015
aa(lp543
F-250.26246505021075
aF-56.024015715297956
aa(lp544
F-250.26907975996426
aF-53.78145471623316
aa(lp545
F-250.2710640829863
aF-45.91843398036322
aa(lp546
F-250.25375922161595
aF-38.6541349523494
aa(lp547
F-250.26022268558904
aF-30.922592313894366
aa(lp548
F-250.26018003610824
aF-11.463431231135045
aa(lp549
F-250.27023454918879
aF-9.005320105130355
aa(lp550
F-250.2602524875438
aF-7.834926538438711
aa(lp551
F-250.2578060912571
aF-4.314224144119973
aa(lp552
F-250.2648920968503
aF-4.047195423923298
aa(lp553
F-250.26058041721012
aF-4.047195423923368
aa(lp554
F-250.26307744547867
aF-4.8307357439060885
aa(lp555
F-250.27174184766375
aF-6.005115996039803
aa(lp556
F-250.26820994595363
aF-7.053668541055558
aa(lp557
F-250.25954548450045
aF-7.444390594435701
aa(lp558
F-250.25301476588822
aF-14.821646077751314
aa(lp559
F-250.26717066452377
aF-17.509387300094904
aa(lp560
F-250.2588471642227
aF-19.157055050107182
aa(lp561
F-250.25318923970414
aF-21.808487458092493
aa(lp562
F-247.38573574802564
aF-77.95442677689199
aa(lp563
F-247.37872229563342
aF-77.05586506362184
aa(lp564
F-247.38980886725597
aF-75.29665148337675
aa(lp565
F-247.3750632790042
aF-71.79310841601051
aa(lp566
F-247.38975279126677
aF-67.54572350195909
aa(lp567
F-247.37559409735294
aF-65.02810298001624
aa(lp568
F-247.37086677128212
aF-63.377159719790306
aa(lp569
F-247.38416944105518
aF-44.41624496561856
aa(lp570
F-247.3876515157601
aF-42.35032318463758
aa(lp571
F-247.37874599932138
aF-38.995153217972074
aa(lp572
F-247.373926982608
aF-37.04495688043475
aa(lp573
F-247.38272036723436
aF-19.79621966962153
aa(lp574
F-247.37734153989243
aF-17.50938730009494
aa(lp575
F-247.37930232720765
aF-14.55896422129568
aa(lp576
F-247.38145529874924
aF-12.62667191865164
aa(lp577
F-247.38996122561275
aF-10.17368751278929
aa(lp578
F-247.38540609449615
aF-9.51909465480967
aa(lp579
F-247.38956735631098
aF-5.880483426760524
aa(lp580
F-247.37250278374165
aF-1.5694953620885652
aa(lp581
F-247.39054084877915
aF-1.1771558554924217
aa(lp582
F-247.37152034863783
aF-6.396288870152591
aa(lp583
F-247.38083799432064
aF-6.662770146329302
aa(lp584
F-244.48883972605586
aF-77.75750049740324
aa(lp585
F-244.4849313011304
aF-76.84940377889754
aa(lp586
F-244.49348056163223
aF-75.95795562527621
aa(lp587
F-244.49784915899983
aF-73.2877017286701
aa(lp588
F-244.49593039408344
aF-71.5240653766261
aa(lp589
F-244.48613106542885
aF-70.6398827020099
aa(lp590
F-244.4845745271638
aF-68.90261966417007
aa(lp591
F-244.49589862931316
aF-50.25744929440033
aa(lp592
F-244.4914643869249
aF-31.642345736659518
aa(lp593
F-244.48278487783026
aF-28.01338063054353
aa(lp594
F-244.4965609362013
aF-26.289870024240624
aa(lp595
F-244.49218277010112
aF-15.975950709322545
aa(lp596
F-244.49286627645665
aF-9.00532010513039
aa(lp597
F-244.50179812240148
aF-7.95928356613274
aa(lp598
F-244.4976787296659
aF-6.005115996039108
aa(lp599
F-244.48481243717856
aF-5.097608663749456
aa(lp600
F-244.49345492986686
aF-2.7462392293440665
aa(lp601
F-244.48396930067088
aF-0.5173877058367247
aa(lp602
F-244.49388599574945
aF1.0521770229191436
aa(lp603
F-244.49905497903728
aF1.4445269680998256
aa(lp604
F-244.4900669572818
aF1.569495362096928
aa(lp605
F-244.48899816563272
aF1.4445269680996513
aa(lp606
F-244.4989192029452
aF-0.3923983649978532
aa(lp607
F-244.49937774438519
aF-0.9097710761162533
aa(lp608
F-244.48962112851427
aF-3.2632503877713237
aa(lp609
F-244.5020817022623
aF-4.047195423923681
aa(lp610
F-244.49991749317263
aF-4.314224144120008
aa(lp611
F-244.49197717362858
aF-8.349559196406897
aa(lp612
F-244.4943621175815
aF-10.17368751278929
aa(lp613
F-244.50136235440044
aF-10.562647607852329
aa(lp614
F-244.5022500698949
aF-10.951343637275306
aa(lp615
F-244.49702524187214
aF-11.339765883677735
aa(lp616
F-244.48568800095256
aF-11.727904636523684
aa(lp617
F-244.50239565020826
aF-13.400603536092754
aa(lp618
F-244.49346285344527
aF-15.59156908079198
aa(lp619
F-241.6019244742874
aF-77.60806883604971
aa(lp620
F-241.59689693391974
aF-76.68641640795104
aa(lp621
F-241.60204869783087
aF-73.96652117559795
aa(lp622
F-241.59091945802513
aF-67.74467109460615
aa(lp623
F-241.58972312480935
aF-66.87343756258335
aa(lp624
F-241.5902575936595
aF-64.29015428025942
aa(lp625
F-241.60333728118124
aF-63.45079777176443
aa(lp626
F-241.59774873823338
aF-49.65217794380191
aa(lp627
F-241.59639762640984
aF-48.117410542870914
aa(lp628
F-241.5984518480093
aF-41.460687997816024
aa(lp629
F-241.60314830111332
aF-39.33519660679528
aa(lp630
F-241.59418673293393
aF-28.745068082668542
aa(lp631
F-241.59599433107016
aF-28.130102539462687
aa(lp632
F-241.59403280897996
aF-26.910619929099344
aa(lp633
F-241.59215876002096
aF-22.81726343769901
aa(lp634
F-241.60612143498284
aF-19.537343818114415
aa(lp635
F-241.59920609533918
aF-12.626671918651535
aa(lp636
F-241.59585887632116
aF-11.727904636523684
aa(lp637
F-241.58833038631929
aF-4.705975228502537
aa(lp638
F-241.5914572972652
aF-4.047195423922846
aa(lp639
F-241.60436455397303
aF1.4445269680999997
aa(lp640
F-241.59738871653678
aF1.8368408001817496
aa(lp641
F-241.59343754858236
aF3.138362946971161
aa(lp642
F-241.58954693397988
aF3.4055388597029395
aa(lp643
F-241.60619136650763
aF4.5812027761902225
aa(lp644
F-241.60092175541723
aF4.581202776190119
aa(lp645
F-241.6016210462792
aF4.189416273462712
aa(lp646
F-241.6067001420182
aF0.7847869200695652
aa(lp647
F-241.5964707571886
aF-0.12499140089254303
aa(lp648
F-241.60495556493333
aF-1.6944597749907357
aa(lp649
F-241.59109611231548
aF-1.9617956313824012
aa(lp650
F-241.6037150734088
aF-4.4390210715628715
aa(lp651
F-241.592590999899
aF-12.239227771626416
aa(lp652
F-241.5978698286065
aF-14.558964221296947
aa(lp653
F-238.70128874344806
aF-78.41470034490524
aa(lp654
F-238.70628706793374
aF-78.41969866939093
aa(lp655
F-238.68992730671638
aF-78.40333890817355
aa(lp656
F-238.70700346186106
aF-77.48752933971302
aa(lp657
F-238.69317730419706
aF-75.62004639153999
aa(lp658
F-238.7061818631737
aF-69.27487289203998
aa(lp659
F-238.69214516633096
aF-67.48199773600119
aa(lp660
F-238.68823878569384
aF-41.460687997816
aa(lp661
F-238.70491664020022
aF-40.0123247743597
aa(lp662
F-238.70294538958825
aF-31.642345736659536
aa(lp663
F-238.69866777111096
aF-30.31507498976163
aa(lp664
F-238.69672924346708
aF-22.817263437699026
aa(lp665
F-238.69203947586703
aF-19.917144153545085
aa(lp666
F-238.69671052661482
aF-16.098304651481968
aa(lp667
F-238.68991957356795
aF-10.173687512789307
aa(lp668
F-238.69967126517201
aF-7.959283566132671
aa(lp669
F-238.68765332550532
aF-6.271705182696405
aa(lp670
F-238.70082153267253
aF-5.880483426760558
aa(lp671
F-238.70452053466187
aF-4.705975228502572
aa(lp672
F-238.6938182260709
aF-4.314224144120043
aa(lp673
F-238.69980206647008
aF-0.5173877058365853
aa(lp674
F-238.70256660503065
aF0.3923983650061828
aa(lp675
F-238.6976156275158
aF5.097608663757769
aa(lp676
F-238.68820627993728
aF5.7558359413799804
aa(lp677
F-238.69565023251928
aF6.538221554875334
aa(lp678
F-238.7065463459933
aF7.444390594444028
aa(lp679
F-238.70031893519257
aF7.444390594444028
aa(lp680
F-238.6947965390799
aF6.929174067764657
aa(lp681
F-238.70377123640557
aF6.2717051827046735
aa(lp682
F-238.69883605469613
aF6.147105586787045
aa(lp683
F-238.68802864348504
aF5.880483426768831
aa(lp684
F-238.69914136569136
aF4.7059752285108525
aa(lp685
F-238.70366172059778
aF4.3142241441283256
aa(lp686
F-238.69708365187756
aF3.0134675455642554
aa(lp687
F-238.6946190759083
aF-3.263250387771428
aa(lp688
F-238.70262758540065
aF-7.178145122408509
aa(lp689
F-238.6999807469861
aF-12.626671918652843
aa(lp690
F-235.79898811985012
aF-78.33500604160729
aa(lp691
F-235.78228597254494
aF-78.31830389430213
aa(lp692
F-235.80072343847993
aF-75.5141350399371
aa(lp693
F-235.7847780080984
aF-72.71164709544132
aa(lp694
F-235.78696405424824
aF-71.79310841601057
aa(lp695
F-235.78707108487134
aF-65.4642138528597
aa(lp696
F-235.79563678139436
aF-64.58548935106461
aa(lp697
F-235.79984946012482
aF-57.64730995070801
aa(lp698
F-235.80056871521222
aF-52.627679974458836
aa(lp699
F-235.7894041538981
aF-46.96809386928262
aa(lp700
F-235.78533933574136
aF-40.79228370057135
aa(lp701
F-235.79167281848046
aF-35.65390896828711
aa(lp702
F-235.79751645966715
aF-32.8295919842305
aa(lp703
F-235.79403268246134
aF-23.5670083904184
aa(lp704
F-235.7859451896066
aF-22.93682653934119
aa(lp705
F-235.79660995931312
aF-19.917144153545085
aa(lp706
F-235.7961644605887
aF-5.489114659045318
aa(lp707
F-235.7832812594084
aF3.0134675455648474
aa(lp708
F-235.79026626799134
aF4.7059752285108525
aa(lp709
F-235.78561214811623
aF4.972874749086968
aa(lp710
F-235.79343722287823
aF7.053668541063889
aa(lp711
F-235.80021047613067
aF7.444390594444028
aa(lp712
F-235.78284558135633
aF7.834926538447034
aa(lp713
F-235.79984045709352
aF8.491154157916807
aa(lp714
F-235.78769010798243
aF9.660444490306103
aa(lp715
F-235.79971006715652
aF10.43878006600841
aa(lp716
F-235.79647470060985
aF6.147105586786908
aa(lp717
F-235.78984069954348
aF4.147402421494917e-12
aa(lp718
F-232.8699834441851
aF-78.26403641791362
aa(lp719
F-232.87031791713412
aF-75.40633583889124
aa(lp720
F-232.88513183154532
aF-74.47631292702486
aa(lp721
F-232.88250152414673
aF-65.2469740019138
aa(lp722
F-232.88210674289812
aF-63.45079777176434
aa(lp723
F-232.87489640806035
aF-54.72235689864352
aa(lp724
F-232.87293608833517
aF-53.872414187110564
aa(lp725
F-232.88145975616496
aF-35.65390896828708
aa(lp726
F-232.88869968309785
aF-29.22587661408329
aa(lp727
F-232.87817354292181
aF-23.19242581877749
aa(lp728
F-232.8821545138981
aF-19.416262722290536
aa(lp729
F-232.87336353440756
aF-11.339765883677769
aa(lp730
F-232.88640571436886
aF-8.225266609686399
aa(lp731
F-232.8849527948754
aF-4.830735743905428
aa(lp732
F-232.87520400927554
aF10.17368751279755
aa(lp733
F-232.871581908858
aF10.562647607860582
aa(lp734
F-232.87426208857352
aF11.992241880967601
aa(lp735
F-232.87933560131006
aF12.115750192372778
aa(lp736
F-232.87064002492482
aF12.767212775337262
aa(lp737
F-232.87350618565569
aF13.277430754781655
aa(lp738
F-232.8742783192688
aF8.100953159216425
aa(lp739
F-232.88314130954427
aF7.834926538447034
aa(lp740
F-232.869315675079
aF5.880483426768831
aa(lp741
F-232.87614763669296
aF1.444526968099233
aa(lp742
F-232.88653772362957
aF1.0521770229184817
aa(lp743
F-232.88277476532156
aF-0.12499140089275214
aa(lp744
F-232.8698761440395
aF-0.5173877058375264
aa(lp745
F-232.88377143394388
aF-3.5304082056713573
aa(lp746
F-232.8837228531746
aF-4.43902107156301
aa(lp747
F-229.96779713432156
aF-78.25467084586337
aa(lp748
F-229.95165818240798
aF-77.27043325634429
aa(lp749
F-229.95385615912625
aF-76.30834961812802
aa(lp750
F-229.95408323163886
aF-74.39156086071726
aa(lp751
F-229.95939988727463
aF-64.13641722699892
aa(lp752
F-229.95772259893448
aF-56.11147423551543
aa(lp753
F-229.95334723655463
aF-50.95282533532999
aa(lp754
F-229.95889793521775
aF-40.34939262493199
aa(lp755
F-229.96358620963778
aF-32.00104035611064
aa(lp756
F-229.96269213253473
aF-29.10983843952644
aa(lp757
F-229.95269309325505
aF-26.28987002424049
aa(lp758
F-229.95833842167974
aF-23.5670083904184
aa(lp759
F-229.97036636467837
aF-20.933083151335033
aa(lp760
F-229.9657309059819
aF-9.519094654809532
aa(lp761
F-229.95560077896982
aF0.7847869200695304
aa(lp762
F-229.9646179186077
aF5.880483426768831
aa(lp763
F-229.95318109005183
aF6.929174067764969
aa(lp764
F-229.95714775093884
aF8.225266609694648
aa(lp765
F-229.95658282780536
aF12.890522936136767
aa(lp766
F-229.96717031579306
aF13.277430754781655
aa(lp767
F-229.95376548145416
aF13.664006638349207
aa(lp768
F-229.95449393786845
aF15.591569080800141
aa(lp769
F-229.96763123780642
aF15.9759507093307
aa(lp770
F-229.95757442440166
aF15.9759507093307
aa(lp771
F-229.963292289666
aF15.469049411906603
aa(lp772
F-229.95337878823588
aF14.313247063388035
aa(lp773
F-229.9513384064295
aF11.992241880967223
aa(lp774
F-229.9688559906275
aF9.660444490305585
aa(lp775
F-229.95353043078097
aF8.491154157916219
aa(lp776
F-229.95087015187067
aF6.538221554874673
aa(lp777
F-229.96940224101314
aF5.097608663757769
aa(lp778
F-229.95498710089524
aF1.5694953620968932
aa(lp779
F-229.95487608924284
aF-5.880483426760558
aa(lp780
F-229.9569162861941
aF-6.396288870152938
aa(lp781
F-227.04084158312827
aF-78.25467084586337
aa(lp782
F-227.03600810606082
aF-77.27043325634429
aa(lp783
F-227.0449200466871
aF-75.33179375822893
aa(lp784
F-227.03287492166396
aF-74.35164999560027
aa(lp785
F-227.03505117907855
aF-71.47252880815694
aa(lp786
F-227.03817631401097
aF-70.52296765339635
aa(lp787
F-227.04646232423642
aF-69.5824802459935
aa(lp788
F-227.03117927263068
aF-67.68148375405471
aa(lp789
F-227.0452777871233
aF-65.82580366497521
aa(lp790
F-227.0465761573588
aF-55.836428727028945
aa(lp791
F-227.03842002972988
aF-54.06655501227241
aa(lp792
F-227.0348097253816
aF-51.45285486238774
aa(lp793
F-227.0279294068207
aF-24.06000493138402
aa(lp794
F-227.02790424940406
aF-21.31100361231132
aa(lp795
F-227.03849490334653
aF-18.65490212199712
aa(lp796
F-227.03205185513917
aF-10.56264760785238
aa(lp797
F-227.02804537372168
aF-9.395014028030092
aa(lp798
F-227.03742694669478
aF-4.439021071561897
aa(lp799
F-227.04483438920266
aF-3.922365204358627
aa(lp800
F-227.03287304402025
aF4.972874749087003
aa(lp801
F-227.04423374298761
aF7.710549637110026
aa(lp802
F-227.04258620002594
aF10.17368751279755
aa(lp803
F-227.03875017624674
aF10.827561263439772
aa(lp804
F-227.02904454364293
aF18.9145374034942
aa(lp805
F-227.0330999999749
aF17.387524212401505
aa(lp806
F-227.0451836542766
aF16.359932939925606
aa(lp807
F-227.0419351553954
aF15.9759507093307
aa(lp808
F-227.03535540501156
aF14.436123951284449
aa(lp809
F-227.03146905438894
aF13.154224294663692
aa(lp810
F-227.04538014521682
aF9.784473076076578
aa(lp811
F-227.0389056073054
aF4.147402421494917e-12
aa(lp812
F-224.1091454740285
aF-78.28340654868586
aa(lp813
F-224.1084234341164
aF-77.29219528326946
aa(lp814
F-224.11139659642217
aF-76.30834961812805
aa(lp815
F-224.11354516673492
aF-70.46803862573671
aa(lp816
F-224.1085828581614
aF-61.96025349086428
aa(lp817
F-224.11166394561616
aF-57.380324716963386
aa(lp818
F-224.1043119482451
aF-53.7814547162334
aa(lp819
F-224.10369765781957
aF-50.25744929440052
aa(lp820
F-224.1070520124741
aF-48.52509714948026
aa(lp821
F-224.11350726044193
aF-40.119800208950046
aa(lp822
F-224.0985076977648
aF-34.48900238747899
aa(lp823
F-224.1121404690229
aF-31.397452601457847
aa(lp824
F-224.1028940746965
aF-29.109838439526474
aa(lp825
F-224.10485425085454
aF-24.68718367714851
aa(lp826
F-224.11195089421835
aF-18.39505025712559
aa(lp827
F-224.09764198231943
aF-15.71404920096998
aa(lp828
F-224.1160417604282
aF-13.787071658254842
aa(lp829
F-224.10291712434838
aF-12.5032928550817
aa(lp830
F-224.10473241545452
aF-8.225266609686434
aa(lp831
F-224.1075995060295
aF-7.053668541055662
aa(lp832
F-224.1019048477813
aF-3.655268596608883
aa(lp833
F-224.11063597783323
aF1.0521770229194225
aa(lp834
F-224.0996271480269
aF3.013467545564917
aa(lp835
F-224.11211829841753
aF5.75583594138005
aa(lp836
F-224.11428855779678
aF7.053668541063854
aa(lp837
F-224.1151423824795
aF12.76721277533733
aa(lp838
F-224.09786361013232
aF14.69888519484095
aa(lp839
F-224.10016397754157
aF15.853556243454749
aa(lp840
F-224.10577927252908
aF18.53346956828638
aa(lp841
F-224.11531290251045
aF20.175681712499884
aa(lp842
F-224.11461612233796
aF21.688391299315146
aa(lp843
F-224.1143029808044
aF21.94525933857431
aa(lp844
F-224.1168877539492
aF22.065236777658164
aa(lp845
F-224.10616046157912
aF21.94525933857431
aa(lp846
F-224.10264602042673
aF21.688391299315146
aa(lp847
F-224.10998421795017
aF19.295132376251996
aa(lp848
F-224.10334846123203
aF18.914537403494066
aa(lp849
F-224.09970992135266
aF17.12666081939028
aa(lp850
F-224.1092096303898
aF12.379882076355479
aa(lp851
F-224.11566726748734
aF10.951343637283522
aa(lp852
F-224.10645817341876
aF7.834926538446999
aa(lp853
F-224.1076571954402
aF3.405538859702139
aa(lp854
F-224.1115131969425
aF1.9617956313906932
aa(lp855
F-221.16750297896726
aF-78.33500604160729
aa(lp856
F-221.17499796651686
aF-78.34250102915688
aa(lp857
F-221.17194322951332
aF-77.33809480949355
aa(lp858
F-221.16905706226405
aF-76.33745299830366
aa(lp859
F-221.16787814644726
aF-74.3516499956003
aa(lp860
F-221.17153030789436
aF-69.45840401943613
aa(lp861
F-221.17384117148782
aF-65.61131880056618
aa(lp862
F-221.17174053634906
aF-54.440401307696284
aa(lp863
F-221.16320491081515
aF-52.627679974458985
aa(lp864
F-221.1798180274513
aF-51.74850905631746
aa(lp865
F-221.18055217396238
aF-50.85769494195064
aa(lp866
F-221.16558549110604
aF-49.955438060776174
aa(lp867
F-221.18159426195746
aF-45.599639398963575
aa(lp868
F-221.1640394448144
aF-35.542515676544895
aa(lp869
F-221.18024523583512
aF-32.35893495121958
aa(lp870
F-221.17144740851484
aF-29.225876614083226
aa(lp871
F-221.16512262637673
aF-26.1720669912067
aa(lp872
F-221.17368398761704
aF-25.430896868424856
aa(lp873
F-221.17480872087975
aF-24.68718367714851
aa(lp874
F-221.16855257595498
aF-23.94100178807704
aa(lp875
F-221.17221036910962
aF-17.509387300095007
aa(lp876
F-221.1646138156085
aF-5.880483426760593
aa(lp877
F-221.17537947578944
aF-4.705975228502607
aa(lp878
F-221.163439551363
aF-3.530408205671392
aa(lp879
F-221.17638646691748
aF4.972874749087038
aa(lp880
F-221.1781865296674
aF10.827561263439842
aa(lp881
F-221.17429910793797
aF14.313247063388342
aa(lp882
F-221.17775405183806
aF17.00466030879546
aa(lp883
F-221.166710275683
aF20.812593528010662
aa(lp884
F-221.17936429291657
aF22.065236777658164
aa(lp885
F-221.17624149357243
aF22.44153062623097
aa(lp886
F-221.1647921051273
aF23.56700839042628
aa(lp887
F-221.17314787633143
aF23.821937917351427
aa(lp888
F-221.176540965355
aF23.941001788084872
aa(lp889
F-221.16745243745544
aF24.940873540118282
aa(lp890
F-221.1791366191041
aF25.059353514060817
aa(lp891
F-221.17817086010973
aF24.687183677156323
aa(lp892
F-221.1715050536836
aF20.054865687059348
aa(lp893
F-221.17901180885565
aF19.796219669629558
aa(lp894
F-221.1664503101286
aF13.154224294663555
aa(lp895
F-221.1715019712113
aF12.767212775336711
aa(lp896
F-221.17102435626413
aF12.37988207635541
aa(lp897
F-221.16501747722734
aF11.992241880967018
aa(lp898
F-221.16273970250106
aF3.9223652043668595
aa(lp899
F-221.17701720107524
aF3.405538859702104
aa(lp900
F-218.22181858504175
aF-78.41470034490526
aa(lp901
F-218.2368423750573
aF-78.4297241349208
aa(lp902
F-218.2268169095274
aF-78.41969866939091
aa(lp903
F-218.2229295943932
aF-77.4038229143006
aa(lp904
F-218.2266414819636
aF-76.39906683224758
aa(lp905
F-218.2388327762513
aF-75.40633583889128
aa(lp906
F-218.22540928073704
aF-74.39156086071722
aa(lp907
F-218.23843746424356
aF-72.41269853890084
aa(lp908
F-218.22803310414878
aF-68.46245825443219
aa(lp909
F-218.22323256659854
aF-67.4819977360013
aa(lp910
F-218.23888318214333
aF-66.52575689368507
aa(lp911
F-218.23099589206277
aF-64.58548935106447
aa(lp912
F-218.2382798667617
aF-62.675757495840024
aa(lp913
F-218.23385482129757
aF-61.718646160682866
aa(lp914
F-218.2287381879413
aF-47.90588095592948
aa(lp915
F-218.23657416900434
aF-41.79333954496934
aa(lp916
F-218.23941245193691
aF-35.89192133460006
aa(lp917
F-218.2376547475124
aF-33.42772921837526
aa(lp918
F-218.22814139368924
aF-30.199746657666665
aa(lp919
F-218.23544081867203
aF-26.28987002424042
aa(lp920
F-218.22993568395495
aF-19.537343818114312
aa(lp921
F-218.22178729031012
aF-14.558964221295508
aa(lp922
F-218.23214028808195
aF-6.005115996038969
aa(lp923
F-218.23351266165577
aF-2.354046855887699
aa(lp924
F-218.23108682046632
aF-1.1771558554924915
aa(lp925
F-218.2336389329876
aF6.929174067765039
aa(lp926
F-218.23195181538676
aF8.88114287820504
aa(lp927
F-218.23709484394956
aF12.50329285508982
aa(lp928
F-218.2274530358117
aF18.654902122005126
aa(lp929
F-218.22980149580636
aF24.195524453298795
aa(lp930
F-218.2367970434532
aF26.05419757155713
aa(lp931
F-218.2298863051614
aF27.64648182743235
aa(lp932
F-218.22846314301194
aF28.01338063055128
aa(lp933
F-218.22510950261363
aF28.01338063055128
aa(lp934
F-218.22955901236082
aF23.941001788084872
aa(lp935
F-218.24043401047854
aF21.945259338574044
aa(lp936
F-218.22210449062737
aF21.688391299315146
aa(lp937
F-218.23635135444545
aF20.812593528010357
aa(lp938
F-218.2383822898862
aF7.834926538446999
aa(lp939
F-215.27950870318148
aF-76.48787407367544
aa(lp940
F-215.29329320610626
aF-72.46079626874624
aa(lp941
F-215.28414294477884
aF-69.45840401943609
aa(lp942
F-215.27868640527922
aF-68.4624582544322
aa(lp943
F-215.28504471429548
aF-67.48199773600132
aa(lp944
F-215.29327866070815
aF-59.730756289786484
aa(lp945
F-215.2895328320611
aF-55.002944433518145
aa(lp946
F-215.28602913442072
aF-54.06655501227252
aa(lp947
F-215.2814955006935
aF-44.95863826868167
aa(lp948
F-215.28427413633503
aF-34.60123355030929
aa(lp949
F-215.28801677661824
aF-32.11512803586466
aa(lp950
F-215.27656711170508
aF-31.28286006021311
aa(lp951
F-215.28981855627302
aF-28.861337077297502
aa(lp952
F-215.27596227621316
aF-22.56127440864806
aa(lp953
F-215.28747454163002
aF-21.80848745809092
aa(lp954
F-215.29196901187464
aF-21.053519676961653
aa(lp955
F-215.28950219657932
aF-20.29644656140923
aa(lp956
F-215.28013093730652
aF-19.537343818114312
aa(lp957
F-215.28897764428473
aF-14.436123951276345
aa(lp958
F-215.28175209385572
aF-13.013800399537534
aa(lp959
F-215.2858662626153
aF-8.225266609686452
aa(lp960
F-215.2935017245741
aF-7.568808954184805
aa(lp961
F-215.28115841102453
aF-4.314224144120095
aa(lp962
F-215.28413038884383
aF4.095124239711367e-12
aa(lp963
F-215.29224839178616
aF1.1771558555006982
aa(lp964
F-215.2789844897957
aF2.3540468558959025
aa(lp965
F-215.27845252346907
aF7.319953351663839
aa(lp966
F-215.28754264639707
aF7.8349265384469815
aa(lp967
F-215.29424499034624
aF11.339765883685926
aa(lp968
F-215.28700427563274
aF12.76721277533733
aa(lp969
F-215.28928732341876
aF17.126660819390246
aa(lp970
F-215.29046198099843
aF20.554639364378186
aa(lp971
F-215.28711016217136
aF24.940873540118282
aa(lp972
F-215.29472250776536
aF26.910619929107103
aa(lp973
F-215.28035593457105
aF29.837186818868876
aa(lp974
F-215.27711360826822
aF30.44638804006096
aa(lp975
F-215.29079267938477
aF30.922592313901973
aa(lp976
F-215.29346772330643
aF30.807673199441247
aa(lp977
F-215.28568718098938
aF27.5294677090753
aa(lp978
F-215.28653596827763
aF26.42401522916415
aa(lp979
F-215.29150291811754
aF25.683728560367648
aa(lp980
F-215.28717097955865
aF25.430896868432605
aa(lp981
F-215.28051373607678
aF19.41626272229851
aa(lp982
F-215.2848542353814
aF19.035820369410693
aa(lp983
F-215.2838126245429
aF18.654902122005094
aa(lp984
F-215.27738892960144
aF18.273517503018052
aa(lp985
F-215.28681572607024
aF16.237666736921764
aa(lp986
F-215.290477486948
aF13.154224294663484
aa(lp987
F-212.34262623034914
aF-77.6473687120185
aa(lp988
F-212.32651303421667
aF-76.6020459571895
aa(lp989
F-212.34317205671857
aF-71.52406537662596
aa(lp990
F-212.3379976502049
aF-57.732050623933276
aa(lp991
F-212.329457938759
aF-52.04286954021602
aa(lp992
F-212.3309786276165
aF-45.59963939896366
aa(lp993
F-212.34229047256525
aF-42.01943324055345
aa(lp994
F-212.33714736595158
aF-41.12699993562165
aa(lp995
F-212.34160183187967
aF-37.62531626965351
aa(lp996
F-212.33515595863506
aF-35.89192133460006
aa(lp997
F-212.32538632268535
aF-31.642345736659582
aa(lp998
F-212.34279139796044
aF-24.31439666193786
aa(lp999
F-212.3293660239849
aF2.354046855895885
aa(lp1000
F-212.32620748519207
aF5.880483426768761
aa(lp1001
F-212.33050282140158
aF19.67524497170568
aa(lp1002
F-212.33139603785565
aF27.89658766443399
aa(lp1003
F-212.34098422653972
aF30.084341722565416
aa(lp1004
F-212.3349120595828
aF31.28286006022062
aa(lp1005
F-212.32423585816713
aF31.642345736667075
aa(lp1006
F-212.33517415565888
aF33.6694730292825
aa(lp1007
F-212.32599153155536
aF33.78233444601834
aa(lp1008
F-212.32607437559682
aF33.6694730292825
aa(lp1009
F-212.32349016647512
aF32.245021903778685
aa(lp1010
F-212.3333739815768
aF29.837186818868876
aa(lp1011
F-212.33848874737782
aF28.37957910061344
aa(lp1012
F-212.32578387268376
aF26.42401522916405
aa(lp1013
F-212.33180451914347
aF25.80180445170724
aa(lp1014
F-212.342084865351
aF23.44775583419655
aa(lp1015
F-212.32379833261328
aF20.433985031815467
aa(lp1016
F-212.3400204124692
aF14.698885194840262
aa(lp1017
F-212.3426553820656
aF10.17368751279748
aa(lp1018
F-212.32540523687967
aF9.660444490305272
aa(lp1019
F-209.36957609116203
aF-76.74281399912266
aa(lp1020
F-209.37329815167493
aF-67.54572350195885
aa(lp1021
F-209.3755926975317
aF-45.38173705929378
aa(lp1022
F-209.37364137561937
aF-37.280483991739885
aa(lp1023
F-209.3754904277803
aF-27.027999310443423
aa(lp1024
F-209.37594964898585
aF-20.5546393643703
aa(lp1025
F-209.37814797986
aF-12.890522936128653
aa(lp1026
F-209.3790802229149
aF-10.686488357074182
aa(lp1027
F-209.37216923370175
aF-3.655268596608883
aa(lp1028
F-209.37051555792743
aF2.2291087113393027
aa(lp1029
F-209.3713530682622
aF4.705975228510782
aa(lp1030
F-209.37988129428385
aF9.395014028038242
aa(lp1031
F-209.3682463041084
aF20.054865687059618
aa(lp1032
F-209.3739666502005
aF20.933083151342963
aa(lp1033
F-209.37258227171526
aF23.447755834196844
aa(lp1034
F-209.38085503781116
aF27.161659518457704
aa(lp1035
F-209.38272429409278
aF29.10983843953408
aa(lp1036
F-209.37342167194322
aF29.721543298093703
aa(lp1037
F-209.37236761160426
aF31.642345736667075
aa(lp1038
F-209.37804293977075
aF31.88687150428781
aa(lp1039
F-209.37693762429225
aF32.602366179401386
aa(lp1040
F-209.3794184927906
aF33.6694730292825
aa(lp1041
F-209.38354091034606
aF36.24042969649849
aa(lp1042
F-209.37629061279748
aF35.19222145745634
aa(lp1043
F-209.37751644817325
aF34.729004389774055
aa(lp1044
F-209.38161291577487
aF34.02350367842732
aa(lp1045
F-209.3780201496113
aF30.807673199441247
aa(lp1046
F-209.37717111657992
aF26.05419757155687
aa(lp1047
F-209.3832823444033
aF25.683728560367484
aa(lp1048
F-209.3841590010735
aF25.312617457301787
aa(lp1049
F-209.37980106467413
aF24.94087354011798
aa(lp1050
F-209.3702086441533
aF24.56850610239468
aa(lp1051
F-209.37575839692272
aF15.206797663854553
aa(lp1052
F-209.375507467642
aF14.698885194840194
aa(lp1053
F-209.37726652720914
aF13.664006638349138
aa(lp1054
F-209.36973534576094
aF10.43878006600772
aa(lp1055
F-206.40461849335148
aF-77.95442677689205
aa(lp1056
F-206.41896084722939
aF-77.96876913076993
aa(lp1057
F-206.4212693581578
aF-72.75858877294617
aa(lp1058
F-206.41871674772506
aF-70.69424967069777
aa(lp1059
F-206.41306400078048
aF-64.58548935106438
aa(lp1060
F-206.42292490935074
aF-56.65735005963404
aa(lp1061
F-206.42021731287258
aF-50.85769494195078
aa(lp1062
F-206.40973843792952
aF-43.33660752527218
aa(lp1063
F-206.40559584640502
aF-39.67425661775213
aa(lp1064
F-206.40994175292678
aF-29.109838439526502
aa(lp1065
F-206.4074960487209
aF-24.06000493138399
aa(lp1066
F-206.4234449931482
aF-18.39505025712559
aa(lp1067
F-206.40946903288994
aF-6.271705182696475
aa(lp1068
F-206.4090622983589
aF-2.746239229344171
aa(lp1069
F-206.42179714995885
aF1.9617956313906584
aa(lp1070
F-206.4159623184484
aF2.6213208948950326
aa(lp1071
F-206.4066048978066
aF3.9223652043668245
aa(lp1072
F-206.41222325054383
aF7.053668541063819
aa(lp1073
F-206.41966634766746
aF10.049737899619428
aa(lp1074
F-206.41695957328824
aF11.216071772403415
aa(lp1075
F-206.42019840560076
aF23.447755834196844
aa(lp1076
F-206.40860051338234
aF30.807673199441247
aa(lp1077
F-206.4238670094016
aF34.84104743465696
aa(lp1078
F-206.42021223024133
aF36.8243888403334
aa(lp1079
F-206.41965016018025
aF38.312150335373396
aa(lp1080
F-206.41086413289844
aF39.22698866736366
aa(lp1081
F-206.40685537388424
aF37.85977047773965
aa(lp1082
F-206.4191584801199
aF37.170448188148974
aa(lp1083
F-206.40474998417994
aF30.084341722565288
aa(lp1084
F-206.42087467912802
aF29.72154329809357
aa(lp1085
F-206.42408694035834
aF27.89658766443376
aa(lp1086
F-206.40924703747294
aF27.529467709075035
aa(lp1087
F-206.41460843695907
aF24.687183677156288
aa(lp1088
F-206.41715161238673
aF23.821937917351026
aa(lp1089
F-206.41355855797127
aF21.56824012695217
aa(lp1090
F-206.41990187599183
aF16.621371289566444
aa(lp1091
F-203.4406834242688
aF-78.15672867931359
aa(lp1092
F-203.45191747360542
aF-78.16796272865021
aa(lp1093
F-203.45363997425954
aF-76.05568443453933
aa(lp1094
F-203.44344435907982
aF-74.99325264262038
aa(lp1095
F-203.44976253356617
aF-72.90475843350534
aa(lp1096
F-203.45249833710724
aF-65.67981710186861
aa(lp1097
F-203.43883644773447
aF-48.832889421462774
aa(lp1098
F-203.44187822296203
aF-44.092182704385905
aa(lp1099
F-203.44829892992942
aF-37.62531626965354
aa(lp1100
F-203.45166051257272
aF-5.489114659045405
aa(lp1101
F-203.4451075498108
aF-1.1771558554925439
aa(lp1102
F-203.45410462222736
aF9.395014028038224
aa(lp1103
F-203.44197594237698
aF17.004660308795497
aa(lp1104
F-203.44722421313838
aF19.675244971705713
aa(lp1105
F-203.45161875695328
aF22.69764245905125
aa(lp1106
F-203.4415850552469
aF23.19242581878533
aa(lp1107
F-203.45687854671797
aF25.05935351406077
aa(lp1108
F-203.44393901063336
aF26.424015229164247
aa(lp1109
F-203.45700176804894
aF30.922592313901973
aa(lp1110
F-203.4546259394342
aF33.42772921838267
aa(lp1111
F-203.45340997085947
aF34.729004389774055
aa(lp1112
F-203.44583166633458
aF40.34939262493904
aa(lp1113
F-203.4463880037643
aF40.6854517427972
aa(lp1114
F-203.45268423700858
aF42.35032318464454
aa(lp1115
F-203.44071413509732
aF42.35032318464454
aa(lp1116
F-203.45152302918046
aF39.56636283554559
aa(lp1117
F-203.43758385624417
aF37.28048399174708
aa(lp1118
F-203.45019311728487
aF35.891921334607346
aa(lp1119
F-203.43989628343058
aF34.37668374175223
aa(lp1120
F-203.45531028668304
aF27.646481827432314
aa(lp1121
F-203.44591724197127
aF26.793172287766488
aa(lp1122
F-203.45238015889925
aF18.533469568285703
aa(lp1123
F-203.44858247184314
aF16.35993293992554
aa(lp1124
F-200.46830151137468
aF-78.37877209920353
aa(lp1125
F-200.4745484797381
aF-78.38501906756696
aa(lp1126
F-200.4676784697756
aF-76.24543549293638
aa(lp1127
F-200.4690394604523
aF-75.18508471549708
aa(lp1128
F-200.4803786865261
aF-74.1378442657983
aa(lp1129
F-200.47748526754413
aF-70.97826862244831
aa(lp1130
F-200.47980688806842
aF-57.6473099507083
aa(lp1131
F-200.47290063766528
aF-43.008918559422185
aa(lp1132
F-200.47669545419777
aF-41.12699993562165
aa(lp1133
F-200.46511950646354
aF-32.829591984230404
aa(lp1134
F-200.4687419629447
aF-31.037432991810725
aa(lp1135
F-200.47273648448535
aF-28.37957910060584
aa(lp1136
F-200.47926025564746
aF-19.796219669621635
aa(lp1137
F-200.47586469670802
aF-16.482157645215985
aa(lp1138
F-200.47872240142996
aF-14.050240922454373
aa(lp1139
F-200.48217029421562
aF-5.4891146590454225
aa(lp1140
F-200.46923657390946
aF12.379882076356132
aa(lp1141
F-200.4786192694337
aF19.416262722298473
aa(lp1142
F-200.46561465138373
aF24.19552445329886
aa(lp1143
F-200.47562932359648
aF24.687183677156252
aa(lp1144
F-200.46553265563674
aF25.68372856036781
aa(lp1145
F-200.46986298267467
aF29.837186818868847
aa(lp1146
F-200.47782385843718
aF31.527923934670167
aa(lp1147
F-200.48459846959997
aF38.31215033537337
aa(lp1148
F-200.4839167221355
aF40.01232477436675
aa(lp1149
F-200.47368310078315
aF42.575208421289965
aa(lp1150
F-200.46862666836375
aF43.663213078197806
aa(lp1151
F-200.48109500863893
aF44.636447744800975
aa(lp1152
F-200.4737034328843
aF44.95863826868825
aa(lp1153
F-200.47119002436133
aF44.856132294893534
aa(lp1154
F-200.46483170542015
aF42.35032318464451
aa(lp1155
F-200.47767342596487
aF41.9138136361228
aa(lp1156
F-200.4830679876121
aF41.68749281283356
aa(lp1157
F-200.47593260671982
aF40.242135241271434
aa(lp1158
F-200.4754766720699
aF37.96920791662719
aa(lp1159
F-200.47861813336192
aF33.07228829925754
aa(lp1160
F-200.46561693391413
aF31.886871504287686
aa(lp1161
F-200.47357757479813
aF30.199746657674194
aa(lp1162
F-200.47424285701112
aF20.433985031815297
aa(lp1163
F-197.49337544177018
aF-77.54876844546736
aa(lp1164
F-197.50645500702265
aF-76.48787407367548
aa(lp1165
F-197.49586525106253
aF-75.40633583889135
aa(lp1166
F-197.49952940107903
aF-63.83684881586738
aa(lp1167
F-197.50343752502528
aF-59.73075628978662
aa(lp1168
F-197.49240751299703
aF-58.7007728834909
aa(lp1169
F-197.50001745457044
aF-26.289870024240393
aa(lp1170
F-197.49675430099674
aF-21.05351967696162
aa(lp1171
F-197.49348552546226
aF-15.975950709322666
aa(lp1172
F-197.50357971151956
aF-11.075098232543937
aa(lp1173
F-197.50169972268347
aF-3.2632503877704186
aa(lp1174
F-197.49163402739833
aF8.225266609694545
aa(lp1175
F-197.48994108227714
aF15.975950709330599
aa(lp1176
F-197.50027151447355
aF24.56850610239508
aa(lp1177
F-197.4994795862248
aF27.161659518457768
aa(lp1178
F-197.5021589750475
aF30.08434172256548
aa(lp1179
F-197.49266554658413
aF30.561551504386
aa(lp1180
F-197.49848406957813
aF33.669473029282564
aa(lp1181
F-197.49878755122614
aF37.625316269660665
aa(lp1182
F-197.4969626178364
aF40.68545174279718
aa(lp1183
F-197.50005667151615
aF47.49502912216674
aa(lp1184
F-197.50686351093174
aF48.7349802626315
aa(lp1185
F-197.50350987053343
aF48.7349802626315
aa(lp1186
F-197.5067243972298
aF48.42680073650254
aa(lp1187
F-197.50656006396719
aF48.1174105428774
aa(lp1188
F-197.49904212719608
aF46.7675837244278
aa(lp1189
F-197.48842792782492
aF46.45188524613868
aa(lp1190
F-197.50062594125035
aF44.209925256191404
aa(lp1191
F-197.5002664649202
aF43.21780138307104
aa(lp1192
F-197.50553897619767
aF42.68015437285486
aa(lp1193
F-197.50157159732768
aF41.248227504520095
aa(lp1194
F-197.4904373840867
aF39.67425661775912
aa(lp1195
F-197.49465661449094
aF39.3351966068024
aa(lp1196
F-197.493938488766
aF38.99515321797921
aa(lp1197
F-197.48828302486498
aF38.65413495235658
aa(lp1198
F-197.4962857644587
aF36.8243888403334
aa(lp1199
F-197.5009787845648
aF34.0235036784272
aa(lp1200
F-197.5064298444843
aF26.054197571556703
aa(lp1201
F-197.49614055589223
aF21.19068171045057
aa(lp1202
F-197.4883949338698
aF20.054865687058946
aa(lp1203
F-194.5144524690083
aF-77.80965116608299
aa(lp1204
F-194.52101998837605
aF-75.65338553804531
aa(lp1205
F-194.51908771640012
aF-71.36166205728134
aa(lp1206
F-194.51667582900745
aF-70.29443285216814
aa(lp1207
F-194.50701248998058
aF-59.811754971649755
aa(lp1208
F-194.50812621476052
aF-58.78365913773317
aa(lp1209
F-194.50825297147986
aF-43.767018140882406
aa(lp1210
F-194.50893895867756
aF-37.044956880434384
aa(lp1211
F-194.50726431851703
aF-32.358934951219645
aa(lp1212
F-194.52195268089534
aF-23.311805250565268
aa(lp1213
F-194.52148992258574
aF-20.675241559166444
aa(lp1214
F-194.51250523184797
aF-19.796219669621664
aa(lp1215
F-194.51247244933472
aF-16.3599329399176
aa(lp1216
F-194.51265462443158
aF-11.339765883677874
aa(lp1217
F-194.50925368387837
aF7.053668541063784
aa(lp1218
F-194.507731167381
aF20.17568171249982
aa(lp1219
F-194.52414490871257
aF21.94525933857438
aa(lp1220
F-194.50691547933752
aF31.642345736667046
aa(lp1221
F-194.51072851419042
aF32.60236617940145
aa(lp1222
F-194.51421239835545
aF33.07228829925754
aa(lp1223
F-194.50818777053877
aF38.31215033537337
aa(lp1224
F-194.5126481388263
aF40.242135241271434
aa(lp1225
F-194.50926759134327
aF41.68749281283356
aa(lp1226
F-194.52308131570857
aF42.01943324056029
aa(lp1227
F-194.51920128243577
aF43.663213078197806
aa(lp1228
F-194.52240629389155
aF46.23608060331173
aa(lp1229
F-194.52183829793807
aF48.1174105428774
aa(lp1230
F-194.518724277179
aF48.328381486763234
aa(lp1231
F-194.5096208079433
aF48.7349802626315
aa(lp1232
F-194.5179586884648
aF51.35840944412894
aa(lp1233
F-194.5113257846068
aF51.74850905632335
aa(lp1234
F-194.5231603689287
aF51.74850905632335
aa(lp1235
F-194.52172303458389
aF51.74850905632335
aa(lp1236
F-194.5089302672913
aF51.74850905632335
aa(lp1237
F-194.50694509313712
aF51.35840944412894
aa(lp1238
F-194.51293514272479
aF50.46254127638543
aa(lp1239
F-194.51758297959825
aF49.250424035257545
aa(lp1240
F-194.52334623234646
aF46.45188524613868
aa(lp1241
F-194.51535943825496
aF44.533585444200796
aa(lp1242
F-194.51748522112868
aF40.913883467008084
aa(lp1243
F-194.50798277565062
aF37.84450566255121
aa(lp1244
F-194.51430954360706
aF30.068246517170206
aa(lp1245
F-194.51239294273128
aF25.296122469037346
aa(lp1246
F-194.50787522093975
aF24.178947045403053
aa(lp1247
F-194.521784135387
aF22.441530626230904
aa(lp1248
F-191.52040049214335
aF-78.08166297054412
aa(lp1249
F-191.53287881470263
aF-78.09414129310338
aa(lp1250
F-191.53500404615022
aF-77.004706273507
aa(lp1251
F-191.53106699451416
aF-73.7433767748258
aa(lp1252
F-191.53378589278975
aF-66.24983114783446
aa(lp1253
F-191.51996805693523
aF-65.17743363620733
aa(lp1254
F-191.53437276671895
aF-64.13641722699865
aa(lp1255
F-191.53610449449917
aF-62.03688784940327
aa(lp1256
F-191.5295948459632
aF-60.984590745902274
aa(lp1257
F-191.53731496289646
aF-56.84205744456562
aa(lp1258
F-191.52704829999675
aF-45.70130937465383
aa(lp1259
F-191.53351853116857
aF-40.79228370057111
aa(lp1260
F-191.53454911190977
aF-30.315074989761438
aa(lp1261
F-191.53713786041237
aF-24.805798631759377
aa(lp1262
F-191.52244793715943
aF-8.34955919640572
aa(lp1263
F-191.52609014272525
aF-5.097608663749596
aa(lp1264
F-191.53753201206456
aF1.1771558555006458
aa(lp1265
F-191.52236280048825
aF8.615401049705298
aa(lp1266
F-191.52789591324063
aF17.50938730010294
aa(lp1267
F-191.53380932683987
aF18.151938397304637
aa(lp1268
F-191.5206324530334
aF21.94525933857438
aa(lp1269
F-191.52853070716864
aF24.940873540118346
aa(lp1270
F-191.51899830424114
aF29.473881051947032
aa(lp1271
F-191.52276272117282
aF34.13609511705229
aa(lp1272
F-191.53141475985512
aF41.68749281283353
aa(lp1273
F-191.52243765900357
aF43.23234572109422
aa(lp1274
F-191.53196003333184
aF44.313141312044856
aa(lp1275
F-191.5269194844939
aF48.426800736502514
aa(lp1276
F-191.52592691673843
aF52.918115304578876
aa(lp1277
F-191.52457281098708
aF53.20722768456653
aa(lp1278
F-191.52606448533606
aF54.350303647257704
aa(lp1279
F-191.51824341296046
aF54.63269352747691
aa(lp1280
F-191.52105892254002
aF54.53036087761337
aa(lp1281
F-191.53096919491492
aF54.26006812482691
aa(lp1282
F-191.52581094037038
aF53.69035882628627
aa(lp1283
F-191.5252848284416
aF52.242722186414184
aa(lp1284
F-191.52421156485948
aF48.930674713479014
aa(lp1285
F-191.52220981107445
aF43.54480109369631
aa(lp1286
F-191.52438154014615
aF41.23340182428254
aa(lp1287
F-191.53542927856964
aF39.566362835545625
aa(lp1288
F-191.5198196445226
aF36.461979040400756
aa(lp1289
F-191.52930766390895
aF31.51196550164924
aa(lp1290
F-191.52516274788553
aF27.161659518457245
aa(lp1291
F-188.54486669436213
aF-78.3977161914652
aa(lp1292
F-188.53216957046388
aF-78.38501906756694
aa(lp1293
F-188.5393317750397
aF-77.2921952832694
aa(lp1294
F-188.5385019802847
aF-74.0082042076415
aa(lp1295
F-188.5428462386637
aF-62.20031181793583
aa(lp1296
F-188.54212028051336
aF-59.04290363541746
aa(lp1297
F-188.54213832217124
aF-57.997134222110304
aa(lp1298
F-188.54054532239468
aF-49.748910692888465
aa(lp1299
F-188.5420985027622
aF-48.734980262625555
aa(lp1300
F-188.53380631201404
aF-45.70130937465383
aa(lp1301
F-188.5284398846409
aF-38.762865034924104
aa(lp1302
F-188.53982668674385
aF-21.808487458090855
aa(lp1303
F-188.53291018951947
aF-1.3021317021650083
aa(lp1304
F-188.54578244185916
aF-0.5173877058364459
aa(lp1305
F-188.54003193472857
aF3.4055388597031837
aa(lp1306
F-188.53346197003665
aF11.604301880156921
aa(lp1307
F-188.5318005241526
aF14.43612395128431
aa(lp1308
F-188.52713008464252
aF18.53346956828645
aa(lp1309
F-188.5266367108991
aF23.072987558367718
aa(lp1310
F-188.53472198832006
aF24.31439666194558
aa(lp1311
F-188.52995717225363
aF30.80767319944131
aa(lp1312
F-188.53162210890872
aF36.129516995773905
aa(lp1313
F-188.53078832045583
aF43.8851598223532
aa(lp1314
F-188.53023641682537
aF49.65217794380821
aa(lp1315
F-188.53712467284464
aF49.95543806078224
aa(lp1316
F-188.53929951056674
aF50.2574492944066
aa(lp1317
F-188.5367608756208
aF50.55820409441616
aa(lp1318
F-188.52950883147258
aF50.85769494195661
aa(lp1319
F-188.53998801595634
aF53.20722768456653
aa(lp1320
F-188.5424697956746
aF55.748524819335756
aa(lp1321
F-188.54590292507692
aF57.56242305249676
aa(lp1322
F-188.5400841919846
aF57.647309950713264
aa(lp1323
F-188.53871787025088
aF57.56242305249676
aa(lp1324
F-188.54009306375153
aF53.40348722364512
aa(lp1325
F-188.53121917522483
aF51.654474173827666
aa(lp1326
F-188.54433942680586
aF51.64135392224663
aa(lp1327
F-188.5277465165185
aF48.636947485327276
aa(lp1328
F-188.5414235254743
aF48.623270476371495
aa(lp1329
F-188.5265836928253
aF42.575208421289965
aa(lp1330
F-188.5412232786591
aF42.56056883545617
aa(lp1331
F-188.53995393489402
aF39.904747846717385
aa(lp1332
F-185.54701391055673
aF-77.60806883604961
aa(lp1333
F-185.5322849146734
aF-76.48787407367551
aa(lp1334
F-185.53596760848941
aF-73.19162630046385
aa(lp1335
F-185.54524629444956
aF-72.10650877285026
aa(lp1336
F-185.54749687840027
aF-68.8426955754749
aa(lp1337
F-185.53236131429426
aF-67.74467109460582
aa(lp1338
F-185.53486815311754
aF-66.66723370278675
aa(lp1339
F-185.53297989318358
aF-64.51439895983636
aa(lp1340
F-185.5403271839353
aF-63.450797771764016
aa(lp1341
F-185.53115848288405
aF-61.30891550604467
aa(lp1342
F-185.54794853357893
aF-55.00294443351794
aa(lp1343
F-185.544877396613
aF-52.918115304573455
aa(lp1344
F-185.5380058026079
aF-37.73495882431349
aa(lp1345
F-185.53387078408633
aF-24.314396661937945
aa(lp1346
F-185.52961362261593
aF-16.098304651481833
aa(lp1347
F-185.5296548958586
aF-15.206797663846604
aa(lp1348
F-185.53628140644798
aF10.951343637283435
aa(lp1349
F-185.53836757117665
aF13.15422429466424
aa(lp1350
F-185.54121892459315
aF20.175681712499784
aa(lp1351
F-185.53603739847205
aF25.430896868432537
aa(lp1352
F-185.54542669770964
aF26.054197571557197
aa(lp1353
F-185.54681193338507
aF30.922592313901912
aa(lp1354
F-185.5315543550991
aF41.58154033849283
aa(lp1355
F-185.5379521688149
aF43.8851598223532
aa(lp1356
F-185.54804990468614
aF46.86789823812289
aa(lp1357
F-185.53210811054416
aF49.95543806078224
aa(lp1358
F-185.53038248459433
aF52.335928955092285
aa(lp1359
F-185.54307313512032
aF55.471640213151026
aa(lp1360
F-185.53626343567862
aF56.210952264844224
aa(lp1361
F-185.54427347073334
aF59.90386112755524
aa(lp1362
F-185.53570985998118
aF60.407872087155965
aa(lp1363
F-185.54683549091845
aF60.396746456218686
aa(lp1364
F-185.52977872556295
aF60.65761541713493
aa(lp1365
F-185.5408371592979
aF60.64655698339998
aa(lp1366
F-185.53556754820733
aF60.64655698339998
aa(lp1367
F-185.53677867751367
aF60.396746456218686
aa(lp1368
F-185.53973976326563
aF59.89260193830694
aa(lp1369
F-185.5427050128971
aF58.877919199479244
aa(lp1370
F-185.53208456041563
aF57.28307032964905
aa(lp1371
F-185.535064268642
aF55.936415087653906
aa(lp1372
F-185.54728835318167
aF55.92419100311423
aa(lp1373
F-185.54435813303812
aF51.949247544362386
aa(lp1374
F-185.53229915144033
aF48.01860728117913
aa(lp1375
F-185.5460834526719
aF48.00482297994755
aa(lp1376
F-185.54038840761945
aF42.90431337399197
aa(lp1377
F-185.5337920218998
aF39.55131288496796
aa(lp1378
F-185.54426584740824
aF38.53012681507385
aa(lp1379
F-185.5410015363642
aF37.50027162919398
aa(lp1380
F-185.53125339235623
aF32.58651451769825
aa(lp1381
F-182.5295463878331
aF-77.92307853786694
aa(lp1382
F-182.54390546789597
aF-76.82395962633727
aa(lp1383
F-182.53805902901263
aF-74.59911395450546
aa(lp1384
F-182.52834741802857
aF-69.08960989642921
aa(lp1385
F-182.53060496790087
aF-65.8258036649755
aa(lp1386
F-182.5403532720525
aF-50.952825335329706
aa(lp1387
F-182.5421213373539
aF-23.192425818777625
aa(lp1388
F-182.53047773445988
aF-21.31100361231144
aa(lp1389
F-182.54168650041794
aF-17.631205974448832
aa(lp1390
F-182.53093010689645
aF-3.5304082056714967
aa(lp1391
F-182.53928007696933
aF5.4891146590534525
aa(lp1392
F-182.54100035476785
aF10.173687512797413
aa(lp1393
F-182.52866559303712
aF14.698885194841017
aa(lp1394
F-182.53393944362094
aF20.433985031815972
aa(lp1395
F-182.54329947770586
aF30.922592313901912
aa(lp1396
F-182.5344656258238
aF36.24042969649842
aa(lp1397
F-182.5384444327508
aF38.99515321797919
aa(lp1398
F-182.54395260030384
aF40.57851658454034
aa(lp1399
F-182.53100961353346
aF48.636947485327276
aa(lp1400
F-182.54780589500234
aF49.041941416792135
aa(lp1401
F-182.54569044376575
aF51.45285486239369
aa(lp1402
F-182.5320515105592
aF54.350303647257704
aa(lp1403
F-182.54514632885858
aF56.842057444570614
aa(lp1404
F-182.52849020227882
aF59.21872549824403
aa(lp1405
F-182.52838720683093
aF60.9058423098877
aa(lp1406
F-182.53148867761354
aF62.2003118179401
aa(lp1407
F-182.5352874414425
aF63.524274877936264
aa(lp1408
F-182.53716224501306
aF61.88346196736328
aa(lp1409
F-182.54788057967215
aF61.872743632704214
aa(lp1410
F-182.54259117482044
aF61.39772199914315
aa(lp1411
F-182.53228024928248
aF59.63828055116317
aa(lp1412
F-182.53884683700352
aF56.210952264844224
aa(lp1413
F-182.53212014163847
aF52.534890763132296
aa(lp1414
F-182.54506690572242
aF52.52194399904835
aa(lp1415
F-182.5314569168237
aF47.707632612913955
aa(lp1416
F-182.54529434795134
aF47.69379518178633
aa(lp1417
F-182.52850773463678
aF43.54480109369631
aa(lp1418
F-179.53386116015008
aF-78.28340654868589
aa(lp1419
F-179.52400266196733
aF-77.15230836165956
aa(lp1420
F-179.52846800978708
aF-63.90947323757897
aa(lp1421
F-179.54152598497924
aF-58.522945051631936
aa(lp1422
F-179.53431506671916
aF-52.13635952699876
aa(lp1423
F-179.5352755954002
aF-42.784992064284154
aa(lp1424
F-179.53105934452086
aF-36.69856240716056
aa(lp1425
F-179.53224872548748
aF-32.7160205746402
aa(lp1426
F-179.52921885589365
aF-22.06523677765037
aa(lp1427
F-179.52537723106832
aF-20.17568171249204
aa(lp1428
F-179.5375479783156
aF-7.444390594435909
aa(lp1429
F-179.53724057810584
aF8.491154157916947
aa(lp1430
F-179.53956414007214
aF14.698885194841017
aa(lp1431
F-179.52400622326337
aF15.469049411906878
aa(lp1432
F-179.54185008068944
aF21.311003612319137
aa(lp1433
F-179.5311319438536
aF27.529467709075394
aa(lp1434
F-179.5345180052
aF33.31460064506567
aa(lp1435
F-179.53468454361172
aF36.93471970367528
aa(lp1436
F-179.5383526882781
aF37.51557827669589
aa(lp1437
F-179.53275278416447
aF40.91388346700812
aa(lp1438
F-179.52383236508737
aF46.1350254731378
aa(lp1439
F-179.5285487464024
aF53.69035882628627
aa(lp1440
F-179.53207653821502
aF58.96048619541188
aa(lp1441
F-179.5276782069526
aF61.23080869025067
aa(lp1442
F-179.5392174807049
aF61.47549586756645
aa(lp1443
F-179.54048866323816
aF62.43881514045551
aa(lp1444
F-179.52958494102808
aF62.675757495844415
aa(lp1445
F-179.52343666989344
aF64.44314492494078
aa(lp1446
F-179.53338351293016
aF64.43319808190408
aa(lp1447
F-179.54049638703444
aF65.32600758250672
aa(lp1448
F-179.54076094028773
aF66.18274070804146
aa(lp1449
F-179.54072427333531
aF66.39280086039703
aa(lp1450
F-179.52783463104475
aF66.18274070804146
aa(lp1451
F-179.53720135818958
aF66.17337398089664
aa(lp1452
F-179.52959277574615
aF65.316348865737
aa(lp1453
F-179.53280359465822
aF64.88782061771813
aa(lp1454
F-179.53572018092197
aF63.07063336825569
aa(lp1455
F-179.52807793191758
aF60.65761541713493
aa(lp1456
F-179.53913636565252
aF60.64655698339998
aa(lp1457
F-179.5274593689783
aF58.60614960187236
aa(lp1458
F-179.53487306262997
aF57.29498015866333
aa(lp1459
F-179.52674246788428
aF52.82574597031751
aa(lp1460
F-179.53963075352996
aF52.81285768467183
aa(lp1461
F-179.54080721828132
aF44.53358544420076
aa(lp1462
F-179.53599328870257
aF41.91381363612269
aa(lp1463
F-179.52456951388496
aF35.06486811278738
aa(lp1464
F-176.5298818141851
aF-77.5294722544685
aa(lp1465
F-176.52575049877646
aF-76.3990668322477
aa(lp1466
F-176.5299066264538
aF-70.80996078489514
aa(lp1467
F-176.52640857699947
aF-67.48199773600155
aa(lp1468
F-176.51655627457504
aF-59.811754971649655
aa(lp1469
F-176.51494440103932
aF-57.64730995070848
aa(lp1470
F-176.51539585886917
aF-56.570788862566175
aa(lp1471
F-176.52993071986737
aF-54.44040130769604
aa(lp1472
F-176.51675077759856
aF-40.79228370057111
aa(lp1473
F-176.52659345381977
aF-37.73495882431349
aa(lp1474
F-176.5189249202179
aF-24.805798631759377
aa(lp1475
F-176.51581230472152
aF-9.784473076068485
aa(lp1476
F-176.51531639333103
aF0.784786920069391
aa(lp1477
F-176.51916745477183
aF35.08045681449505
aa(lp1478
F-176.53117208793256
aF36.93471970367527
aa(lp1479
F-176.51919809912746
aF41.687492812833504
aa(lp1480
F-176.5298562317273
aF42.24503909059494
aa(lp1481
F-176.5258655154255
aF48.636947485327326
aa(lp1482
F-176.525439940744
aF51.061060756869075
aa(lp1483
F-176.52559508530453
aF53.78145471623904
aa(lp1484
F-176.52223209211584
aF56.29810601379638
aa(lp1485
F-176.5270599759146
aF58.96048619541185
aa(lp1486
F-176.52852225896646
aF63.14493565022877
aa(lp1487
F-176.52788366125571
aF64.73703078280289
aa(lp1488
F-176.5137150101784
aF67.61812473638314
aa(lp1489
F-176.5225618114095
aF67.60927793515204
aa(lp1490
F-176.52376643530908
aF68.20803406024457
aa(lp1491
F-176.524753603758
aF68.59278914968193
aa(lp1492
F-176.51194805285212
aF69.70574862007493
aa(lp1493
F-176.51995618371626
aF69.69774048921079
aa(lp1494
F-176.51564450407594
aF69.69774048921079
aa(lp1495
F-176.5268344975995
aF69.52458530255386
aa(lp1496
F-176.52367066324476
aF69.34168387402129
aa(lp1497
F-176.5318331563441
aF69.33352138092194
aa(lp1498
F-176.51456642639175
aF68.58432039619416
aa(lp1499
F-176.52221237503494
aF67.4181007989286
aa(lp1500
F-176.53113412983987
aF67.40917904412369
aa(lp1501
F-176.5162268087931
aF62.82588764309899
aa(lp1502
F-176.5181370184458
aF60.64655698339994
aa(lp1503
F-176.52480153930932
aF57.02610489331008
aa(lp1504
F-176.52761725795477
aF52.82574597031756
aa(lp1505
F-176.51798957859103
aF49.55531924974203
aa(lp1506
F-176.53150308810564
aF49.541805740227424
aa(lp1507
F-173.5149656812589
aF-77.90811553662944
aa(lp1508
F-173.50933425180943
aF-76.76886970229621
aa(lp1509
F-173.51604061429418
aF-74.51563105457753
aa(lp1510
F-173.51096152179446
aF-72.26050691033026
aa(lp1511
F-173.51649630729077
aF-71.14480200698296
aa(lp1512
F-173.5090875141359
aF-68.90261966416968
aa(lp1513
F-173.4980145427982
aF-66.6672337027868
aa(lp1514
F-173.503794196098
aF-60.0650566744986
aa(lp1515
F-173.50032797780267
aF-54.63269352747179
aa(lp1516
F-173.51081132153064
aF-50.35338566241167
aa(lp1517
F-173.5000464975514
aF-48.21609175259594
aa(lp1518
F-173.5112219193304
aF-45.06103020287074
aa(lp1519
F-173.50913438531558
aF-30.676637447955247
aa(lp1520
F-173.5129502930475
aF-9.519094654809358
aa(lp1521
F-173.51601094899408
aF-5.880483426760716
aa(lp1522
F-173.5025782778532
aF3.797525035547294
aa(lp1523
F-173.51140724217157
aF5.489114659053435
aa(lp1524
F-173.51244425044754
aF9.660444490306276
aa(lp1525
F-173.50577357589717
aF12.115750192372623
aa(lp1526
F-173.50940439645262
aF31.527923934670234
aa(lp1527
F-173.5045812618401
aF36.82438884033352
aa(lp1528
F-173.51392204346337
aF39.335196606802334
aa(lp1529
F-173.4988117122328
aF40.57851658454039
aa(lp1530
F-173.49785023402154
aF47.495029122166684
aa(lp1531
F-173.51499036955084
aF48.01860728117918
aa(lp1532
F-173.50522475491036
aF51.15591434977231
aa(lp1533
F-173.50833882692513
aF51.654474173827715
aa(lp1534
F-173.5113254729465
aF54.542891578023664
aa(lp1535
F-173.5008939635369
aF55.471640213151005
aa(lp1536
F-173.51095809016675
aF60.48758721599271
aa(lp1537
F-173.50519543802216
aF63.37715971979479
aa(lp1538
F-173.51612326234942
aF64.6662910982842
aa(lp1539
F-173.50468385782926
aF68.00440007172129
aa(lp1540
F-173.50542188992097
aF69.34168387402129
aa(lp1541
F-173.51358438302032
aF69.33352138092194
aa(lp1542
F-173.49902988742036
aF71.09194885187979
aa(lp1543
F-173.50641271683236
aF71.0845660224678
aa(lp1544
F-173.49840645433045
aF71.73546533306423
aa(lp1545
F-173.5118519895908
aF72.21164965873834
aa(lp1546
F-173.51195100159853
aF72.36441713099524
aa(lp1547
F-173.5009374062708
aF72.36441713099524
aa(lp1548
F-173.50768312327853
aF72.35767141398752
aa(lp1549
F-173.4989256803479
aF72.21164965873834
aa(lp1550
F-173.50575164765283
aF72.2048236914334
aa(lp1551
F-173.5163210594905
aF71.5825657630954
aa(lp1552
F-173.50323607551582
aF70.91738813686055
aa(lp1553
F-173.51064822991708
aF70.75597762170673
aa(lp1554
F-173.50879278482296
aF69.70574862007493
aa(lp1555
F-173.5168009156871
aF69.69774048921079
aa(lp1556
F-173.50138597522135
aF69.51649988950466
aa(lp1557
F-173.50251713719715
aF68.20803406024457
aa(lp1558
F-173.51113775821233
aF68.19941343922937
aa(lp1559
F-173.50167643552578
aF67.21639141246544
aa(lp1560
F-173.51067292086105
aF67.20739492713014
aa(lp1561
F-173.50629080924563
aF65.54265407321007
aa(lp1562
F-173.5158768862629
aF65.53306799619283
aa(lp1563
F-173.50158070602708
aF63.99202497137341
aa(lp1564
F-173.51167012736192
aF63.981935550038585
aa(lp1565
F-173.50765326001294
aF59.64960609818126
aa(lp1566
F-173.49946742533072
aF49.541805740227424
aa(lp1567
F-173.51276263250804
aF47.39546525631826
aa(lp1568
F-173.50926452172757
aF45.17755774461511
aa(lp1569
F-170.4839283975271
aF-78.29214880592905
aa(lp1570
F-170.48478759775432
aF-77.15230836165955
aa(lp1571
F-170.49560663075204
aF-76.02476105728041
aa(lp1572
F-170.4835022853595
aF-74.87665214073002
aa(lp1573
F-170.48384132433898
aF-73.74337677482572
aa(lp1574
F-170.48226059927885
aF-72.61060015145702
aa(lp1575
F-170.48625601915936
aF-53.781454716233874
aa(lp1576
F-170.4887018098792
aF-32.716020574640304
aa(lp1577
F-170.4837556880921
aF-30.676637447955216
aa(lp1578
F-170.47897876478515
aF-27.646481827424783
aa(lp1579
F-170.49311632751656
aF-26.659267907496385
aa(lp1580
F-170.4894136451771
aF-18.776287356718516
aa(lp1581
F-170.4978885637032
aF-8.34955919640565
aa(lp1582
F-170.49732056773917
aF-1.9617956313826101
aa(lp1583
F-170.48434619923663
aF5.097608663757596
aa(lp1584
F-170.49667846574891
aF14.313247063388479
aa(lp1585
F-170.4872723143057
aF16.743506173048925
aa(lp1586
F-170.49197639151123
aF38.545306821832376
aa(lp1587
F-170.49119819039038
aF49.95543806078222
aa(lp1588
F-170.4947892103795
aF52.627679974464726
aa(lp1589
F-170.48878171300487
aF55.66047950299979
aa(lp1590
F-170.49179399847338
aF57.56242305249682
aa(lp1591
F-170.4895542974199
aF66.39280086039706
aa(lp1592
F-170.47946642945152
aF68.01309630417543
aa(lp1593
F-170.48816266190565
aF68.00440007172129
aa(lp1594
F-170.4899450873506
aF71.25727061317228
aa(lp1595
F-170.49724890289608
aF71.24996679762681
aa(lp1596
F-170.48268863294703
aF72.36441713099524
aa(lp1597
F-170.48943434995473
aF72.35767141398752
aa(lp1598
F-170.4832941256173
aF72.95093539110134
aa(lp1599
F-170.48038461575626
aF73.65145513080527
aa(lp1600
F-170.48870037564558
aF75.14915242461653
aa(lp1601
F-170.49372500523876
aF75.14412779502335
aa(lp1602
F-170.49625539098588
aF75.69113875171199
aa(lp1603
F-170.48232150644105
aF75.78934791881103
aa(lp1604
F-170.48347743315935
aF75.79386979750568
aa(lp1605
F-170.48799931185397
aF75.78934791881103
aa(lp1606
F-170.48299831771843
aF75.79386979750568
aa(lp1607
F-170.48752019641307
aF75.78934791881103
aa(lp1608
F-170.48088417209624
aF75.78934791881103
aa(lp1609
F-170.4909857798953
aF75.69113875171199
aa(lp1610
F-170.49559174526885
aF75.68653278633846
aa(lp1611
F-170.4937520605428
aF75.37160247672325
aa(lp1612
F-170.4798428118212
aF75.14412779502335
aa(lp1613
F-170.49611737898178
aF75.03510790914882
aa(lp1614
F-170.49597368822336
aF73.924650524153
aa(lp1615
F-170.4805768392804
aF73.78604901234343
aa(lp1616
F-170.48856357451717
aF73.10104309375167
aa(lp1617
F-170.49490555067172
aF73.09470111759711
aa(lp1618
F-170.49078434599352
aF71.90070271609414
aa(lp1619
F-170.49777029994442
aF71.89371676214324
aa(lp1620
F-170.47930301421536
aF70.23876483377585
aa(lp1621
F-170.4870781050604
aF70.23098974293083
aa(lp1622
F-170.47994472897756
aF69.70574862007493
aa(lp1623
F-170.4879528598417
aF69.69774048921079
aa(lp1624
F-170.48049094301714
aF69.14880953791581
aa(lp1625
F-170.48060405768268
aF67.01300161971783
aa(lp1626
F-170.48967504863668
aF67.0039306287638
aa(lp1627
F-170.47838878204448
aF64.21838767633072
aa(lp1628
F-170.48840703945825
aF64.20836941891696
aa(lp1629
F-170.48027306436367
aF63.070633368255734
aa(lp1630
F-170.4906446013366
aF63.06026183128279
aa(lp1631
F-170.47974480549755
aF61.872743632704214
aa(lp1632
F-170.48696694369167
aF58.86639628458065
aa(lp1633
F-170.4870911618321
aF57.02610489331008
aa(lp1634
F-170.4899948806633
aF55.09203175639557
aa(lp1635
F-170.48052979623668
aF42.889721229662
aa(lp1636
F-167.47032350189292
aF-74.13784426579817
aa(lp1637
F-167.47417012133712
aF-73.00332454786546
aa(lp1638
F-167.46286781414915
aF-68.46245825443246
aa(lp1639
F-167.47177093627081
aF-67.34508726974194
aa(lp1640
F-167.46140744860324
aF-51.842412676395085
aa(lp1641
F-167.47126647146507
aF-45.38173705929367
aa(lp1642
F-167.4705669711577
aF-44.31314131203871
aa(lp1643
F-167.46953435634964
aF-41.12699993562153
aa(lp1644
F-167.46842456171655
aF-37.969207916620455
aa(lp1645
F-167.46780952668962
aF-34.84104743464993
aa(lp1646
F-167.46655229789053
aF-10.951343637275514
aa(lp1647
F-167.46473352095052
aF-7.178145122407225
aa(lp1648
F-167.46951333974366
aF1.9617956313905538
aa(lp1649
F-167.464147212952
aF12.3798820763562
aa(lp1650
F-167.4672938936775
aF14.050240922462296
aa(lp1651
F-167.4695853709651
aF18.151938397304708
aa(lp1652
F-167.47375537164476
aF20.554639364378083
aa(lp1653
F-167.4635879260949
aF27.52946770907543
aa(lp1654
F-167.46970931434157
aF40.91388346700814
aa(lp1655
F-167.45574287485078
aF41.581540338492886
aa(lp1656
F-167.47164589957418
aF50.16138544611764
aa(lp1657
F-167.46704263845203
aF54.06655501227802
aa(lp1658
F-167.46198968184444
aF55.66047950299979
aa(lp1659
F-167.4634885954107
aF59.64960609818126
aa(lp1660
F-167.46285850029932
aF61.96025349086881
aa(lp1661
F-167.4707207363898
aF62.83632906515379
aa(lp1662
F-167.45790395944147
aF64.95804418336768
aa(lp1663
F-167.46124557171348
aF65.75766200097524
aa(lp1664
F-167.4739587085751
aF67.28082467152274
aa(lp1665
F-167.474449867151
aF68.01309630417546
aa(lp1666
F-167.4610776064427
aF70.40523383324394
aa(lp1667
F-167.4618082504569
aF72.21164965873837
aa(lp1668
F-167.46863421776186
aF72.2048236914334
aa(lp1669
F-167.47293115994245
aF73.79198328411617
aa(lp1670
F-167.4593844150017
aF74.04969951454889
aa(lp1671
F-167.4623760906814
aF75.58651543139177
aa(lp1672
F-167.46706602758496
aF75.58182549448821
aa(lp1673
F-167.45525315176377
aF75.78934791881103
aa(lp1674
F-167.46326463313522
aF77.98486996515338
aa(lp1675
F-167.4652208849267
aF77.9829137133619
aa(lp1676
F-167.4573315003239
aF78.18052129993818
aa(lp1677
F-167.45885429882458
aF78.17899850143752
aa(lp1678
F-167.46686501458385
aF78.40950311800992
aa(lp1679
F-167.46760538130323
aF78.40876275129054
aa(lp1680
F-167.4696046935066
aF78.47397725363054
aa(lp1681
F-167.46572432489126
aF78.4778576222459
aa(lp1682
F-167.46380589862906
aF78.4797760485081
aa(lp1683
F-167.46384946268057
aF78.47973248445656
aa(lp1684
F-167.46585501595678
aF78.47772693118038
aa(lp1685
F-167.46982250831883
aF78.47375943881832
aa(lp1686
F-167.47319400730993
aF78.46033112642239
aa(lp1687
F-167.46539009406132
aF78.46813503967103
aa(lp1688
F-167.4595478801018
aF78.47397725363054
aa(lp1689
F-167.4556675114864
aF78.4778576222459
aa(lp1690
F-167.45579820255193
aF78.47772693118038
aa(lp1691
F-167.459765694914
aF78.47375943881832
aa(lp1692
F-167.4656950271749
aF78.46783010655746
aa(lp1693
F-167.47358605110156
aF78.45993908263078
aa(lp1694
F-167.4734599218378
aF78.39189461542824
aa(lp1695
F-167.45585141925613
aF78.40950311800992
aa(lp1696
F-167.4565917859755
aF78.40876275129054
aa(lp1697
F-167.47428732845793
aF78.39106720880811
aa(lp1698
F-167.4637249659455
aF78.32731235379634
aa(lp1699
F-167.46481335945583
aF78.32622396028601
aa(lp1700
F-167.46546856176053
aF78.24510677732572
aa(lp1701
F-167.46681769727712
aF78.24375764180913
aa(lp1702
F-167.46223869779087
aF78.0689865903397
aa(lp1703
F-167.46402169982247
aF78.06720358830809
aa(lp1704
F-167.4697753835399
aF77.62911143904599
aa(lp1705
F-167.4723363554425
aF77.6265504671434
aa(lp1706
F-167.46549701262887
aF77.5099794064813
aa(lp1707
F-167.46823021785036
aF77.50724620125985
aa(lp1708
F-167.4628452009157
aF77.38309644056743
aa(lp1709
F-167.4657503661378
aF77.38019127534533
aa(lp1710
F-167.4618104985722
aF77.24847522949518
aa(lp1711
F-167.46488733328084
aF77.24539839478653
aa(lp1712
F-167.46238283498025
aF77.10612923527351
aa(lp1713
F-167.46563103149455
aF77.10288103875922
aa(lp1714
F-167.46455151999317
aF76.9560726923832
aa(lp1715
F-167.46797075349613
aF76.95265345888022
aa(lp1716
F-167.46830524527033
aF76.7983206063535
aa(lp1717
F-167.47189517384152
aF76.79473067778233
aa(lp1718
F-167.47363208568567
aF76.63288875226155
aa(lp1719
F-167.4572011245611
aF75.14915242461653
aa(lp1720
F-167.46222575415425
aF75.14412779502335
aa(lp1721
F-167.4722995421962
aF74.91918751989144
aa(lp1722
F-167.46021151176024
aF73.51501996672485
aa(lp1723
F-167.46637911936028
aF71.5825657630954
aa(lp1724
F-167.4735243613676
aF71.57542052108809
aa(lp1725
F-167.4589453817708
aF69.70574862007493
aa(lp1726
F-167.46695351263497
aF69.69774048921076
aa(lp1727
F-167.45773296961863
aF67.60927793515204
aa(lp1728
F-167.46466782048356
aF64.88782061771816
aa(lp1729
F-167.47447109054633
aF64.87801734765542
aa(lp1730
F-167.46990126090896
aF61.88346196736333
aa(lp1731
F-167.45557109622723
aF58.61773773210575
aa(lp1732
F-167.46715922646075
aF58.60614960187226
aa(lp1733
F-167.45548884957137
aF54.53036087761337
aa(lp1734
F-167.473918752072
aF53.97588817275317
aa(lp1735
F-167.45878397574387
aF48.328381486763234
aa(lp1736
F-167.47251480247257
aF48.31465066003452
aa(lp1737
F-164.4301787773909
aF-76.8239596263373
aa(lp1738
F-164.4408295441482
aF-46.65313932445959
aa(lp1739
F-164.4398525968096
aF-42.35032318463818
aa(lp1740
F-164.44291242015484
aF-37.04495688043433
aa(lp1741
F-164.44011427239894
aF-33.895110172337816
aa(lp1742
F-164.43194914273525
aF-26.659267907496385
aa(lp1743
F-164.44237380524348
aF5.880483426768656
aa(lp1744
F-164.4453738491036
aF16.237666736922446
aa(lp1745
F-164.43084205781847
aF21.19068171045134
aa(lp1746
F-164.4315041307844
aF30.561551504385935
aa(lp1747
F-164.43583440165114
aF39.226988667363784
aa(lp1748
F-164.4280491479746
aF61.230808690250626
aa(lp1749
F-164.43061505531733
aF61.718646160687356
aa(lp1750
F-164.43369905609234
aF62.200311817940054
aa(lp1751
F-164.43733719774764
aF62.67575749584437
aa(lp1752
F-164.4415650473844
aF63.144935650228746
aa(lp1753
F-164.44641768730156
aF63.60779936366869
aa(lp1754
F-164.43631070849574
aF68.78259686419298
aa(lp1755
F-164.43764046432864
aF69.9419536176224
aa(lp1756
F-164.43151501804996
aF71.41358632732678
aa(lp1757
F-164.44321877959084
aF73.10104309375168
aa(lp1758
F-164.43709308185
aF74.05546965177695
aa(lp1759
F-164.44286321907805
aF74.04969951454889
aa(lp1760
F-164.43411390478406
aF75.79386979750569
aa(lp1761
F-164.4386357834787
aF75.78934791881103
aa(lp1762
F-164.43046340810142
aF77.31675229242153
aa(lp1763
F-164.4334544454547
aF77.31376125506824
aa(lp1764
F-164.44045598395184
aF77.98486996515338
aa(lp1765
F-164.44241223574335
aF77.9829137133619
aa(lp1766
F-164.43760264593237
aF78.40950311800992
aa(lp1767
F-164.43834301265173
aF78.40876275129054
aa(lp1768
F-164.44282857050055
aF78.37232631956408
aa(lp1769
F-164.4437429963363
aF78.37141189372832
aa(lp1770
F-164.4273550477401
aF78.17899850143752
aa(lp1771
F-164.43008017528814
aF77.74048062515746
aa(lp1772
F-164.43246865777678
aF77.73809214266883
aa(lp1773
F-164.43360088091535
aF77.5099794064813
aa(lp1774
F-164.4363340861368
aF77.50724620125985
aa(lp1775
F-164.4394154936753
aF77.03206386262059
aa(lp1776
F-164.44274925035577
aF77.02873010594011
aa(lp1777
F-164.4280501343893
aF76.7983206063535
aa(lp1778
F-164.4316400629605
aF76.79473067778233
aa(lp1779
F-164.42793342654463
aF76.54729805194046
aa(lp1780
F-164.43177871928765
aF76.54345275919744
aa(lp1781
F-164.43901516959394
aF76.27905267839722
aa(lp1782
F-164.44311496133423
aF76.27495288665695
aa(lp1783
F-164.43049333781988
aF75.48000245212253
aa(lp1784
F-164.43526712900524
aF75.47522866093716
aa(lp1785
F-164.42811816260559
aF74.91399628928647
aa(lp1786
F-164.43824856766244
aF74.31155053418524
aa(lp1787
F-164.4438539933369
aF74.3059451085108
aa(lp1788
F-164.4336537383984
aF73.38292628678434
aa(lp1789
F-164.43983309420852
aF73.37674693097419
aa(lp1790
F-164.4320148077441
aF72.057076899001
aa(lp1791
F-164.43892085469747
aF72.05017085204764
aa(lp1792
F-164.43550530728098
aF69.885169297511
aa(lp1793
F-164.4434359557572
aF69.87723864903478
aa(lp1794
F-164.44256268688642
aF63.070633368255734
aa(lp1795
F-164.43845175021133
aF62.600453857097946
aa(lp1796
F-164.43492484593983
aF62.12401435272131
aa(lp1797
F-164.44557435007442
aF62.11336484858673
aa(lp1798
F-164.43194632965375
aF61.64136249867925
aa(lp1799
F-164.44273322687968
aF61.63057560145332
aa(lp1800
F-164.42948007730382
aF61.15254655975495
aa(lp1801
F-164.44040328894036
aF61.141623348118415
aa(lp1802
F-164.42748948973272
aF60.65761541713497
aa(lp1803
F-164.4385479234678
aF60.64655698339988
aa(lp1804
F-164.4371300472555
aF60.14542601352164
aa(lp1805
F-164.43611211131892
aF59.63828055116307
aa(lp1806
F-164.43545610559306
aF59.12517131044779
aa(lp1807
F-164.43512356368583
aF58.60614960187226
aa(lp1808
F-164.43507556768805
aF58.08126732717486
aa(lp1809
F-164.4352727530391
aF57.55057697414561
aa(lp1810
F-164.43567531344752
aF57.01413161137763
aa(lp1811
F-164.43624300586615
aF56.471984882960115
aa(lp1812
F-164.43693515552167
aF55.92419100311413
aa(lp1813
F-164.43771066099728
aF55.37080475077117
aa(lp1814
F-164.4385279993689
aF54.811881464095336
aa(lp1815
F-164.4393452313932
aF54.24747703494949
aa(lp1816
F-164.42740908376805
aF53.690358826286314
aa(lp1817
F-164.44012000674815
aF53.67764790330624
aa(lp1818
F-164.42798008432376
aF53.11528053660487
aa(lp1819
F-164.44080956932476
aF53.10245105160387
aa(lp1820
F-164.42842399848539
aF52.534890763132346
aa(lp1821
F-164.44137076256948
aF52.52194399904824
aa(lp1822
F-164.4286972863755
aF51.949247544362436
aa(lp1823
F-164.4417600348771
aF51.936184795860854
aa(lp1824
F-164.4287560183781
aF51.35840944412899
aa(lp1825
F-164.44193344503321
aF51.34523201747389
aa(lp1826
F-164.4285558806289
aF50.76243554574966
aa(lp1827
F-164.44184666770585
aF50.74914475867273
aa(lp1828
F-164.42805218055457
aF50.16138544611764
aa(lp1829
F-164.4414549989857
aF50.14798262768651
aa(lp1830
F-164.42719985245975
aF49.555319249742006
aa(lp1831
F-164.4407133619744
aF49.54180574022737
aa(lp1832
F-164.43957631241972
aF48.930674713478915
aa(lp1833
F-164.43799804439837
aF48.31465066003452
aa(lp1834
F-164.4359323960442
aF47.693795181786214
aa(lp1835
F-164.43333285532248
aF47.068170363764416
aa(lp1836
F-164.43015256584897
aF46.4378387679296
aa(lp1837
F-161.40031773582143
aF-78.41470034490527
aa(lp1838
F-161.415341525837
aF-78.42972413492082
aa(lp1839
F-161.40531606030703
aF-78.41969866939088
aa(lp1840
F-161.41438537131543
aF-77.27043325634442
aa(lp1841
F-161.410597020387
aF-74.95631514628543
aa(lp1842
F-161.39869772298954
aF-70.34992256557624
aa(lp1843
F-161.40782827592685
aF-69.21604868432873
aa(lp1844
F-161.4078539807112
aF-68.07537474461638
aa(lp1845
F-161.40961456574357
aF-66.93876899227187
aa(lp1846
F-161.41459793572528
aF-59.04290363541737
aa(lp1847
F-161.40322870683283
aF-57.91285400470701
aa(lp1848
F-161.397788686292
aF-51.2506381833948
aa(lp1849
F-161.39819601076053
aF-46.86789823811704
aa(lp1850
F-161.40529499411878
aF-41.46068799781565
aa(lp1851
F-161.4128426559167
aF-12.62667191865133
aa(lp1852
F-161.4090333363684
aF16.74350617304891
aa(lp1853
F-161.41440796599434
aF20.933083151342846
aa(lp1854
F-161.3992336816345
aF28.993726426564635
aa(lp1855
F-161.40716822923648
aF35.08045681449505
aa(lp1856
F-161.41210787409398
aF37.28048399174697
aa(lp1857
F-161.4037593250483
aF44.3131413120448
aa(lp1858
F-161.41161501716263
aF49.555319249742055
aa(lp1859
F-161.3962637878721
aF51.45285486239364
aa(lp1860
F-161.4111621997338
aF60.65761541713497
aa(lp1861
F-161.4038230241569
aF61.718646160687356
aa(lp1862
F-161.39875053162808
aF63.76406246912478
aa(lp1863
F-161.41223043320184
aF64.73703078280288
aa(lp1864
F-161.40375998957163
aF66.1827407080415
aa(lp1865
F-161.4100156869927
aF68.01309630417546
aa(lp1866
F-161.4054959853622
aF68.46245825443557
aa(lp1867
F-161.39870382501832
aF69.34168387402129
aa(lp1868
F-161.40486813025586
aF69.76308896860493
aa(lp1869
F-161.39952715950145
aF71.42081094641077
aa(lp1870
F-161.40675177858543
aF71.41358632732678
aa(lp1871
F-161.39999692018438
aF72.21164965873837
aa(lp1872
F-161.40682288748934
aF72.2048236914334
aa(lp1873
F-161.40829545841586
aF74.43680588696087
aa(lp1874
F-161.41381831708014
aF74.4312830282966
aa(lp1875
F-161.40064058680943
aF74.79611981736753
aa(lp1876
F-161.3983867612456
aF75.14412779502335
aa(lp1877
F-161.40235270569445
aF75.48000245212253
aa(lp1878
F-161.40712649687984
aF75.47522866093716
aa(lp1879
F-161.40651776653175
aF76.4597936731549
aa(lp1880
F-161.41044799123623
aF76.45586344845043
aa(lp1881
F-161.41365236440598
aF77.38309644056743
aa(lp1882
F-161.40919786786958
aF77.68576710216745
aa(lp1883
F-161.41167262599959
aF77.68329234403743
aa(lp1884
F-161.40233380827587
aF77.98486996515338
aa(lp1885
F-161.40429006006735
aF77.9829137133619
aa(lp1886
F-161.39899218712947
aF78.27446572206577
aa(lp1887
F-161.40025443947593
aF78.27320346971932
aa(lp1888
F-161.4022277637826
aF77.93988668810947
aa(lp1889
F-161.40427056817725
aF77.93784388371482
aa(lp1890
F-161.41262072607643
aF77.03206386262059
aa(lp1891
F-161.40292183546308
aF76.09068384193738
aa(lp1892
F-161.4071907842634
aF76.08641489313705
aa(lp1893
F-161.40953965643013
aF73.65747124834057
aa(lp1894
F-161.41472833882995
aF71.74253101936422
aa(lp1895
F-161.39604349404027
aF69.70574862007493
aa(lp1896
F-161.40405162490447
aF69.69774048921076
aa(lp1897
F-161.39783224274166
aF68.4012666190147
aa(lp1898
F-161.40637703680284
aF68.39272182495351
aa(lp1899
F-161.40701773004878
aF64.6662910982842
aa(lp1900
F-161.39991066687884
aF61.64136249867925
aa(lp1901
F-161.41069756410477
aF61.63057560145332
aa(lp1902
F-161.40375193669362
aF57.28307032964905
aa(lp1903
F-161.407416686959
aF51.34523201747389
aa(lp1904
F-158.36615893990336
aF-77.70340589526114
aa(lp1905
F-158.3690803917696
aF-74.2251282767985
aa(lp1906
F-158.36595276302427
aF-68.46245825443252
aa(lp1907
F-158.36058221611057
aF-65.0281029800157
aa(lp1908
F-158.36235958955422
aF-57.111904978089825
aa(lp1909
F-158.37795060818627
aF-51.54716976817467
aa(lp1910
F-158.36324225549316
aF-48.216091752595915
aa(lp1911
F-158.3640804676856
aF-46.019739159659785
aa(lp1912
F-158.36579430005895
aF-38.42118730375579
aa(lp1913
F-158.36055372239358
aF-28.86133707729737
aa(lp1914
F-158.36569458614719
aF-10.56264760785257
aa(lp1915
F-158.37589643478822
aF-6.662770146329544
aa(lp1916
F-158.37375315435884
aF-0.9097710761154169
aa(lp1917
F-158.367155684147
aF4.705975228510644
aa(lp1918
F-158.3722589710937
aF6.538221554875577
aa(lp1919
F-158.37859206583235
aF7.444390594443819
aa(lp1920
F-158.36461795184954
aF9.270909570383944
aa(lp1921
F-158.36183742355928
aF10.173687512797343
aa(lp1922
F-158.3771989515126
aF15.469049411906946
aa(lp1923
F-158.36131066617054
aF22.3217299198556
aa(lp1924
F-158.3749222445548
aF30.446388040061084
aa(lp1925
F-158.3727227500825
aF48.01860728117921
aa(lp1926
F-158.37701624541796
aF49.34767652497159
aa(lp1927
F-158.37972255781116
aF51.949247544362464
aa(lp1928
F-158.36145105201928
aF55.104440739588625
aa(lp1929
F-158.37641922994027
aF58.09298501734684
aa(lp1930
F-158.36702323516627
aF60.40787208715605
aa(lp1931
F-158.3780331667025
aF67.28082467152274
aa(lp1932
F-158.36424100415928
aF68.26976986987307
aa(lp1933
F-158.37045201328144
aF69.21604868433168
aa(lp1934
F-158.37597056804435
aF72.36441713099524
aa(lp1935
F-158.36261120384052
aF72.80534589502031
aa(lp1936
F-158.36047849103218
aF74.05546965177695
aa(lp1937
F-158.36624862826022
aF74.04969951454889
aa(lp1938
F-158.36199325633078
aF78.18052129993818
aa(lp1939
F-158.36351605483145
aF78.17899850143752
aa(lp1940
F-158.37928751231118
aF78.45056570898207
aa(lp1941
F-158.36952209487083
aF78.46033112642239
aa(lp1942
F-158.36171818162222
aF78.46813503967103
aa(lp1943
F-158.3620231147358
aF78.46783010655746
aa(lp1944
F-158.36991413866247
aF78.45993908263078
aa(lp1945
F-158.36113954082666
aF74.79611981736753
aa(lp1946
F-158.3782879153456
aF71.42081094641077
aa(lp1947
F-158.36438651722636
aF69.14880953791581
aa(lp1948
F-158.36563522459335
aF67.21639141246544
aa(lp1949
F-158.37463170992862
aF67.20739492713014
aa(lp1950
F-158.3749820672739
aF64.6662910982842
aa(lp1951
F-158.3791735565694
aF63.070633368255734
aa(lp1952
F-158.37848536182796
aF56.210952264844266
aa(lp1953
F-155.32013387448535
aF-78.15672867931363
aa(lp1954
F-155.33136792382186
aF-78.16796272865017
aa(lp1955
F-155.33652876378937
aF-77.00470627350693
aa(lp1956
F-155.32447649647708
aF-75.82619500256634
aa(lp1957
F-155.33892943767336
aF-64.29015428025998
aa(lp1958
F-155.33671524182307
aF-63.14493565022487
aa(lp1959
F-155.3376064344165
aF-59.73075628978692
aa(lp1960
F-155.33718417531907
aF-57.46552372749711
aa(lp1961
F-155.33278737852098
aF-51.842412676395085
aa(lp1962
F-155.33931919615634
aF-44.09218270438579
aa(lp1963
F-155.3225814732146
aF-40.792283700571055
aa(lp1964
F-155.33578979244234
aF-12.50329285508187
aa(lp1965
F-155.33996631598842
aF-1.6944597749897254
aa(lp1966
F-155.3380528051146
aF1.1771558555005415
aa(lp1967
F-155.33899069538
aF5.880483426768621
aa(lp1968
F-155.33527607171058
aF22.81726343770678
aa(lp1969
F-155.3360444771905
aF29.47388105194695
aa(lp1970
F-155.3268416216307
aF46.23608060331165
aa(lp1971
F-155.33444158225163
aF48.32838148676332
aa(lp1972
F-155.3302692743926
aF51.061060756869125
aa(lp1973
F-155.33544407688703
aF54.35030364725764
aa(lp1974
F-155.3352848042868
aF61.71864616068734
aa(lp1975
F-155.33890830615638
aF65.10772794501631
aa(lp1976
F-155.33930043110684
aF70.80996078489787
aa(lp1977
F-155.32445409885702
aF71.30955677517537
aa(lp1978
F-155.32599378728042
aF72.2605069103327
aa(lp1979
F-155.3210790458827
aF73.65145513080525
aa(lp1980
F-155.325952654731
aF77.89295491795772
aa(lp1981
F-155.3280819606588
aF77.89082561202991
aa(lp1982
F-155.33718085685695
aF78.27446572206577
aa(lp1983
F-155.3384431092034
aF78.27320346971932
aa(lp1984
F-155.33711472362785
aF78.2137917089915
aa(lp1985
F-155.33855070858624
aF78.2123557240331
aa(lp1986
F-155.32042457558114
aF77.03206386262059
aa(lp1987
F-155.3237583322616
aF77.02873010594011
aa(lp1988
F-155.33866188205133
aF76.18582058094056
aa(lp1989
F-155.3250932404511
aF74.91399628928647
aa(lp1990
F-155.32386241583947
aF72.65793626908382
aa(lp1991
F-155.32487150808953
aF70.74843732024345
aa(lp1992
F-155.32195226293848
aF61.64136249867925
aa(lp1993
F-155.3327391601644
aF61.63057560145332
aa(lp1994
F-155.32510034148913
aF54.26006812482696
aa(lp1995
F-155.3376914313666
aF54.24747703494949
aa(lp1996
F-152.28842854778213
aF-77.46761592756634
aa(lp1997
F-152.29646707628626
aF-71.63371403164405
aa(lp1998
F-152.2932466564858
aF-70.46803862573705
aa(lp1999
F-152.28143262378475
aF-68.13748050881367
aa(lp2000
F-152.28008553907733
aF-65.82580366497567
aa(lp2001
F-152.27958384765986
aF-61.23080869024651
aa(lp2002
F-152.2929654315023
aF-58.96048619540743
aa(lp2003
F-152.27669260716812
aF-34.48900238747943
aa(lp2004
F-152.29536366870673
aF-33.42772921837568
aa(lp2005
F-152.2892760698385
aF-30.199746657666992
aa(lp2006
F-152.28253791122765
aF-11.463431231134631
aa(lp2007
F-152.28882656105824
aF0.3923983650059737
aa(lp2008
F-152.2960269775128
aF7.053668541063679
aa(lp2009
F-152.28207570120728
aF13.540906959068902
aa(lp2010
F-152.29521527736898
aF14.436123951284241
aa(lp2011
F-152.2956100268359
aF18.914537403494403
aa(lp2012
F-152.27800823646675
aF21.56824012695281
aa(lp2013
F-152.29238636192366
aF34.136095117052214
aa(lp2014
F-152.28502126551757
aF38.88663382650824
aa(lp2015
F-152.2776997875401
aF44.20992525619149
aa(lp2016
F-152.28147923503911
aF56.75580397830461
aa(lp2017
F-152.2767572553492
aF67.61812473638317
aa(lp2018
F-152.2821109072511
aF73.37674693097416
aa(lp2019
F-152.27914617703377
aF78.02790362450988
aa(lp2020
F-152.2810158273159
aF78.02603397422773
aa(lp2021
F-152.28982199005753
aF78.45056570898207
aa(lp2022
F-152.28005657261724
aF78.46033112642239
aa(lp2023
F-152.28044861640882
aF78.45993908263078
aa(lp2024
F-152.29030113472612
aF78.45008656431351
aa(lp2025
F-152.2814296170439
aF78.39189461542824
aa(lp2026
F-152.28225702366404
aF78.39106720880811
aa(lp2027
F-152.289119455275
aF77.50997940648132
aa(lp2028
F-152.2918526604965
aF77.50724620125985
aa(lp2029
F-152.2906599332112
aF75.69113875171202
aa(lp2030
F-152.29526589858477
aF75.68653278633845
aa(lp2031
F-152.28132554421677
aF73.79198328411618
aa(lp2032
F-152.28725981598956
aF73.7860490123434
aa(lp2033
F-152.27975901184737
aF72.80534589502028
aa(lp2034
F-152.2852955438513
aF70.75597762170676
aa(lp2035
F-152.29283584531458
aF70.74843732024345
aa(lp2036
F-152.27757806108698
aF70.23876483377589
aa(lp2037
F-152.28535315193207
aF70.2309897429308
aa(lp2038
F-152.28010110710972
aF69.70574862007497
aa(lp2039
F-152.28810923797394
aF69.69774048921076
aa(lp2040
F-152.29275801782165
aF69.15704890700344
aa(lp2041
F-152.2940214059455
aF66.3928008603971
aa(lp2042
F-152.29018830765264
aF57.29498015866342
aa(lp2043
F-149.24739515984965
aF-77.9544267768921
aa(lp2044
F-149.23960772864453
aF-76.76886970229617
aa(lp2045
F-149.23544853875094
aF-66.2498311478347
aa(lp2046
F-149.2435534930784
aF-60.4875872159885
aa(lp2047
F-149.23959253842514
aF-46.86789823811714
aa(lp2048
F-149.2429155947614
aF-44.636447744794985
aa(lp2049
F-149.2361124663736
aF-11.4634312311346
aa(lp2050
F-149.24152462589805
aF5.364422400374024
aa(lp2051
F-149.23871546854903
aF8.225266609694422
aa(lp2052
F-149.2403925601043
aF19.29513237625237
aa(lp2053
F-149.2481893630349
aF55.104440739588654
aa(lp2054
F-149.23281646593745
aF56.484084171155665
aa(lp2055
F-149.2321727641771
aF57.82842688875203
aa(lp2056
F-149.24696405941032
aF59.136628721939466
aa(lp2057
F-149.24828810621742
aF61.718646160687335
aa(lp2058
F-149.23661062831084
aF62.36301364095615
aa(lp2059
F-149.2413192865971
aF63.60779936366867
aa(lp2060
F-149.2475041152772
aF64.21838767633075
aa(lp2061
F-149.2454875011233
aF66.03864288772492
aa(lp2062
F-149.23747274073307
aF67.81645822424107
aa(lp2063
F-149.23176472667717
aF68.40126661901475
aa(lp2064
F-149.23600589459625
aF68.97068501736483
aa(lp2065
F-149.2346611719446
aF74.91918751989147
aa(lp2066
F-149.23985240254962
aF74.91399628928646
aa(lp2067
F-149.23570197798932
aF78.35079871962382
aa(lp2068
F-149.23670340018015
aF78.34979729743303
aa(lp2069
F-149.23873033307632
aF78.27446572206577
aa(lp2070
F-149.23999258542278
aF78.27320346971932
aa(lp2071
F-149.2456549671284
aF77.79325064018084
aa(lp2072
F-149.24795711426373
aF77.79094849304552
aa(lp2073
F-149.2421869062396
aF77.31675229242153
aa(lp2074
F-149.24517794359286
aF77.31376125506824
aa(lp2075
F-149.24907688185556
aF74.31155053418527
aa(lp2076
F-149.23815726608672
aF72.21164965873837
aa(lp2077
F-149.2449832333917
aF72.20482369143338
aa(lp2078
F-149.2307976153902
aF70.5777177963782
aa(lp2079
F-149.22940551614312
aF65.96158591023539
aa(lp2080
F-149.2374157323252
aF61.63057560145332
aa(lp2081
F-146.1788076634989
aF-78.42972413492083
aa(lp2082
F-146.19187071449596
aF-78.44278718591788
aa(lp2083
F-146.1956198952755
aF-78.44653636669744
aa(lp2084
F-146.18318147080396
aF-78.43409794222589
aa(lp2085
F-146.182474677497
aF-71.36166205728114
aa(lp2086
F-146.19364020121367
aF-69.03023500604186
aa(lp2087
F-146.1869658400766
aF-64.36175780932777
aa(lp2088
F-146.18083996437423
aF-62.03688784940308
aa(lp2089
F-146.18503816388875
aF-59.73075628978699
aa(lp2090
F-146.1852683915946
aF-49.44480384208114
aa(lp2091
F-146.18246301429554
aF-47.1820534545786
aa(lp2092
F-146.18054627658728
aF-30.561551504378905
aa(lp2093
F-146.17868235486554
aF-29.473881051939877
aa(lp2094
F-146.19635085716703
aF-25.17776992381948
aa(lp2095
F-146.18789527590823
aF-2.3540468558879075
aa(lp2096
F-146.19547122391216
aF13.15422429466438
aa(lp2097
F-146.17869272969097
aF26.793172287767014
aa(lp2098
F-146.19403819854003
aF34.48900238748619
aa(lp2099
F-146.1863462377044
aF40.24213524127155
aa(lp2100
F-146.18303485200772
aF44.20992525619152
aa(lp2101
F-146.18746786945047
aF49.555319249742084
aa(lp2102
F-146.17976981568532
aF55.3831524092571
aa(lp2103
F-146.18328096340977
aF62.200311817940026
aa(lp2104
F-146.18838140431842
aF66.03864288772492
aa(lp2105
F-146.18188494747557
aF66.66723370279024
aa(lp2106
F-146.1850671200852
aF67.28082467152272
aa(lp2107
F-146.1980505582303
aF67.87927773854295
aa(lp2108
F-146.19120290498648
aF73.14642746670862
aa(lp2109
F-146.19436450781131
aF73.70051748392106
aa(lp2110
F-146.19148520134024
aF74.80139415484813
aa(lp2111
F-146.19675953882083
aF74.79611981736753
aa(lp2112
F-146.17850929533583
aF75.89026832153299
aa(lp2113
F-146.19344842911408
aF77.4475060153327
aa(lp2114
F-146.19626764957604
aF77.44468679487073
aa(lp2115
F-146.19300406501173
aF78.46813503967103
aa(lp2116
F-146.18716185105222
aF78.47397725363054
aa(lp2117
F-146.18328148243685
aF78.4778576222459
aa(lp2118
F-146.18136305617466
aF78.4797760485081
aa(lp2119
F-146.1814066202262
aF78.47973248445656
aa(lp2120
F-146.18341217350238
aF78.47772693118038
aa(lp2121
F-146.18737966586443
aF78.47375943881832
aa(lp2122
F-146.1933089981253
aF78.46783010655746
aa(lp2123
F-146.19066144534878
aF78.39189461542824
aa(lp2124
F-146.19148885196893
aF78.39106720880811
aa(lp2125
F-146.1814377445242
aF77.89295491795772
aa(lp2126
F-146.18356705045204
aF77.8908256120299
aa(lp2127
F-146.1804361406955
aF77.38019127534533
aa(lp2128
F-146.191979929679
aF75.79386979750569
aa(lp2129
F-146.19650180837368
aF75.78934791881102
aa(lp2130
F-146.1884887096374
aF75.26131821518767
aa(lp2131
F-146.19342984925947
aF75.2563770755656
aa(lp2132
F-146.18237661466833
aF74.1787495439674
aa(lp2133
F-146.18817100765744
aF68.40126661901475
aa(lp2134
F-146.1967158017187
aF68.39272182495348
aa(lp2135
F-146.1851543533499
aF65.31634886573691
aa(lp2136
F-143.13547628359373
aF-77.7575004974034
aa(lp2137
F-143.1391308324075
aF-76.57476912223535
aa(lp2138
F-143.13647208917243
aF-71.84350370621486
aa(lp2139
F-143.13582623280104
aF-67.14276741385098
aa(lp2140
F-143.13942874921295
aF-64.8076062589304
aa(lp2141
F-143.13412353679334
aF-61.30891550604452
aa(lp2142
F-143.1356022259518
aF-43.008918559422725
aa(lp2143
F-143.13116653195704
aF-35.192221457449584
aa(lp2144
F-143.137032815081
aF-23.192425818777757
aa(lp2145
F-143.14304908913306
aF-21.05351967696145
aa(lp2146
F-143.12970635188142
aF-1.3021317021648688
aa(lp2147
F-143.12534020122484
aF22.697642459051412
aa(lp2148
F-143.13467819858928
aF29.837186818868716
aa(lp2149
F-143.1286339789697
aF33.31460064506576
aa(lp2150
F-143.13819439175586
aF54.824351461771734
aa(lp2151
F-143.13132297237908
aF59.136628721939466
aa(lp2152
F-143.13716601483145
aF68.46245825443556
aa(lp2153
F-143.14337003019085
aF69.70574862007497
aa(lp2154
F-143.12928044082116
aF73.92465052415302
aa(lp2155
F-143.13505258754398
aF75.0716383244171
aa(lp2156
F-143.1298839587512
aF77.31675229242153
aa(lp2157
F-143.1328749961045
aF77.31376125506824
aa(lp2158
F-143.1417030353019
aF78.39189461542824
aa(lp2159
F-143.12409453272022
aF78.40950311800992
aa(lp2160
F-143.1248348994396
aF78.40876275129054
aa(lp2161
F-143.14253044192205
aF78.39106720880811
aa(lp2162
F-143.12358296453903
aF78.32622396028601
aa(lp2163
F-143.13504460612438
aF73.24290022461348
aa(lp2164
F-143.14130535036594
aF73.23663948037192
aa(lp2165
F-143.12922919342316
aF72.65793626908382
aa(lp2166
F-143.1339145273774
aF72.05707689900103
aa(lp2167
F-143.1408205743308
aF72.05017085204764
aa(lp2168
F-143.13148619212262
aF70.23876483377589
aa(lp2169
F-143.13926128296777
aF70.23098974293076
aa(lp2170
F-140.07316659812915
aF-78.26403641791354
aa(lp2171
F-140.07980110966642
aF-77.07947080896102
aa(lp2172
F-140.0769136304075
aF-71.14480200698308
aa(lp2173
F-140.06778662212918
aF-65.2469740019133
aa(lp2174
F-140.07453815572825
aF-62.91113296055644
aa(lp2175
F-140.065430409253
aF-60.56714891534215
aa(lp2176
F-140.07048497243613
aF-45.59963939896433
aa(lp2177
F-140.07707207478626
aF-43.33660752527279
aa(lp2178
F-140.0784067516541
aF-36.5880320495281
aa(lp2179
F-140.08184383280872
aF-31.037432991810533
aa(lp2180
F-140.07940954558657
aF-25.549111772942958
aa(lp2181
F-140.07115268647593
aF-7.444390594436014
aa(lp2182
F-140.069902983963
aF5.755835941380258
aa(lp2183
F-140.07645786584158
aF17.38752421240191
aa(lp2184
F-140.08309258963976
aF22.065236777657965
aa(lp2185
F-140.07330713454664
aF29.358001836587725
aa(lp2186
F-140.07549985989422
aF53.40348722364523
aa(lp2187
F-140.07933804196716
aF54.91371759320331
aa(lp2188
F-140.0823076161927
aF55.66047950299985
aa(lp2189
F-140.07485413373524
aF58.617737732105795
aa(lp2190
F-140.06763987637854
aF62.200311817940026
aa(lp2191
F-140.07928414775535
aF64.95804418336766
aa(lp2192
F-140.06659819597897
aF68.97068501736486
aa(lp2193
F-140.08296550482362
aF73.38292628678437
aa(lp2194
F-140.08429892537373
aF74.59911395450735
aa(lp2195
F-140.0651634151612
aF77.56786793053075
aa(lp2196
F-140.07265067882926
aF72.05707689900103
aa(lp2197
F-140.07955672578265
aF72.05017085204764
aa(lp2198
F-140.080692272676
aF71.42081094641078
aa(lp2199
F-140.06866857681143
aF69.51649988950459
aa(lp2200
F-140.073353196416
aF68.20803406024461
aa(lp2201
F-140.08197381743128
aF68.19941343922933
aa(lp2202
F-140.06881932847813
aF65.54265407321012
aa(lp2203
F-140.07840540549552
aF65.53306799619276
aa(lp2204
F-137.01151443130414
aF-77.58939034860241
aa(lp2205
F-137.01545166693836
aF-76.39906683224778
aa(lp2206
F-137.00853450834677
aF-74.0082042076413
aa(lp2207
F-137.01168981783448
aF-71.6337140316441
aa(lp2208
F-137.00748636804096
aF-68.0753747446165
aa(lp2209
F-137.02112443815213
aF-62.20031181793617
aa(lp2210
F-137.0185768495942
aF-55.193368818845336
aa(lp2211
F-137.0124859685127
aF-50.55820409441089
aa(lp2212
F-137.00574591201843
aF-23.567008390418746
aa(lp2213
F-137.01185938147972
aF-11.727904636523977
aa(lp2214
F-137.02158164454576
aF3.7975250355473986
aa(lp2215
F-137.01424109361767
aF14.698885194841154
aa(lp2216
F-137.01893334110045
aF26.054197571557328
aa(lp2217
F-137.0138928615352
aF27.896587664434183
aa(lp2218
F-137.00979593055942
aF29.721543298093895
aa(lp2219
F-137.00760100168648
aF31.527923934670298
aa(lp2220
F-137.00825658694657
aF33.31460064506576
aa(lp2221
F-137.0127005693848
aF35.08045681449512
aa(lp2222
F-137.0218595230861
aF36.82438884033358
aa(lp2223
F-137.01982750782855
aF43.66321307819768
aa(lp2224
F-137.01214070770874
aF59.47548433602293
aa(lp2225
F-137.0160048771374
aF63.836848815871384
aa(lp2226
F-137.02122674256486
aF72.66452098157991
aa(lp2227
F-137.02292364769806
aF75.8261950025678
aa(lp2228
F-137.00609811845305
aF76.45979367315493
aa(lp2229
F-137.01002834315756
aF76.45586344845043
aa(lp2230
F-137.0096646667825
aF78.27446572206577
aa(lp2231
F-137.01092691912896
aF78.2732034697193
aa(lp2232
F-137.01047012644025
aF78.18052129993818
aa(lp2233
F-137.01199292494093
aF78.17899850143752
aa(lp2234
F-137.01892257449038
aF77.57051505218175
aa(lp2235
F-137.02156969614137
aF77.56786793053075
aa(lp2236
F-137.00388828079923
aF76.36636274509928
aa(lp2237
F-137.0186842520063
aF68.59278914968196
aa(lp2238
F-133.9507204625132
aF-78.1201723250486
aa(lp2239
F-133.9571924467044
aF-76.92801662440655
aa(lp2240
F-133.95044502662768
aF-75.72406724592193
aa(lp2241
F-133.94870216987192
aF-73.33231733518134
aa(lp2242
F-133.95304438482123
aF-69.76308896860219
aa(lp2243
F-133.95026523493823
aF-63.83684881586778
aa(lp2244
F-133.94623389391097
aF-61.475495867562465
aa(lp2245
F-133.9386828016069
aF-54.440401307695936
aa(lp2246
F-133.93844272624602
aF-50.95282533532959
aa(lp2247
F-133.94931099626302
aF-47.495029122161164
aa(lp2248
F-133.94323760463755
aF-46.33701845358361
aa(lp2249
F-133.95341166336746
aF-34.95300210365045
aa(lp2250
F-133.94656049493454
aF-19.416262722290806
aa(lp2251
F-133.95341919035815
aF-17.24861788743235
aa(lp2252
F-133.94100705671335
aF-11.851477644541639
aa(lp2253
F-133.93930637550557
aF-5.489114659045596
aa(lp2254
F-133.93823771665805
aF-4.439021071561654
aa(lp2255
F-133.94157479261108
aF-2.3540468558879426
aa(lp2256
F-133.9513540591554
aF8.881142878205248
aa(lp2257
F-133.94317285965045
aF17.769953428808446
aa(lp2258
F-133.94058225844134
aF27.278891863707425
aa(lp2259
F-133.94150051670212
aF39.9047478467176
aa(lp2260
F-133.94261425322594
aF44.209925256191546
aa(lp2261
F-133.95223058718113
aF50.8576949419565
aa(lp2262
F-133.94902580728643
aF55.66047950299988
aa(lp2263
F-133.95556108303828
aF64.73703078280283
aa(lp2264
F-133.95502314215224
aF66.18274070804158
aa(lp2265
F-133.94479748855932
aF67.61812473638317
aa(lp2266
F-133.95707444894003
aF69.70574862007498
aa(lp2267
F-133.93969924988897
aF70.41293085273469
aa(lp2268
F-133.9453794792432
aF71.09194885187985
aa(lp2269
F-133.946786894389
aF74.43680588696087
aa(lp2270
F-133.93820416096474
aF77.02873010594008
aa(lp2271
F-133.9525585699776
aF78.27446572206577
aa(lp2272
F-133.95382082232408
aF78.2732034697193
aa(lp2273
F-133.94920627789213
aF78.18052129993818
aa(lp2274
F-133.95072907639278
aF78.17899850143752
aa(lp2275
F-133.95015508127227
aF76.27905267839724
aa(lp2276
F-133.95425487301256
aF76.27495288665695
aa(lp2277
F-130.87596018477205
aF-76.24543549293621
aa(lp2278
F-130.87960803924545
aF-67.87927773853993
aa(lp2279
F-130.87052683971993
aF-44.41624496561805
aa(lp2280
F-130.88091253790088
aF-42.124946260810844
aa(lp2281
F-130.87655966655916
aF-34.13609511704562
aa(lp2282
F-130.88642971694114
aF-27.39605501481508
aa(lp2283
F-130.87577161384849
aF-22.936826539340924
aa(lp2284
F-130.87799640727047
aF-14.17319510434468
aa(lp2285
F-130.8850131231694
aF-6.662770146329614
aa(lp2286
F-130.86980010434786
aF5.880483426768552
aa(lp2287
F-130.87623101243335
aF10.951343637283278
aa(lp2288
F-130.8753386937662
aF24.687183677156085
aa(lp2289
F-130.87935119544565
aF27.529467709075526
aa(lp2290
F-130.8869768475419
aF34.02350367842754
aa(lp2291
F-130.886002149302
aF38.54530682183247
aa(lp2292
F-130.88311135834797
aF48.11741054287727
aa(lp2293
F-130.87842651488756
aF53.11528053660495
aa(lp2294
F-130.8785332264415
aF62.600453857098024
aa(lp2295
F-130.87630624316165
aF65.61131880057006
aa(lp2296
F-130.88457626359968
aF67.07796958992797
aa(lp2297
F-130.8761336416
aF67.8164582242411
aa(lp2298
F-130.87778257291063
aF74.83911806418256
aa(lp2299
F-130.87719499132294
aF75.51413503993889
aa(lp2300
F-130.87477907198866
aF76.18582058094057
aa(lp2301
F-130.8736133748685
aF77.50997940648134
aa(lp2302
F-130.87634658009
aF77.50724620125985
aa(lp2303
F-130.8703631887098
aF76.08641489313705
aa(lp2304
F-130.8756325552739
aF74.05546965177697
aa(lp2305
F-130.881402692502
aF74.04969951454889
aa(lp2306
F-127.81586298003593
aF-77.99878916054547
aa(lp2307
F-127.80885802669974
aF-69.58248024599399
aa(lp2308
F-127.80793655963593
aF-64.8076062589304
aa(lp2309
F-127.79775477988407
aF-63.607799363665045
aa(lp2310
F-127.81679092664207
aF-62.438815140451666
aa(lp2311
F-127.81414020307672
aF-60.065056674498535
aa(lp2312
F-127.80378061461471
aF-54.157084709551555
aa(lp2313
F-127.81714386445674
aF-50.653738669284856
aa(lp2314
F-127.8071651931632
aF-43.663213078191916
aa(lp2315
F-127.80879207405351
aF-41.35451019995164
aa(lp2316
F-127.80259116873344
aF-25.430896868425304
aa(lp2317
F-127.80477136406432
aF-24.314396661938275
aa(lp2318
F-127.79889366874448
aF-23.192425818777906
aa(lp2319
F-127.80772852741747
aF-13.277430754773754
aa(lp2320
F-127.80588277072317
aF-6.787301837375514
aa(lp2321
F-127.7987648707093
aF2.7462392293521125
aa(lp2322
F-127.81487635916925
aF11.992241880967878
aa(lp2323
F-127.81277473850517
aF26.793172287767046
aa(lp2324
F-127.80628713870811
aF48.63694748532741
aa(lp2325
F-127.80115974908679
aF52.04286954022167
aa(lp2326
F-127.80459953931364
aF54.54289157802374
aa(lp2327
F-127.8107437468702
aF58.617737732105816
aa(lp2328
F-127.80533205068319
aF76.54729805194047
aa(lp2329
F-127.8127270665689
aF78.47397725363054
aa(lp2330
F-127.80884669795353
aF78.4778576222459
aa(lp2331
F-127.80692827169133
aF78.4797760485081
aa(lp2332
F-127.80697183574287
aF78.47973248445655
aa(lp2333
F-127.80897738901905
aF78.47772693118038
aa(lp2334
F-127.8129448813811
aF78.47375943881832
aa(lp2335
F-124.74085022817685
aF-77.33809480949373
aa(lp2336
F-124.73171664055822
aF-76.12119439120919
aa(lp2337
F-124.72289744930025
aF-73.70051748391914
aa(lp2338
F-124.73869226110807
aF-71.30955677517295
aa(lp2339
F-124.73316780163417
aF-68.90261966416949
aa(lp2340
F-124.7413119505441
aF-58.176950240371845
aa(lp2341
F-124.72803908157636
aF-48.73498026262611
aa(lp2342
F-124.72993183755275
aF-31.39745260145762
aa(lp2343
F-124.72692102120823
aF-1.5694953620888963
aa(lp2344
F-124.73963068267612
aF-0.5173877058362716
aa(lp2345
F-124.74139370704452
aF14.050240922462175
aa(lp2346
F-124.7229623852077
aF15.084155854929488
aa(lp2347
F-124.73005941992693
aF23.07298755836792
aa(lp2348
F-124.7393458752385
aF33.669473029282756
aa(lp2349
F-124.74206523743379
aF36.477408884715
aa(lp2350
F-124.7312141482415
aF42.904313373992146
aa(lp2351
F-124.7232178330424
aF45.59963939897
aa(lp2352
F-124.724259921038
aF50.857694941956495
aa(lp2353
F-124.74045377639824
aF54.260068124827065
aa(lp2354
F-124.7395885497198
aF55.104440739588696
aa(lp2355
F-124.73329668543943
aF58.43959205531468
aa(lp2356
F-124.72503382721465
aF63.30336090880848
aa(lp2357
F-124.72917938196662
aF67.21639141246551
aa(lp2358
F-124.72607069024093
aF73.96652117560022
aa(lp2359
F-124.73593981485966
aF74.68173075884685
aa(lp2360
F-124.7314280113008
aF75.40633583889306
aa(lp2361
F-124.73165930179832
aF76.1211943912105
aa(lp2362
F-124.73896259860405
aF76.82395962633846
aa(lp2363
F-124.73847943984924
aF77.52947225446938
aa(lp2364
F-124.72281769811147
aF78.24510677732573
aa(lp2365
F-124.72416683362806
aF78.24375764180913
aa(lp2366
F-121.64790532405384
aF-77.87543987205893
aa(lp2367
F-121.65962772824955
aF-73.0491054789005
aa(lp2368
F-121.66057752570535
aF-71.8435037062148
aa(lp2369
F-121.66226266739159
aF-70.63988270201048
aa(lp2370
F-121.6563518024405
aF-65.82580366497582
aa(lp2371
F-121.65547914371616
aF-57.46552372749701
aa(lp2372
F-121.65244731674136
aF-52.720335693316756
aa(lp2373
F-121.66058618724514
aF-51.54716976817456
aa(lp2374
F-121.64635404536934
aF-50.35338566241154
aa(lp2375
F-121.65143371634363
aF-36.35125047173775
aa(lp2376
F-121.64650333155176
aF-35.19222145744979
aa(lp2377
F-121.660181785017
aF-31.756687276424955
aa(lp2378
F-121.65242691776356
aF-14.82164607775169
aa(lp2379
F-121.66400413128655
aF-8.225266609686711
aa(lp2380
F-121.66429010664976
aF7.834926538446721
aa(lp2381
F-121.66386122185621
aF8.881142878205315
aa(lp2382
F-121.65517984283238
aF18.151938397304843
aa(lp2383
F-121.65189293721711
aF20.17568171249962
aa(lp2384
F-121.64446618488104
aF32.001040356117926
aa(lp2385
F-121.64705162870442
aF32.95889539756789
aa(lp2386
F-121.65311128660302
aF39.56636283554584
aa(lp2387
F-121.6548281805884
aF49.55531924974214
aa(lp2388
F-121.6470697894721
aF69.52458530255392
aa(lp2389
F-121.65113794226113
aF70.29443285217103
aa(lp2390
F-121.64603618553531
aF74.09675093365738
aa(lp2391
F-121.64850697954921
aF74.83911806418256
aa(lp2392
F-121.65419623539816
aF76.30834961812954
aa(lp2393
F-121.66052800322058
aF77.03206386262062
aa(lp2394
F-121.66017007630245
aF77.75750049740411
aa(lp2395
F-121.66378659656337
aF78.47397725363054
aa(lp2396
F-121.659906227948
aF78.4778576222459
aa(lp2397
F-121.6579878016858
aF78.4797760485081
aa(lp2398
F-121.65803136573736
aF78.47973248445655
aa(lp2399
F-121.66003691901352
aF78.47772693118038
aa(lp2400
F-121.66400441137559
aF78.47375943881832
aa(lp2401
F-118.57511405116155
aF-78.4427871859179
aa(lp2402
F-118.5788632319411
aF-78.44653636669744
aa(lp2403
F-118.56642480746955
aF-78.43409794222589
aa(lp2404
F-118.56996728298806
aF-77.22321711066722
aa(lp2405
F-118.56810346733957
aF-67.54572350195845
aa(lp2406
F-118.58145029217638
aF-62.75090215471163
aa(lp2407
F-118.58228962292577
aF-61.55311380062783
aa(lp2408
F-118.57484259716212
aF-47.281874214204315
aa(lp2409
F-118.56940990996638
aF-32.11512803586441
aa(lp2410
F-118.56350549580759
aF-9.519094654809185
aa(lp2411
F-118.57749319656628
aF-4.047195423922497
aa(lp2412
F-118.5724771397505
aF-0.7847869200615497
aa(lp2413
F-118.57622288292856
aF4.581202776190779
aa(lp2414
F-118.57652116957792
aF14.050240922462159
aa(lp2415
F-118.57852473028272
aF15.084155854929522
aa(lp2416
F-118.56504972650377
aF35.08045681449518
aa(lp2417
F-118.57734825173532
aF38.886633826508366
aa(lp2418
F-118.58008687557476
aF49.955438060782114
aa(lp2419
F-118.57361402917806
aF50.857694941956474
aa(lp2420
F-118.57434817568928
aF51.748509056323186
aa(lp2421
F-118.58246745586591
aF52.62767997446462
aa(lp2422
F-118.5773434062475
aF68.65343508110743
aa(lp2423
F-118.5825454508402
aF70.2387648337759
aa(lp2424
F-118.56452016048118
aF77.1782669587115
aa(lp2425
F-118.57950950710165
aF77.90811553663012
aa(lp2426
F-115.4916693743205
aF-76.57476912223541
aa(lp2427
F-115.48459443811888
aF-74.137844265798
aa(lp2428
F-115.48395981193319
aF-66.87343756258407
aa(lp2429
F-115.49689092135883
aF-65.67981710186827
aa(lp2430
F-115.48468295006569
aF-46.55257132664107
aa(lp2431
F-115.49515347836413
aF-45.381737059293556
aa(lp2432
F-115.47965658577158
aF-43.008918559422966
aa(lp2433
F-115.4819823534388
aF-24.433207196025123
aa(lp2434
F-115.48256720493283
aF-16.48215764521571
aa(lp2435
F-115.48270425498924
aF-3.1383629469631518
aa(lp2436
F-115.4927215781918
aF24.314396661945416
aa(lp2437
F-115.49471493413475
aF41.02049372648062
aa(lp2438
F-115.49850577024068
aF54.82435146177179
aa(lp2439
F-115.49015753907779
aF58.35609082434199
aa(lp2440
F-115.49756006398287
aF59.21872549824391
aa(lp2441
F-115.49140498669588
aF67.68148375405826
aa(lp2442
F-115.48824746799065
aF71.74253101936428
aa(lp2443
F-115.48051634031398
aF75.69113875171203
aa(lp2444
F-115.48577712127722
aF76.45979367315493
aa(lp2445
F-115.48019792299353
aF77.99878916054604
aa(lp2446
F-115.49411711838617
aF77.9848699651534
aa(lp2447
F-115.49607337017768
aF77.98291371336188
aa(lp2448
F-112.40363735268116
aF-78.35786854172167
aa(lp2449
F-112.41050841652566
aF-78.36473960556619
aa(lp2450
F-112.39422117245007
aF-77.1293166194544
aa(lp2451
F-112.40958578253988
aF-75.92642710828511
aa(lp2452
F-112.39283377557423
aF-72.2605069103305
aa(lp2453
F-112.40133700003145
aF-56.570788862566644
aa(lp2454
F-112.40604716881504
aF-48.21609175259581
aa(lp2455
F-112.40956093998726
aF-38.76286503492392
aa(lp2456
F-112.4010130958083
aF-13.40060353609114
aa(lp2457
F-112.40317988364274
aF8.61540104970509
aa(lp2458
F-112.39343180881946
aF12.89052293613644
aa(lp2459
F-112.39306570275673
aF18.151938397304843
aa(lp2460
F-112.39800970696103
aF33.42772921838244
aa(lp2461
F-112.39727903647875
aF41.248227504520266
aa(lp2462
F-112.40520407782441
aF57.026104893310176
aa(lp2463
F-112.41000322730099
aF57.91285400471152
aa(lp2464
F-112.39487750844229
aF65.75766200097532
aa(lp2465
F-112.39932070503623
aF66.60120119618914
aa(lp2466
F-112.40553749971515
aF69.94195361762235
aa(lp2467
F-112.41114128839716
aF71.58256576309546
aa(lp2468
F-112.39722699023436
aF72.41269853890338
aa(lp2469
F-112.40834834448142
aF75.62004639154175
aa(lp2470
F-112.40866536389719
aF77.20083994638925
aa(lp2471
F-112.39417094765341
aF77.99878916054604
aa(lp2472
F-112.40809014304605
aF77.9848699651534
aa(lp2473
F-109.30838029441578
aF-77.70340589526121
aa(lp2474
F-109.31365600015197
aF-76.4878740736757
aa(lp2475
F-109.30415930237726
aF-47.49502912216136
aa(lp2476
F-109.30981500769603
aF-34.48900238747986
aa(lp2477
F-109.32172203879094
aF-25.17776992381941
aa(lp2478
F-109.31060564146104
aF-20.554639364370797
aa(lp2479
F-109.31975723088317
aF-19.41626272229105
aa(lp2480
F-109.31844041098125
aF-17.12666081938267
aa(lp2481
F-109.3084299454183
aF-15.975950709322998
aa(lp2482
F-109.3124430784697
aF-4.70597522850292
aa(lp2483
F-109.3097598693104
aF-2.478979029298441
aa(lp2484
F-109.30800403562561
aF15.97595070933036
aa(lp2485
F-109.31775357755998
aF29.473881051946822
aa(lp2486
F-109.31679943811307
aF59.218725498243884
aa(lp2487
F-109.32109190561862
aF65.39519365660824
aa(lp2488
F-109.30984393393967
aF68.84269557547798
aa(lp2489
F-109.30588515740176
aF72.21164965873842
aa(lp2490
F-109.3119762926458
aF74.68173075884687
aa(lp2491
F-109.31317415014067
aF76.30834961812953
aa(lp2492
F-106.22133980809203
aF-78.28340654868595
aa(lp2493
F-106.21688457986923
aF-77.05586506362214
aa(lp2494
F-106.20957175168543
aF-75.82619500256646
aa(lp2495
F-106.22397695019896
aF-68.52347623175177
aa(lp2496
F-106.21128059244683
aF-62.438815140451794
aa(lp2497
F-106.21450547208306
aF-61.23080869024681
aa(lp2498
F-106.2157487842268
aF-55.19336881884556
aa(lp2499
F-106.21602423365546
aF-45.59963939896462
aa(lp2500
F-106.22537514583388
aF-44.41624496561799
aa(lp2501
F-106.21259561516554
aF-37.28048399174082
aa(lp2502
F-106.21826522167378
aF-31.39745260145759
aa(lp2503
F-106.2118648175855
aF-25.54911177294289
aa(lp2504
F-106.22300217222424
aF-12.890522936128935
aa(lp2505
F-106.22121964422786
aF-8.349559196405512
aa(lp2506
F-106.22478529853106
aF3.9223652043665465
aa(lp2507
F-106.22398074417069
aF9.395014028037965
aa(lp2508
F-106.22150663980193
aF41.581540338493035
aa(lp2509
F-106.2109623159756
aF42.57520842129017
aa(lp2510
F-106.21527253071267
aF45.49785375774637
aa(lp2511
F-106.22933967992567
aF46.45188524613887
aa(lp2512
F-106.21484584595095
aF49.34767652497148
aa(lp2513
F-106.2200333862658
aF54.06655501227791
aa(lp2514
F-106.21191427964386
aF55.936415087654076
aa(lp2515
F-106.20970764247402
aF58.700772883495574
aa(lp2516
F-106.22812362703662
aF67.61812473638324
aa(lp2517
F-106.22088333276155
aF75.29665148337864
aa(lp2518
F-106.22629672612707
aF76.12119439121047
aa(lp2519
F-106.21681604837099
aF76.95607269238323
aa(lp2520
F-103.12301797490348
aF-75.18508471549737
aa(lp2521
F-103.12754069184554
aF-73.96652117559844
aa(lp2522
F-103.12903977578011
aF-71.52406537662553
aa(lp2523
F-103.1202147786449
aF-70.29443285216855
aa(lp2524
F-103.11810414429091
aF-62.98577727904712
aa(lp2525
F-103.12728872813942
aF-60.56714891534208
aa(lp2526
F-103.12197024999979
aF-56.9281667283989
aa(lp2527
F-103.1161136894897
aF-53.29903986999902
aa(lp2528
F-103.12013050965545
aF-40.11980020894975
aa(lp2529
F-103.12057695700366
aF-29.47388105194028
aa(lp2530
F-103.116952312164
aF-9.784473076068693
aa(lp2531
F-103.11570191711914
aF12.50329285508951
aa(lp2532
F-103.12690488630295
aF17.89167604704491
aa(lp2533
F-103.12210089762638
aF32.60236617940167
aa(lp2534
F-103.12590567632239
aF49.55531924974217
aa(lp2535
F-103.126489104802
aF58.09298501734693
aa(lp2536
F-103.12353986498492
aF63.60779936366861
aa(lp2537
F-103.12112856239364
aF64.51439895984014
aa(lp2538
F-103.12247236651528
aF68.97068501736486
aa(lp2539
F-103.13371979913137
aF71.58256576309549
aa(lp2540
F-103.11566591688415
aF74.18443739651674
aa(lp2541
F-103.11743160026879
aF75.03510790914886
aa(lp2542
F-103.12746565495343
aF76.71656363435518
aa(lp2543
F-103.11981862467475
aF78.39771619146543
aa(lp2544
F-103.12564020071194
aF78.39189461542824
aa(lp2545
F-100.01939690670955
aF-76.98048711517659
aa(lp2546
F-100.02140986517107
aF-75.75680366263452
aa(lp2547
F-100.02478385168628
aF-70.86376433543916
aa(lp2548
F-100.02357543946803
aF-69.64019869034904
aa(lp2549
F-100.02566354029437
aF-57.465523727496986
aa(lp2550
F-100.03043539314334
aF-52.627679974459966
aa(lp2551
F-100.03322797091973
aF-47.80681741648954
aa(lp2552
F-100.01971732567509
aF-41.79333954496907
aa(lp2553
F-100.0202137895908
aF-21.688391299307874
aa(lp2554
F-100.02670613003777
aF-7.834926538439144
aa(lp2555
F-100.0176474444128
aF2.3540468558955894
aa(lp2556
F-100.02526507377601
aF4.581202776190814
aa(lp2557
F-100.03106471936727
aF11.216071772403762
aa(lp2558
F-100.02742569140892
aF15.591569080799783
aa(lp2559
F-100.01773679088053
aF17.76995342880858
aa(lp2560
F-100.0242926345141
aF22.065236777657848
aa(lp2561
F-100.0267185235409
aF24.195524453299125
aa(lp2562
F-100.02533559314985
aF29.473881051946805
aa(lp2563
F-100.02439591263854
aF32.6023661794017
aa(lp2564
F-100.03112448945973
aF56.484084171155764
aa(lp2565
F-100.02431501457653
aF62.124014352721446
aa(lp2566
F-100.02265990825134
aF64.88782061771829
aa(lp2567
F-100.01740278585056
aF67.61812473638324
aa(lp2568
F-100.03117700612825
aF69.40013196500641
aa(lp2569
F-100.02842437984158
aF70.294432852171
aa(lp2570
F-100.03608048487908
aF72.05707689900109
aa(lp2571
F-100.03455480338003
aF74.68173075884687
aa(lp2572
F-100.02967005705555
aF77.27043325634538
aa(lp2573
F-100.0323671843686
aF78.12017232504908
aa(lp2574
F-96.92327270994033
aF-76.33745299830335
aa(lp2575
F-96.92061572608469
aF-75.10797831710013
aa(lp2576
F-96.91922621668726
aF-59.21872549823998
aa(lp2577
F-96.92614197028622
aF-20.933083151335715
aa(lp2578
F-96.92925858417483
aF-5.880483426760941
aa(lp2579
F-96.92866064862622
aF12.1157501923724
aa(lp2580
F-96.9338894283824
aF14.313247063388685
aa(lp2581
F-96.92237511175685
aF21.945259338574644
aa(lp2582
F-96.92226778178986
aF31.527923934670426
aa(lp2583
F-96.93394685774004
aF43.88515982235344
aa(lp2584
F-96.93270010672904
aF55.74852481933558
aa(lp2585
F-96.93332303695513
aF61.4754958675663
aa(lp2586
F-96.92931984188544
aF64.29015428026358
aa(lp2587
F-96.92303492204607
aF77.79325064018086
aa(lp2588
F-93.83043804952804
aF-78.15672867931369
aa(lp2589
F-93.8304181225545
aF-76.92801662440648
aa(lp2590
F-93.8210285098085
aF-68.33133251015956
aa(lp2591
F-93.83171161827681
aF-65.89377835887063
aa(lp2592
F-93.83061784528415
aF-54.91371759319888
aa(lp2593
F-93.82423927551437
aF-50.05177382351923
aa(lp2594
F-93.81658620329887
aF-48.8328894214625
aa(lp2595
F-93.82237761755607
aF-20.175681712492587
aa(lp2596
F-93.82585971295121
aF-3.9223652043589925
aa(lp2597
F-93.82993021181989
aF9.660444490306517
aa(lp2598
F-93.82651920561767
aF28.263010206554338
aa(lp2599
F-93.8329963608189
aF44.95863826868802
aa(lp2600
F-93.82715880554174
aF53.97588817275333
aa(lp2601
F-93.82915976206337
aF55.936415087654105
aa(lp2602
F-93.82722523292084
aF66.45936316562295
aa(lp2603
F-93.8185316740898
aF71.09194885187988
aa(lp2604
F-93.81547492833285
aF74.72005000802419
aa(lp2605
F-93.82705098976321
aF77.38309644056747
aa(lp2606
F-93.81869166181443
aF78.27446572206578
aa(lp2607
F-90.72014942714983
aF-71.36166205728101
aa(lp2608
F-90.71525707315405
aF-68.90261966416944
aa(lp2609
F-90.72039354558851
aF-67.68148375405545
aa(lp2610
F-90.72396936815663
aF-66.45936316561999
aa(lp2611
F-90.71413331687499
aF-61.55311380062778
aa(lp2612
F-90.7108511281048
aF-53.01035040965749
aa(lp2613
F-90.70961947767637
aF-37.280483991740965
aa(lp2614
F-90.70923110524923
aF-19.416262722291222
aa(lp2615
F-90.71776190847316
aF-1.961795631382819
aa(lp2616
F-90.71115834119999
aF2.6213208948953812
aa(lp2617
F-90.72316192678872
aF12.767212775337674
aa(lp2618
F-90.70835985529223
aF23.821937917351757
aa(lp2619
F-90.71294845591723
aF41.91381363612304
aa(lp2620
F-90.71856788341569
aF53.11528053660502
aa(lp2621
F-90.72129818575486
aF55.10444073958875
aa(lp2622
F-90.72097143519595
aF61.96025349086868
aa(lp2623
F-90.72733515046322
aF67.68148375405822
aa(lp2624
F-90.72751842088718
aF71.42081094641085
aa(lp2625
F-90.70871378166275
aF72.36441713099532
aa(lp2626
F-90.72604312945293
aF74.18443739651674
aa(lp2627
F-90.7258737702733
aF77.80965116608374
aa(lp2628
F-87.60664874383306
aF-78.0816629705442
aa(lp2629
F-87.61912706639211
aF-78.09414129310328
aa(lp2630
F-87.60473353292072
aF-76.84940377889723
aa(lp2631
F-87.60545124361487
aF-75.6200463915404
aa(lp2632
F-87.60674117634521
aF-74.39156086071684
aa(lp2633
F-87.60083350808347
aF-52.33592895508757
aa(lp2634
F-87.60567546732264
aF-38.99515321797329
aa(lp2635
F-87.61041201490997
aF-36.588032049528586
aa(lp2636
F-87.61093463191642
aF-25.80180445170036
aa(lp2637
F-87.6178813871339
aF-21.053519676961315
aa(lp2638
F-87.60621915105055
aF3.7466030278210384e-12
aa(lp2639
F-87.61057681540791
aF4.581202776190849
aa(lp2640
F-87.60180754117113
aF17.004660308795803
aa(lp2641
F-87.61967784353725
aF26.910619929106794
aa(lp2642
F-87.6056141416579
aF28.013380630550937
aa(lp2643
F-87.61490998256768
aF35.54251567655192
aa(lp2644
F-87.61314450277177
aF47.082113015559834
aa(lp2645
F-87.60705653415096
aF48.11741054287718
aa(lp2646
F-87.61129578912167
aF50.161385446117805
aa(lp2647
F-87.61187899552719
aF53.207227684566334
aa(lp2648
F-87.60686365327433
aF66.03864288772485
aa(lp2649
F-87.60716449921262
aF71.7425310193643
aa(lp2650
F-87.60919095128513
aF78.21379170899151
aa(lp2651
F-84.51012836764875
aF-76.21572469924277
aa(lp2652
F-84.49870652884901
aF-73.74337677482552
aa(lp2653
F-84.49529294921581
aF-63.90947323757876
aa(lp2654
F-84.50142025801789
aF-60.23681405548118
aa(lp2655
F-84.50872212197314
aF-56.570788862566836
aa(lp2656
F-84.50595385696845
aF-38.31215033536741
aa(lp2657
F-84.50244358395058
aF-35.89192133460118
aa(lp2658
F-84.49258970162029
aF-16.74350617304168
aa(lp2659
F-84.49248624271196
aF1.96179563139031
aa(lp2660
F-84.51055360253815
aF6.538221554875821
aa(lp2661
F-84.50694843841629
aF16.743506173048686
aa(lp2662
F-84.50905092015631
aF22.321729919855834
aa(lp2663
F-84.49118924031072
aF23.44775583419721
aa(lp2664
F-84.50329070676334
aF38.6541349523563
aa(lp2665
F-84.49364216572891
aF42.90431337399223
aa(lp2666
F-84.50541492116368
aF47.08211301555986
aa(lp2667
F-84.5093515491632
aF48.11741054287716
aa(lp2668
F-84.50756134470237
aF52.24272218641442
aa(lp2669
F-84.49968606948663
aF63.303360908808514
aa(lp2670
F-84.49601645700236
aF64.29015428026356
aa(lp2671
F-84.49140368276026
aF66.24983114783797
aa(lp2672
F-84.49673487599367
aF67.21639141246554
aa(lp2673
F-84.50662363762393
aF72.95735844061998
aa(lp2674
F-84.51057745439445
aF74.83911806418251
aa(lp2675
F-84.49271860103813
aF75.79386979750574
aa(lp2676
F-84.50291048779394
aF76.71656363435518
aa(lp2677
F-84.50096065527875
aF77.64736871201937
aa(lp2678
F-81.38281987881216
aF-78.01251050850539
aa(lp2679
F-81.38072423209098
aF-75.54807608275742
aa(lp2680
F-81.39521245603412
aF-70.63988270201062
aa(lp2681
F-81.38553681707835
aF-69.4001319650039
aa(lp2682
F-81.38339439263446
aF-66.93876899227175
aa(lp2683
F-81.39537521927184
aF-62.036887849402994
aa(lp2684
F-81.39778172164995
aF-37.62531626965469
aa(lp2685
F-81.38602497905116
aF-35.192221457450145
aa(lp2686
F-81.37965991040788
aF-25.549111772942826
aa(lp2687
F-81.39538055783119
aF-18.395050257125252
aa(lp2688
F-81.38600778792467
aF-14.82164607775204
aa(lp2689
F-81.39771288561973
aF2.746239229351973
aa(lp2690
F-81.38833066710743
aF9.660444490306553
aa(lp2691
F-81.3972698440983
aF26.541675230409627
aa(lp2692
F-81.39792901356671
aF27.646481827431987
aa(lp2693
F-81.39930017447114
aF38.54530682183259
aa(lp2694
F-81.39879492260269
aF43.885159822353465
aa(lp2695
F-81.38389615204075
aF44.958638268688
aa(lp2696
F-81.38180610221958
aF48.11741054287716
aa(lp2697
F-81.39503327956547
aF62.43881514045533
aa(lp2698
F-81.38259400040275
aF64.44314492494098
aa(lp2699
F-81.3849996306666
aF72.26050691033262
aa(lp2700
F-81.39526874168425
aF77.95442677689272
aa(lp2701
F-78.26687471816633
aF-77.35924115501481
aa(lp2702
F-78.28147421623076
aF-63.83684881586806
aa(lp2703
F-78.27382311241924
aF-43.008918559423286
aa(lp2704
F-78.27649821922405
aF-41.79333954496901
aa(lp2705
F-78.28146987599054
aF-36.93471970366932
aa(lp2706
F-78.27207876368902
aF-22.441530626223948
aa(lp2707
F-78.26849872232006
aF-12.890522936129212
aa(lp2708
F-78.27964216240639
aF4.705975228510434
aa(lp2709
F-78.28156238207629
aF12.76721277533771
aa(lp2710
F-78.27645844478286
aF54.3503036472575
aa(lp2711
F-78.2795281759553
aF55.38315240925722
aa(lp2712
F-78.2784616757412
aF69.52458530255394
aa(lp2713
F-78.27390406427591
aF75.37160247672331
aa(lp2714
F-78.28124122755212
aF78.23396743306348
aa(lp2715
F-75.16795341056869
aF-77.95442677689218
aa(lp2716
F-75.16341778631796
aF-71.7931084160112
aa(lp2717
F-75.16784123099018
aF-66.8734375625842
aa(lp2718
F-75.16316939310045
aF-58.260767894952416
aa(lp2719
F-75.15732994857785
aF-36.24042969649243
aa(lp2720
F-75.1699180534528
aF-31.397452601457495
aa(lp2721
F-75.16618123792185
aF-27.763425819238275
aa(lp2722
F-75.1521974797527
aF-26.541675230403236
aa(lp2723
F-75.16323709377117
aF-22.936826539340757
aa(lp2724
F-75.16244886225984
aF-9.784473076068927
aa(lp2725
F-75.16243788441218
aF6.662770146337167
aa(lp2726
F-75.15069085247026
aF7.8349265384466005
aa(lp2727
F-75.15839433717383
aF30.561551504385697
aa(lp2728
F-75.15523335330673
aF52.24272218641445
aa(lp2729
F-75.16185169080458
aF55.38315240925725
aa(lp2730
F-75.16034094692688
aF66.66723370279014
aa(lp2731
F-75.15101318330287
aF67.68148375405819
aa(lp2732
F-75.16646089521029
aF74.5991139545073
aa(lp2733
F-75.15471939920644
aF75.58651543139183
aa(lp2734
F-75.16582823651873
aF76.54729805194052
aa(lp2735
F-75.15175267159537
aF77.52947225446937
aa(lp2736
F-75.16883044377813
aF78.47667609722112
aa(lp2737
F-75.16619994485478
aF78.47930659614447
aa(lp2738
F-75.16553142450887
aF78.47997511649038
aa(lp2739
F-75.16682489945336
aF78.47868164154589
aa(lp2740
F-75.17008033735148
aF78.47542620364777
aa(lp2741
F-72.0432809642766
aF-77.29219528326922
aa(lp2742
F-72.03794037018488
aF-76.05568443453909
aa(lp2743
F-72.05243557013482
aF-71.14480200698331
aa(lp2744
F-72.03944403437939
aF-62.51445826109054
aa(lp2745
F-72.05046152657296
aF-60.065056674498486
aa(lp2746
F-72.03867457402603
aF-51.452854862388975
aa(lp2747
F-72.0422673262905
aF-46.55257132664142
aa(lp2748
F-72.03402086473821
aF-29.47388105194058
aa(lp2749
F-72.04879600135337
aF-12.626671918651054
aa(lp2750
F-72.04074593252082
aF-6.662770146329866
aa(lp2751
F-72.04735199493797
aF8.615401049704968
aa(lp2752
F-72.04073495467331
aF9.784473076076127
aa(lp2753
F-72.03427375363383
aF10.951343637283108
aa(lp2754
F-72.03984175420442
aF23.567008390425883
aa(lp2755
F-72.05047281227667
aF33.669473029282884
aa(lp2756
F-72.04702373990105
aF35.891921334607005
aa(lp2757
F-72.03650981590059
aF68.78259686419308
aa(lp2758
F-72.04074000400759
aF71.79310841601328
aa(lp2759
F-72.03375564122753
aF73.79198328411627
aa(lp2760
F-72.04335673814211
aF76.74281399912391
aa(lp2761
F-72.04472725954247
aF77.72084759017517
aa(lp2762
F-68.9183419497328
aF-77.8598565975362
aa(lp2763
F-68.92638248784522
aF-75.40633583889164
aa(lp2764
F-68.93227999439561
aF-58.17695024037213
aa(lp2765
F-68.9135715804734
aF-56.92816672839893
aa(lp2766
F-68.93045540385378
aF-43.4407594042047
aa(lp2767
F-68.9246985699146
aF-23.941001788078022
aa(lp2768
F-68.91405601241958
aF-17.89167604703804
aa(lp2769
F-68.91840856606088
aF-2.3540468558881167
aa(lp2770
F-68.92623938407162
aF-1.1771558554929098
aa(lp2771
F-68.93211162342136
aF3.694324846037489e-12
aa(lp2772
F-68.91606783715172
aF30.084341722565803
aa(lp2773
F-68.93065837367433
aF45.59963939896986
aa(lp2774
F-68.92564980240986
aF64.73703078280273
aa(lp2775
F-68.91653057160815
aF66.80793650542013
aa(lp2776
F-68.92998565976167
aF68.84269557547793
aa(lp2777
F-68.91840396399941
aF71.90070271609426
aa(lp2778
F-68.91466090012935
aF74.91918751989152
aa(lp2779
F-68.92255426678028
aF76.90318465856352
aa(lp2780
F-65.79762096138066
aF-78.42972413492085
aa(lp2781
F-65.81068401237772
aF-78.4427871859179
aa(lp2782
F-65.80199476868569
aF-78.43409794222588
aa(lp2783
F-65.7986581458415
aF-77.20083994638837
aa(lp2784
F-65.80250829556809
aF-69.8202523599223
aa(lp2785
F-65.80912451075868
aF-62.43881514045193
aa(lp2786
F-65.80136446204327
aF-43.9887270530586
aa(lp2787
F-65.80245608738471
aF-31.75668727642483
aa(lp2788
F-65.79780567580883
aF-18.395050257125185
aa(lp2789
F-65.79302452881441
aF-15.975950709323426
aa(lp2790
F-65.79518673489068
aF-7.568808954184389
aa(lp2791
F-65.79374867645437
aF3.1383629469706738
aa(lp2792
F-65.79919227494311
aF4.314224144127873
aa(lp2793
F-65.80385372390506
aF5.48911465905314
aa(lp2794
F-65.80796788001187
aF6.66277014633715
aa(lp2795
F-65.81176936661711
aF7.834926538446583
aa(lp2796
F-65.80301152701989
aF27.52946770907569
aa(lp2797
F-65.81028711353176
aF41.020493726480495
aa(lp2798
F-65.81206511990428
aF43.23234572109451
aa(lp2799
F-65.79531751001298
aF48.73498026263122
aa(lp2800
F-65.80847040893343
aF59.47548433602281
aa(lp2801
F-65.80797331725914
aF64.73703078280273
aa(lp2802
F-65.80281359243526
aF76.02476105728184
aa(lp2803
F-65.80043307474043
aF77.03206386262066
aa(lp2804
F-65.79264684148811
aF78.04120157853276
aa(lp2805
F-62.68335536056949
aF-77.77432313425678
aa(lp2806
F-62.686421176110926
aF-72.85839654971333
aa(lp2807
F-62.677740486535725
aF-65.46421385285919
aa(lp2808
F-62.67098143389269
aF-59.30067206358593
aa(lp2809
F-62.67470559389997
aF-56.842057444566414
aa(lp2810
F-62.68579350629231
aF-38.42118730375557
aa(lp2811
F-62.67596116681679
aF-16.482157645215572
aa(lp2812
F-62.685374470472354
aF-3.263250387770035
aa(lp2813
F-62.67756733325331
aF8.61540104970495
aa(lp2814
F-62.68626495027296
aF9.784473076076111
aa(lp2815
F-62.679438990366705
aF35.19222145745598
aa(lp2816
F-62.67630197585041
aF50.762435545749874
aa(lp2817
F-62.68324948010059
aF55.1044407395888
aa(lp2818
F-62.66983844312725
aF60.48758721599252
aa(lp2819
F-62.683500887858216
aF62.60045385709811
aa(lp2820
F-62.68480847441821
aF69.94195361762229
aa(lp2821
F-62.68441196276163
aF70.97826862245103
aa(lp2822
F-62.67044023829667
aF76.12119439121045
aa(lp2823
F-62.6778016206823
aF77.12931661945531
aa(lp2824
F-62.687078020893885
aF78.13202865919985
aa(lp2825
F-59.55864769886415
aF-78.33500604160737
aa(lp2826
F-59.54687058785518
aF-74.63783836154248
aa(lp2827
F-59.558689536675445
aF-66.03864288772186
aa(lp2828
F-59.558691939937816
aF-64.80760625893042
aa(lp2829
F-59.55219876921193
aF-46.33701845358355
aa(lp2830
F-59.547596233297924
aF-37.734958824313246
aa(lp2831
F-59.5485895875357
aF-19.41626272229153
aa(lp2832
F-59.56186588662571
aF-10.951343637276109
aa(lp2833
F-59.54711548359376
aF-0.1249914008913232
aa(lp2834
F-59.5642078117714
aF1.0521770229198757
aa(lp2835
F-59.550768811210986
aF10.562647607860098
aa(lp2836
F-59.56506374642687
aF11.727904636531436
aa(lp2837
F-59.550144790077724
aF33.782334446017956
aa(lp2838
F-59.559510112449715
aF38.312150335373026
aa(lp2839
F-59.548167081989085
aF40.57851658454066
aa(lp2840
F-59.562961798631925
aF41.68749281283324
aa(lp2841
F-59.54962629545132
aF63.60779936366852
aa(lp2842
F-59.55595187855596
aF64.6662910982844
aa(lp2843
F-59.55726302747468
aF69.94195361762227
aa(lp2844
F-59.546105093715184
aF75.14915242461663
aa(lp2845
F-59.54944358472775
aF77.20083994638922
aa(lp2846
F-59.54870245489372
aF78.22397878034599
aa(lp2847
F-56.434439493008114
aF-77.66542902895296
aa(lp2848
F-56.42363808344862
aF-76.42756207132157
aa(lp2849
F-56.438739243591726
aF-72.75858877294588
aa(lp2850
F-56.43309760293832
aF-71.52406537662563
aa(lp2851
F-56.43272410755654
aF-70.29443285216861
aa(lp2852
F-56.425586842394566
aF-64.13641722699846
aa(lp2853
F-56.431179609510366
aF-62.91113296055678
aa(lp2854
F-56.43225213191661
aF-59.218725498240076
aa(lp2855
F-56.43400926799406
aF-28.496076008587647
aa(lp2856
F-56.42628755218156
aF-17.509387300095952
aa(lp2857
F-56.42696856122764
aF4.189416273463617
aa(lp2858
F-56.42881876833579
aF12.503292855089374
aa(lp2859
F-56.425293935543465
aF23.072987558368084
aa(lp2860
F-56.43803098245799
aF31.16818816859653
aa(lp2861
F-56.425201138427354
aF42.575208421290284
aa(lp2862
F-56.422785029999474
aF54.82435146177191
aa(lp2863
F-56.437312755297256
aF58.092985017347026
aa(lp2864
F-56.4288193098765
aF62.43881514045529
aa(lp2865
F-56.41968691727032
aF70.97826862245101
aa(lp2866
F-56.43837551210708
aF75.14915242461663
aa(lp2867
F-56.431221100418625
aF78.26403641791319
aa(lp2868
F-53.29306370392413
aF-78.20194260310299
aa(lp2869
F-53.29698946729127
aF-76.9804871151766
aa(lp2870
F-53.29927935225041
aF-75.75680366263457
aa(lp2871
F-53.294912553918564
aF-51.15591434976759
aa(lp2872
F-53.29969480716986
aF-46.236080603306526
aa(lp2873
F-53.299025639869186
aF-37.62531626965482
aa(lp2874
F-53.30184028627835
aF-32.71602057464131
aa(lp2875
F-53.29336569846329
aF-21.688391299308307
aa(lp2876
F-53.29643148302698
aF7.3199533516642905
aa(lp2877
F-53.29541635989918
aF22.697642459051647
aa(lp2878
F-53.29914288848862
aF32.00104035611777
aa(lp2879
F-53.305145765090515
aF38.886633826508515
aa(lp2880
F-53.30625154703146
aF54.63269352747667
aa(lp2881
F-53.295886021663385
aF55.74852481933551
aa(lp2882
F-53.305093058327614
aF56.84205744457038
aa(lp2883
F-53.29948908239382
aF61.23080869025045
aa(lp2884
F-53.30693254797917
aF68.78259686419311
aa(lp2885
F-53.2973931812715
aF70.92484979556886
aa(lp2886
F-53.30120460606401
aF74.09675093365732
aa(lp2887
F-53.301039291843914
aF75.14915242461663
aa(lp2888
F-53.29537913079502
aF78.29214880592869
aa(lp2889
F-53.30412138803744
aF78.28340654868627
aa(lp2890
F-50.17172963362762
aF-77.52947225446863
aa(lp2891
F-50.174712188331114
aF-76.30834961812836
aa(lp2892
F-50.17119474548335
aF-70.1751187333563
aa(lp2893
F-50.17739670858745
aF-56.65735005963385
aa(lp2894
F-50.17702885466815
aF-43.1134146508048
aa(lp2895
F-50.17550521711249
aF-29.589685505475458
aa(lp2896
F-50.176879676798706
aF-24.68718367714963
aa(lp2897
F-50.17959641874194
aF-19.796219669622626
aa(lp2898
F-50.16875432214667
aF-6.396288870151166
aa(lp2899
F-50.180017611438856
aF-1.5694953620891927
aa(lp2900
F-50.1776047686822
aF10.438780066009102
aa(lp2901
F-50.171178122336954
aF15.206797663854127
aa(lp2902
F-50.18286229408292
aF31.642345736666677
aa(lp2903
F-50.17234635103911
aF42.01943324055995
aa(lp2904
F-50.164027834908495
aF47.70763261291429
aa(lp2905
F-50.17124560574784
aF49.955438060781965
aa(lp2906
F-50.1664916415194
aF58.87791919947953
aa(lp2907
F-50.16956548330619
aF67.61812473638331
aa(lp2908
F-50.18151802769918
aF69.76308896860479
aa(lp2909
F-50.16677332506332
aF74.05546965177707
aa(lp2910
F-50.17473842905495
aF77.22321711066644
aa(lp2911
F-50.16678516777431
aF78.28340654868627
aa(lp2912
F-47.04553318785818
aF-76.84940377889725
aa(lp2913
F-47.038882521796296
aF-75.6200463915404
aa(lp2914
F-47.041829077228044
aF-71.9507079764069
aa(lp2915
F-47.038780333925445
aF-68.2697698698703
aa(lp2916
F-47.04944532223283
aF-65.82580366497602
aa(lp2917
F-47.03716606143129
aF-64.58548935106414
aa(lp2918
F-47.03741025476387
aF-58.43959205531074
aa(lp2919
F-47.05269556328564
aF-17.8916760470382
aa(lp2920
F-47.04580628210857
aF-10.562647607853243
aa(lp2921
F-47.035715839765544
aF-3.2632503877699652
aa(lp2922
F-47.041026887253324
aF1.5694953620963619
aa(lp2923
F-47.04224200634596
aF12.379882076356544
aa(lp2924
F-47.04042886070309
aF23.072987558368116
aa(lp2925
F-47.03984115791707
aF25.43089686843218
aa(lp2926
F-47.04896243006317
aF31.282860060220205
aa(lp2927
F-47.051162015355004
aF51.9492475443627
aa(lp2928
F-47.04404479747022
aF57.56242305249705
aa(lp2929
F-47.04593666120315
aF66.39280086039726
aa(lp2930
F-47.04830003663967
aF67.48199773600473
aa(lp2931
F-47.052059757748204
aF73.96652117560015
aa(lp2932
F-47.03623126790951
aF76.12119439121044
aa(lp2933
F-47.04998731189295
aF78.23396743306348
aa(lp2934
F-43.90449365663821
aF-76.15151185565274
aa(lp2935
F-43.905549249705956
aF-63.909473237578915
aa(lp2936
F-43.91696452612703
aF-60.2368140554812
aa(lp2937
F-43.916552122574856
aF-43.00891855942334
aa(lp2938
F-43.91119719423952
aF-38.07854904490595
aa(lp2939
F-43.91850645230339
aF-29.473881051940683
aa(lp2940
F-43.91388396872999
aF-15.97595070932357
aa(lp2941
F-43.9045470208394
aF4.70597522851033
aa(lp2942
F-43.9131307173177
aF14.313247063388822
aa(lp2943
F-43.91745413317169
aF17.89167604704474
aa(lp2944
F-43.912641479056745
aF50.55820409441588
aa(lp2945
F-43.91471857919642
aF52.825745970317826
aa(lp2946
F-43.91573140168537
aF56.210952264844515
aa(lp2947
F-43.91964787945238
aF62.911132960560074
aa(lp2948
F-43.91415221904639
aF69.52458530255402
aa(lp2949
F-43.911319304044795
aF74.9563151462871
aa(lp2950
F-43.9198459390222
aF76.02476105728182
aa(lp2951
F-43.92156668352262
aF78.16796272864973
aa(lp2952
F-40.78472013676654
aF-77.90811553662954
aa(lp2953
F-40.7807993227195
aF-76.68641640795076
aa(lp2954
F-40.779737887972715
aF-68.13748050881372
aa(lp2955
F-40.770938202689536
aF-65.6798171018684
aa(lp2956
F-40.78059963529839
aF-59.5569579780416
aa(lp2957
F-40.77098478286044
aF-54.63269352747248
aa(lp2958
F-40.78084996172721
aF-50.95282533532964
aa(lp2959
F-40.785650252984
aF-34.95300210365042
aa(lp2960
F-40.78975882772991
aF-21.431271457861072
aa(lp2961
F-40.785065492608894
aF-7.959283566132151
aa(lp2962
F-40.77559571090326
aF7.8349265384465046
aa(lp2963
F-40.78048674718606
aF53.69035882628658
aa(lp2964
F-40.782498682858574
aF54.82435146177193
aa(lp2965
F-40.774640971126075
aF68.26976986987292
aa(lp2966
F-40.779097866031854
aF70.46803862573962
aa(lp2967
F-40.774216540020426
aF72.66452098157998
aa(lp2968
F-40.77987670802668
aF74.83911806418249
aa(lp2969
F-40.778374194640065
aF75.92642710828638
aa(lp2970
F-40.782983946183506
aF77.00470627350602
aa(lp2971
F-40.77349315722903
aF78.09414129310287
aa(lp2972
F-40.78597147978722
aF78.08166297054467
aa(lp2973
F-37.64366015966323
aF-78.4147003449053
aa(lp2974
F-37.648658484148825
aF-78.41969866939087
aa(lp2975
F-37.64470258730884
aF-77.20083994638837
aa(lp2976
F-37.64338596283619
aF-57.64730995070914
aa(lp2977
F-37.645045529212894
aF-55.19336881884574
aa(lp2978
F-37.639759616240326
aF-49.041941416787196
aa(lp2979
F-37.64545414798157
aF-37.96920791662137
aa(lp2980
F-37.655088312751104
aF-28.130102539462264
aa(lp2981
F-37.648387511653524
aF-24.433207196025123
aa(lp2982
F-37.65651767038166
aF-4.830735743904906
aa(lp2983
F-37.648280185810336
aF26.54167523040951
aa(lp2984
F-37.64925156320513
aF31.28286006022019
aa(lp2985
F-37.650364432067335
aF37.1704481881494
aa(lp2986
F-37.64637074748663
aF40.6854517427968
aa(lp2987
F-37.65383448521473
aF43.008918559428444
aa(lp2988
F-37.65078109027277
aF49.95543806078194
aa(lp2989
F-37.645287933768884
aF53.40348722364543
aa(lp2990
F-37.648888013575245
aF54.54289157802391
aa(lp2991
F-37.642655247796796
aF63.6077993636685
aa(lp2992
F-37.64457109694043
aF68.07537474461937
aa(lp2993
F-37.64451222233738
aF70.29443285217091
aa(lp2994
F-37.650225641439874
aF77.96876913076932
aa(lp2995
F-34.50564822636309
aF-77.70340589526124
aa(lp2996
F-34.52308992127763
aF-77.72084759017578
aa(lp2997
F-34.518150918170164
aF-72.85839654971333
aa(lp2998
F-34.5103186317813
aF-71.6337140316443
aa(lp2999
F-34.51753528338659
aF-55.748524819331436
aa(lp3000
F-34.522681527256
aF-53.2990398699992
aa(lp3001
F-34.5162521798178
aF-45.91843398036467
aa(lp3002
F-34.5172936660111
aF-34.84104743465089
aa(lp3003
F-34.52024170146616
aF-1.6944597749894117
aa(lp3004
F-34.521363042865204
aF1.9617956313901184
aa(lp3005
F-34.5122324825477
aF12.890522936136223
aa(lp3006
F-34.51459808244111
aF18.914537403494776
aa(lp3007
F-34.5195445251467
aF21.311003612318757
aa(lp3008
F-34.50503432973994
aF51.9492475443627
aa(lp3009
F-34.52034209933542
aF55.38315240925729
aa(lp3010
F-34.515364865959974
aF65.61131880056993
aa(lp3011
F-34.51968968476186
aF68.97068501736496
aa(lp3012
F-34.51180127259801
aF73.42714380191029
aa(lp3013
F-34.504322492647624
aF76.7428139991239
aa(lp3014
F-34.518486983717054
aF77.82585432430965
aa(lp3015
F-31.37228393762254
aF-78.201942603103
aa(lp3016
F-31.384550860721504
aF-77.00470627350686
aa(lp3017
F-31.384717560060864
aF-72.15575774530292
aa(lp3018
F-31.37520758628858
aF-67.28082467151982
aa(lp3019
F-31.38281026373724
aF-42.7849920642841
aa(lp3020
F-31.38369000085153
aF-28.01338063054477
aa(lp3021
F-31.381759922276444
aF-25.54911177294289
aa(lp3022
F-31.37801086580231
aF-24.31439666193897
aa(lp3023
F-31.387758571183994
aF-15.714049200969638
aa(lp3024
F-31.388468987938552
aF-8.349559196405407
aa(lp3025
F-31.37017942641043
aF-5.880483426761341
aa(lp3026
F-31.381254958376147
aF1.4445269681005921
aa(lp3027
F-31.385550010498093
aF5.09760866375723
aa(lp3028
F-31.372157443842525
aF14.82164607775898
aa(lp3029
F-31.372140252717173
aF35.1922214574559
aa(lp3030
F-31.38822053624068
aF39.90474784671783
aa(lp3031
F-31.380870951034723
aF48.117410542877046
aa(lp3032
F-31.375641560122574
aF57.3803247169683
aa(lp3033
F-31.37222574522731
aF61.96025349086858
aa(lp3034
F-31.388462468299664
aF64.21838767633092
aa(lp3035
F-31.38228482333453
aF67.61812473638331
aa(lp3036
F-31.383865929274243
aF72.10650877285264
aa(lp3037
F-31.378981812046725
aF77.66542902895236
aa(lp3038
F-28.24240659417481
aF-77.48752933971281
aa(lp3039
F-28.241979658935094
aF-75.07163832441559
aa(lp3040
F-28.25124815355167
aF-61.71864616068373
aa(lp3041
F-28.240569016974376
aF-60.48758721598892
aa(lp3042
F-28.245639751586083
aF-43.336607525273386
aa(lp3043
F-28.24921193015338
aF-38.42118730375579
aa(lp3044
F-28.2509596254871
aF-31.03743299181057
aa(lp3045
F-28.242167381826704
aF-11.339765883678666
aa(lp3046
F-28.235935228993895
aF-2.7462392293448152
aa(lp3047
F-28.244579150285787
aF4.5812027761909535
aa(lp3048
F-28.246892749409128
aF14.313247063388857
aa(lp3049
F-28.24019060878838
aF16.743506173048544
aa(lp3050
F-28.248833692538156
aF21.568240126953174
aa(lp3051
F-28.252211374800112
aF38.31215033537297
aa(lp3052
F-28.2466598806286
aF40.68545174279678
aa(lp3053
F-28.24443193801092
aF70.75597762170692
aa(lp3054
F-28.247130063597787
aF73.00332454786758
aa(lp3055
F-28.23385003451228
aF74.13784426579669
aa(lp3056
F-28.252329913992675
aF77.46761592756717
aa(lp3057
F-25.109758997345665
aF-77.96876913076983
aa(lp3058
F-25.113207347937703
aF-76.76886970229613
aa(lp3059
F-25.09705289633331
aF-75.54807608275753
aa(lp3060
F-25.106527250062726
aF-74.35164999560072
aa(lp3061
F-25.108436287558675
aF-73.14642746670668
aa(lp3062
F-25.110552140220847
aF-63.450797771764016
aa(lp3063
F-25.10984700215991
aF-54.91371759319898
aa(lp3064
F-25.106028917638866
aF-46.337018453583724
aa(lp3065
F-25.10285565077328
aF-37.73495882431346
aa(lp3066
F-25.104134900892618
aF-26.659267907496318
aa(lp3067
F-25.1071430997862
aF-25.430896868425986
aa(lp3068
F-25.11655485408184
aF-15.591569080792993
aa(lp3069
F-25.097297634643553
aF0.39239836500553804
aa(lp3070
F-25.115232289366205
aF7.710549637110545
aa(lp3071
F-25.10908343539876
aF16.237666736922822
aa(lp3072
F-25.11381000167144
aF67.07796958992782
aa(lp3073
F-25.106750517868022
aF71.63371403164638
aa(lp3074
F-25.11307167487864
aF72.75858877294435
aa(lp3075
F-25.098942755813717
aF76.15151185565172
aa(lp3076
F-25.10126104396366
aF77.27043325634534
aa(lp3077
F-25.105355634560233
aF78.38501906756669
aa(lp3078
F-25.111602602923107
aF78.37877209920381
aa(lp3079
F-21.968719667893254
aF-78.42972413492085
aa(lp3080
F-21.973093475198283
aF-78.43409794222588
aa(lp3081
F-21.961505887207437
aF-77.22321711066724
aa(lp3082
F-21.96372461729092
aF-76.02476105728061
aa(lp3083
F-21.96167535247713
aF-72.41269853890135
aa(lp3084
F-21.96056934767512
aF-69.99856052682313
aa(lp3085
F-21.979675967309788
aF-65.17743363620792
aa(lp3086
F-21.979861969469795
aF-62.750902154711845
aa(lp3087
F-21.976611122516005
aF-60.316856754059195
aa(lp3088
F-21.97040892759148
aF-56.65735005963397
aa(lp3089
F-21.977040224667235
aF-50.55820409441135
aa(lp3090
F-21.969130376769016
aF-34.60123355030919
aa(lp3091
F-21.96115324011295
aF-21.05351967696145
aa(lp3092
F-21.971858550251923
aF25.43089686843212
aa(lp3093
F-21.962249882335357
aF38.654134952356166
aa(lp3094
F-21.979836574226
aF41.020493726480396
aa(lp3095
F-21.97003637632298
aF55.193368818849805
aa(lp3096
F-21.96198016114785
aF58.700772883495425
aa(lp3097
F-21.969954987215914
aF78.1567286793141
aa(lp3098
F-18.82898788525131
aF-76.48787407367573
aa(lp3099
F-18.83564701634961
aF-75.29665148337722
aa(lp3100
F-18.835039710195844
aF-74.09675093365566
aa(lp3101
F-18.825670464636858
aF-71.68468059806104
aa(lp3102
F-18.8238497056154
aF-69.27487289203962
aa(lp3103
F-18.83025199907874
aF-68.07537474461675
aa(lp3104
F-18.835446383436192
aF-66.8734375625842
aa(lp3105
F-18.839130180505123
aF-62.03688784940327
aa(lp3106
F-18.831003163533694
aF-60.81592690105714
aa(lp3107
F-18.8250008388857
aF-44.95863826868294
aa(lp3108
F-18.83084484579949
aF-26.541675230403396
aa(lp3109
F-18.83330128146575
aF-19.157055050105527
aa(lp3110
F-18.828973309967225
aF-5.613792994338837
aa(lp3111
F-18.82692585331199
aF6.662770146337097
aa(lp3112
F-18.8377616238172
aF12.767212775337779
aa(lp3113
F-18.838971147105866
aF15.206797663854136
aa(lp3114
F-18.831591911876927
aF24.940873540118776
aa(lp3115
F-18.826159635804913
aF38.203016186493905
aa(lp3116
F-18.825404459545183
aF46.5525713266462
aa(lp3117
F-18.84066607677663
aF60.65761541713524
aa(lp3118
F-18.840820078983867
aF66.45936316562283
aa(lp3119
F-18.836157137719454
aF67.61812473638335
aa(lp3120
F-18.823622286861735
aF68.78259686419315
aa(lp3121
F-18.837980442335464
aF76.76886970229522
aa(lp3122
F-18.83234901288435
aF77.90811553663009
aa(lp3123
F-15.684472867324473
aF-78.12017232504863
aa(lp3124
F-15.696329201476146
aF-78.13202865920027
aa(lp3125
F-15.694753278275385
aF-72.15575774530296
aa(lp3126
F-15.702052528612711
aF-69.76308896860239
aa(lp3127
F-15.689424915383597
aF-67.34508726974202
aa(lp3128
F-15.684799595610315
aF-62.514458261090795
aa(lp3129
F-15.68876009325939
aF-61.30891550604474
aa(lp3130
F-15.703730167724558
aF-36.93471970366943
aa(lp3131
F-15.693484880828649
aF-17.24861788743235
aa(lp3132
F-15.694159344926803
aF-2.4789790292984057
aa(lp3133
F-15.684491554277969
aF14.698885194841358
aa(lp3134
F-15.69912110708691
aF17.126660819389837
aa(lp3135
F-15.687909327606675
aF61.475495867566174
aa(lp3136
F-15.698304252395886
aF70.75597762170692
aa(lp3137
F-15.703905517922522
aF76.48787407367679
aa(lp3138
F-15.685110524076634
aF77.64736871201934
aa(lp3139
F-12.55755318489608
aF-74.99325264262022
aa(lp3140
F-12.56030483863799
aF-72.61060015145702
aa(lp3141
F-12.550650525034314
aF-61.79577327057231
aa(lp3142
F-12.55679482758677
aF-58.17695024037213
aa(lp3143
F-12.550767150433273
aF-55.748524819331436
aa(lp3144
F-12.552341152527873
aF-46.01973915965993
aa(lp3145
F-12.546452593599923
aF-42.350323184639
aa(lp3146
F-12.556932048607166
aF-36.240429696492505
aa(lp3147
F-12.551344910067343
aF-33.7823344460122
aa(lp3148
F-12.555514053738506
aF-27.646481827425813
aa(lp3149
F-12.555867018357361
aF-19.035820369403762
aa(lp3150
F-12.560819845036164
aF-7.959283566132359
aa(lp3151
F-12.552728862909419
aF-5.489114659046091
aa(lp3152
F-12.555379542260127
aF0.6598007733682474
aa(lp3153
F-12.561707984027578
aF34.84104743465649
aa(lp3154
F-12.55215393667227
aF39.67425661775868
aa(lp3155
F-12.554225844580287
aF46.867898238122514
aa(lp3156
F-12.55870614495879
aF49.25042403525792
aa(lp3157
F-12.55222981587356
aF52.825745970317875
aa(lp3158
F-12.555714709729429
aF55.19336881884978
aa(lp3159
F-12.55099336657436
aF57.562423052497095
aa(lp3160
F-12.565399699098336
aF77.33809480949456
aa(lp3161
F-9.414506677483615
aF-76.60204595718935
aa(lp3162
F-9.410268192085624
aF-74.2251282767987
aa(lp3163
F-9.42303038340026
aF-73.04910547890066
aa(lp3164
F-9.407804248490834
aF-71.84350370621499
aa(lp3165
F-9.408108706616872
aF-69.4584040194359
aa(lp3166
F-9.414443429200759
aF-68.2697698698703
aa(lp3167
F-9.419083401500643
aF-67.07796958992506
aa(lp3168
F-9.417441375844959
aF-62.276451509269144
aa(lp3169
F-9.407522137408478
aF-61.06318449176693
aa(lp3170
F-9.408878246748941
aF-35.542515676546195
aa(lp3171
F-9.415830434779295
aF-17.126660819383222
aa(lp3172
F-9.417661059751708
aF-2.354046855888361
aa(lp3173
F-9.41765528008088
aF3.797525035547503
aa(lp3174
F-9.40950641559509
aF61.88346196736359
aa(lp3175
F-9.42561896360887
aF65.3951936566081
aa(lp3176
F-9.412509491846606
aF72.41269853890329
aa(lp3177
F-9.420867190540037
aF73.56475020037736
aa(lp3178
F-9.423902106948162
aF74.72005000802412
aa(lp3179
F-9.414888031622127
aF78.19133111943279
aa(lp3180
F-6.27882613763515
aF-78.19133111943242
aa(lp3181
F-6.270819722488511
aF-77.0047062735069
aa(lp3182
F-6.2726952258067
aF-75.8261950025665
aa(lp3183
F-6.283635786079429
aF-73.47117506578515
aa(lp3184
F-6.278207412283166
aF-68.71390687000732
aa(lp3185
F-6.269257008386404
aF-29.952754656271793
aa(lp3186
F-6.287543772285602
aF-28.74506808266978
aa(lp3187
F-6.285946036367363
aF-26.289870024240358
aa(lp3188
F-6.282995171310915
aF-25.059353514054138
aa(lp3189
F-6.279867255597594
aF-10.297611319951884
aa(lp3190
F-6.2797935318358356
aF-7.834926538439595
aa(lp3191
F-6.278827283794442
aF0.784786920068903
aa(lp3192
F-6.286006247863014
aF6.92917406776535
aa(lp3193
F-6.27869534217642
aF9.395014028037878
aa(lp3194
F-6.272572648248342
aF14.313247063388685
aa(lp3195
F-6.280163523872702
aF20.433985031816306
aa(lp3196
F-6.284106696067141
aF26.541675230409567
aa(lp3197
F-6.271178126431266
aF28.99372642656493
aa(lp3198
F-6.283412016581465
aF30.199746657673824
aa(lp3199
F-6.275228887723301
aF49.55531924974239
aa(lp3200
F-6.2771302363440356
aF51.94924754436278
aa(lp3201
F-6.277101411508795
aF57.91285400471132
aa(lp3202
F-6.273587661013096
aF61.475495867566146
aa(lp3203
F-6.276567603200334
aF63.83684881587118
aa(lp3204
F-6.287997318307816
aF66.18274070804173
aa(lp3205
F-6.2873101988761135
aF69.70574862007513
aa(lp3206
F-6.271192183927823
aF74.39156086071561
aa(lp3207
F-6.277131947993595
aF75.54807608275635
aa(lp3208
F-6.268512242913928
aF77.8754398720584
aa(lp3209
F-6.28409551743556
aF77.85985659753676
aa(lp3210
F-3.1395039180373203
aF-77.4038229143008
aa(lp3211
F-3.142827397215626
aF-73.87671394823404
aa(lp3212
F-3.136523755971524
aF-57.19756019596123
aa(lp3213
F-3.1353736706958557
aF-53.586396857120114
aa(lp3214
F-3.1392607846856606
aF-46.33701845358386
aa(lp3215
F-3.1412489994969945
aF3.9223652043663373
aa(lp3216
F-3.14714016526311
aF23.5670083904259
aa(lp3217
F-3.1361783812954513
aF35.78072187079023
aa(lp3218
F-3.1437339858277227
aF38.20301618649384
aa(lp3219
F-3.136132022157753
aF71.68468059805927
aa(lp3220
F-3.1346622692360597
aF72.85839654971518
aa(lp3221
F-3.146737774784924
aF75.18508471549877
aa(lp3222
F-3.1332807901740978
aF77.52947225446934
aa(lp3223
F0.0037191487778045484
aF-77.77432313425683
aa(lp3224
F0.0066606835273717024
aF-76.60204595718936
aa(lp3225
F-0.003422144779761993
aF-75.44087792950266
aa(lp3226
F-0.001311885446142469
aF-74.26563088170964
aa(lp3227
F0.007253825782385093
aF-64.80760625893069
aa(lp3228
F-0.0031156827277527555
aF-62.438815140451915
aa(lp3229
F-0.005518572283875756
aF-54.06655501227357
aa(lp3230
F-0.006733307037308123
aF-44.41624496561834
aa(lp3231
F-0.0027035199870226734
aF-23.6862011678724
aa(lp3232
F7.098602463884163e-05
aF-18.776287356718587
aa(lp3233
F0.0054312548888617584
aF-12.62667191865133
aa(lp3234
F-0.001712139187773687
aF-10.17368751279019
aa(lp3235
F-0.009945662799935917
aF7.053668541063402
aa(lp3236
F0.006837028893485808
aF11.992241880967946
aa(lp3237
F-0.008501449078551104
aF14.436123951284104
aa(lp3238
F-0.0057497895401184
aF36.47740888471518
aa(lp3239
F0.007760027635796973
aF41.35451019995737
aa(lp3240
F-0.007290162365407582
aF47.39546525631862
aa(lp3241
F0.002168835639636768
aF54.63269352747656
aa(lp3242
F-0.0030709289885493263
aF57.02610489331042
aa(lp3243
F-0.004412433975659269
aF67.74467109460363
aa(lp3244
F0.005653302370475899
aF70.11906972144205
aa(lp3245
F-0.009941757605218982
aF72.46079626874436
aa(lp3246
F0.003183551323886036
aF78.33500604160764
aa.