(lp0
F2.449999999999993
aF2.459999999999993
aF2.5199999999999916
aF2.649999999999989
aF1.9600000000000026
aF2.1000000000000005
aF2.3299999999999956
aF2.9999999999999813
aF2.9399999999999826
aF3.0799999999999796
aF3.0899999999999794
aF2.080000000000001
aF3.009999999999981
aF2.4699999999999926
aF2.919999999999983
aF2.9499999999999824
aF2.0500000000000016
aF2.219999999999998
aF3.119999999999979
aF3.1299999999999786
aF1.4600000000000022
aF1.6500000000000024
aF1.5800000000000023
aF1.320000000000002
aF0.9000000000000018
aF1.0400000000000018
aF0.8100000000000017
aF0.9700000000000019
aF0.4800000000000015
aF0.8200000000000017
aF0.7500000000000017
aF0.6900000000000016
aF0.6900000000000016
aF0.4200000000000014
aF-0.04999999999999881
aF0.46000000000000146
aF0.3000000000000013
aF0.32000000000000134
aF-0.20999999999999885
aF-0.009999999999998803
aF0.020000000000001197
aF-0.32999999999999896
aF-0.21999999999999886
aF-0.05999999999999881
aF-0.30999999999999894
aF-0.06999999999999881
aF0.12000000000000118
aF-1.47
aF-0.6699999999999993
aF-1.56
aF-1.1699999999999997
aF-1.53
aF-0.4599999999999991
aF-1.1699999999999997
aF-0.7099999999999993
aF-0.4999999999999991
aF-0.9599999999999995
aF-0.4899999999999991
aF-0.4799999999999991
aF-0.6299999999999992
aF-1.54
aF-1.0999999999999996
aF-1.1999999999999997
aF-1.39
aF-1.38
a.