(lp0
F0.7999999999999777
aF0.30999999999997735
aF-2.310000000000018
aF0.7199999999999777
aF-2.5200000000000133
aF0.5799999999999775
aF-2.6900000000000097
aF-2.6100000000000114
aF-2.580000000000012
aF0.1499999999999772
aF0.4599999999999775
aF-0.06000000000002279
aF-2.4300000000000153
aF-2.3700000000000165
aF-2.010000000000024
aF-0.23000000000002285
aF0.059999999999977224
aF-2.2400000000000193
aF-0.5100000000000231
aF-0.410000000000023
aF0.059999999999977224
aF-2.310000000000018
aF-0.380000000000023
aF-2.310000000000018
aF-0.6600000000000232
aF-0.22000000000002284
aF-2.1800000000000206
aF-1.8600000000000243
aF-0.8100000000000234
aF-0.7600000000000233
aF-2.160000000000021
aF-1.510000000000024
aF-1.470000000000024
aF-0.9500000000000235
aF-0.1600000000000228
aF-1.8800000000000243
aF-1.540000000000024
aF-1.1900000000000237
aF-0.8900000000000234
aF-0.21000000000002284
aF-2.010000000000024
aF-1.7500000000000242
aF-1.2000000000000237
aF-1.1800000000000237
aF-1.1500000000000237
aF-0.380000000000023
aF-0.370000000000023
aF-1.8100000000000243
aF-1.7000000000000242
aF-1.7900000000000242
aF-1.8500000000000243
aF-1.1300000000000237
aF-0.8000000000000234
aF-0.5600000000000231
aF-1.7800000000000242
aF-1.7100000000000242
aF-0.8600000000000234
aF-0.8500000000000234
aF-1.2800000000000238
aF-0.8500000000000234
aF-1.570000000000024
aF-1.2300000000000237
aF2.449999999999969
aF2.459999999999969
aF2.5199999999999676
aF2.649999999999965
aF1.8499999999999786
aF1.9599999999999786
aF2.0999999999999766
aF2.3299999999999716
aF2.9999999999999574
aF2.739999999999963
aF2.9399999999999586
aF2.2899999999999725
aF3.0799999999999557
aF2.9399999999999586
aF3.0899999999999554
aF2.079999999999977
aF2.5199999999999676
aF3.009999999999957
aF2.919999999999959
aF2.4699999999999687
aF2.919999999999959
aF2.9499999999999584
aF2.0499999999999776
aF2.219999999999974
aF-3.050000000000002
aF3.119999999999955
aF3.1299999999999546
aF1.239999999999978
aF1.4599999999999782
aF2.779999999999962
aF1.6499999999999784
aF1.0399999999999778
aF1.5799999999999783
aF0.9399999999999779
aF1.319999999999978
aF3.1299999999999546
aF0.8999999999999778
aF1.0399999999999778
aF0.6999999999999776
aF-2.5000000000000138
aF0.5699999999999775
aF0.8099999999999777
aF0.9699999999999779
aF-2.8000000000000074
aF-2.400000000000016
aF0.4799999999999775
aF0.8199999999999777
aF0.7499999999999777
aF-2.7400000000000087
aF0.6899999999999776
aF0.20999999999997726
aF0.6899999999999776
aF-2.3300000000000174
aF-2.2200000000000197
aF0.18999999999997724
aF0.41999999999997745
aF-2.6600000000000104
aF-2.620000000000011
aF-2.5600000000000125
aF-2.340000000000017
aF-2.1300000000000217
aF-0.05000000000002279
aF0.4599999999999775
aF0.29999999999997734
aF0.31999999999997736
aF-0.05000000000002279
aF-2.3700000000000165
aF-0.21000000000002284
aF-0.010000000000022784
aF0.019999999999977217
aF-2.450000000000015
aF-0.33000000000002294
aF-0.22000000000002284
aF-0.06000000000002279
aF-2.390000000000016
aF-0.3100000000000229
aF-0.0700000000000228
aF0.1199999999999772
aF-2.20000000000002
aF-1.7900000000000242
aF-2.3700000000000165
aF-1.9000000000000243
aF-1.7500000000000242
aF-2.2900000000000182
aF-2.250000000000019
aF-1.590000000000024
aF-0.390000000000023
aF-1.600000000000024
aF-1.470000000000024
aF-0.6700000000000232
aF-1.560000000000024
aF-1.1700000000000237
aF-1.530000000000024
aF-0.46000000000002306
aF-2.120000000000022
aF-1.7000000000000242
aF-1.1700000000000237
aF-0.7100000000000233
aF-0.5000000000000231
aF-0.9600000000000235
aF-0.4900000000000231
aF-0.4800000000000231
aF-1.8800000000000243
aF-1.580000000000024
aF-0.6300000000000232
aF-1.0600000000000236
aF-1.540000000000024
aF-1.460000000000024
aF-1.7500000000000242
aF-1.1000000000000236
aF-1.2000000000000237
aF-1.3900000000000239
aF-1.3800000000000239
aF2.1999999999999744
aF2.2799999999999727
aF2.4199999999999697
aF2.7099999999999635
aF1.9599999999999786
aF2.4299999999999695
aF2.8499999999999606
aF2.5199999999999676
aF1.6899999999999784
aF2.2399999999999736
aF2.2499999999999734
aF2.259999999999973
aF-3.0400000000000023
aF-3.010000000000003
aF1.5899999999999783
aF2.0999999999999766
aF2.2499999999999734
aF2.40999999999997
aF2.4799999999999685
aF2.9099999999999593
aF2.979999999999958
aF-2.9400000000000044
aF1.8899999999999786
aF1.9499999999999786
aF2.459999999999969
aF-3.0400000000000023
aF-2.910000000000005
aF2.7699999999999623
aF2.779999999999962
aF2.819999999999961
aF3.019999999999957
aF-2.9000000000000052
aF1.4799999999999782
aF1.7799999999999785
aF-2.9300000000000046
aF1.109999999999978
aF1.4099999999999782
aF1.139999999999978
aF3.0999999999999552
aF1.4699999999999782
aF1.5199999999999783
aF-2.860000000000006
aF1.4499999999999782
aF3.0399999999999565
aF1.3599999999999781
aF3.119999999999955
aF1.179999999999978
aF-3.1300000000000003
aF0.9099999999999778
aF-2.9000000000000052
aF-3.0200000000000027
aF-2.7900000000000076
aF0.8999999999999778
aF-2.530000000000013
aF1.0199999999999778
aF-2.480000000000014
aF0.9899999999999779
aF0.8299999999999778
aF-2.7600000000000082
aF-2.67000000000001
aF0.4499999999999775
aF-2.3200000000000176
a.