(lp0
F-0.32999999999999896
aF-0.32999999999999896
aF-0.32999999999999896
aF-0.30999999999999894
aF-0.2799999999999989
aF-0.2799999999999989
aF-0.2799999999999989
aF-0.2799999999999989
aF-0.2699999999999989
aF-0.2499999999999989
aF-0.23999999999999888
aF-0.22999999999999887
aF-0.22999999999999887
aF-0.20999999999999885
aF-0.20999999999999885
aF-0.20999999999999885
aF-0.19999999999999885
aF-0.19999999999999885
aF-0.18999999999999884
aF-0.18999999999999884
aF-0.17999999999999883
aF-0.1499999999999988
aF-0.1399999999999988
aF-0.1099999999999988
aF-0.0999999999999988
aF-0.0899999999999988
aF-0.04999999999999881
aF-0.04999999999999881
aF-0.019999999999998803
aF-0.019999999999998803
aF1.1969591984239969e-15
aF0.010000000000001197
aF0.020000000000001197
aF0.0400000000000012
aF0.0700000000000012
aF0.0700000000000012
aF0.0800000000000012
aF0.09000000000000119
aF0.11000000000000118
aF0.11000000000000118
aF0.11000000000000118
aF0.12000000000000118
aF0.12000000000000118
aF0.12000000000000118
aF0.14000000000000118
aF0.14000000000000118
aF0.14000000000000118
aF0.19000000000000122
aF0.19000000000000122
aF0.20000000000000123
aF0.20000000000000123
aF0.21000000000000124
aF0.21000000000000124
aF0.23000000000000126
aF0.23000000000000126
aF0.24000000000000127
aF0.2500000000000013
aF0.2500000000000013
aF0.2500000000000013
aF0.2600000000000013
aF0.2900000000000013
aF0.31000000000000133
aF0.32000000000000134
aF0.33000000000000135
aF0.33000000000000135
a.