(lp0
F-0.7300000000000233
aF1.169999999999978
aF-0.7100000000000233
aF1.3999999999999782
aF0.29999999999997734
aF1.319999999999978
aF-0.380000000000023
aF-0.2700000000000229
aF1.3799999999999781
aF0.8999999999999778
aF0.4499999999999775
aF0.9199999999999778
aF-0.7000000000000233
aF-0.6500000000000232
aF0.8499999999999778
aF-0.7300000000000233
aF-0.420000000000023
aF0.02999999999997722
aF-0.5300000000000231
aF1.319999999999978
aF-0.33000000000002294
aF-0.2600000000000229
aF0.8799999999999778
aF-0.44000000000002304
aF0.4599999999999775
aF1.279999999999978
aF1.0299999999999778
aF-0.1700000000000228
aF-0.5200000000000231
aF0.3599999999999774
aF-0.5000000000000231
aF1.199999999999978
aF-0.25000000000002287
aF0.5199999999999775
aF-0.7800000000000233
aF-0.7000000000000233
aF-0.390000000000023
aF-0.10000000000002278
aF0.31999999999997736
aF0.17999999999997723
aF0.059999999999977224
aF-0.24000000000002286
aF-0.7500000000000233
aF-0.7100000000000233
aF0.40999999999997744
aF0.6499999999999776
aF0.9399999999999779
aF-0.13000000000002276
aF0.43999999999997746
aF-0.5300000000000231
aF0.1199999999999772
aF-0.34000000000002295
aF0.9799999999999779
aF-0.5600000000000231
aF0.9199999999999778
aF0.43999999999997746
aF1.5099999999999782
aF0.42999999999997746
aF0.7099999999999776
aF-0.7700000000000233
aF-0.21000000000002284
aF0.28999999999997733
aF1.169999999999978
aF-0.7100000000000233
aF1.199999999999978
aF1.0999999999999779
aF-0.7200000000000233
aF0.5999999999999776
aF0.18999999999997724
aF1.329999999999978
aF1.4299999999999782
aF0.019999999999977217
aF0.7499999999999777
aF0.3399999999999774
aF-0.6200000000000232
aF-0.36000000000002297
aF0.04999999999997722
aF0.2399999999999773
aF-0.390000000000023
aF0.8499999999999778
aF1.0499999999999778
aF1.149999999999978
aF-0.32000000000002293
aF-0.1700000000000228
aF0.5899999999999775
aF0.8299999999999778
aF0.4999999999999775
aF0.15999999999997722
aF0.2699999999999773
aF0.41999999999997745
aF0.5999999999999776
aF0.8399999999999778
aF1.319999999999978
aF0.5499999999999775
aF0.4599999999999775
aF0.28999999999997733
aF0.31999999999997736
aF1.0999999999999779
aF1.5599999999999783
aF0.9199999999999778
aF0.9299999999999778
aF0.8499999999999778
aF1.5099999999999782
aF1.339999999999978
aF1.4899999999999782
aF1.5499999999999783
a.