(lp0
F-1.4
aF-1.53
aF-1.55
aF-1.5
aF-1.53
aF-1.1799999999999997
aF-1.0599999999999996
aF-1.53
aF-1.48
aF-1.1399999999999997
aF-1.42
aF-1.1799999999999997
aF-1.43
aF-1.48
aF-1.0199999999999996
aF-0.9699999999999995
aF-0.7799999999999994
aF-0.8699999999999994
aF-0.8499999999999994
aF-1.2999999999999998
aF-1.2299999999999998
aF-1.2199999999999998
aF-1.1699999999999997
aF-1.1499999999999997
aF-1.0699999999999996
aF-0.9999999999999996
aF-0.7299999999999993
aF-0.6499999999999992
aF-1.2699999999999998
aF-1.42
aF-1.39
aF-0.6699999999999993
aF-1.55
aF-1.43
aF-1.51
aF-1.2699999999999998
aF-1.1999999999999997
aF-1.43
aF-0.9899999999999995
aF-0.8599999999999994
aF-1.0399999999999996
aF-0.8999999999999995
aF1.4600000000000022
aF-0.8399999999999994
aF-0.4699999999999991
aF-1.45
aF-1.52
aF-1.38
aF-1.2799999999999998
aF-0.9499999999999995
aF-0.7299999999999993
aF-0.6199999999999992
aF1.3800000000000021
aF1.4600000000000022
aF-0.6599999999999993
aF-0.4599999999999991
aF-1.48
aF-1.43
aF-1.3599999999999999
aF-1.2099999999999997
aF-1.2799999999999998
aF-1.1699999999999997
aF-1.44
aF-1.2699999999999998
aF-0.8899999999999995
aF-1.3199999999999998
aF-1.0999999999999996
aF-0.7199999999999993
aF-0.8199999999999994
aF-0.7599999999999993
aF-0.4699999999999991
aF-1.2899999999999998
aF1.5300000000000022
aF-0.44999999999999907
aF1.4500000000000022
aF-0.7199999999999993
aF-0.22999999999999887
aF-0.19999999999999885
aF-0.9699999999999995
aF-0.4799999999999991
aF1.0600000000000018
aF1.130000000000002
aF-0.7099999999999993
aF-1.54
aF0.44000000000000145
aF1.360000000000002
aF-1.45
aF-1.2899999999999998
aF-1.1799999999999997
aF-1.54
aF-1.57
aF-1.3199999999999998
aF-0.9899999999999995
aF-1.0699999999999996
aF-1.1499999999999997
aF-1.0099999999999996
aF-1.1099999999999997
aF-0.7999999999999994
aF-1.2499999999999998
aF-0.6699999999999993
aF-0.6499999999999992
aF-0.8899999999999995
aF-0.9799999999999995
aF-0.4699999999999991
aF-1.39
aF-0.6699999999999993
aF-0.9699999999999995
aF-0.4699999999999991
aF-0.9099999999999995
aF-0.30999999999999894
aF1.360000000000002
aF-0.399999999999999
aF-0.0999999999999988
aF-1.1099999999999997
aF0.0400000000000012
aF1.0700000000000018
aF1.350000000000002
aF0.6500000000000016
aF-1.46
aF-0.5599999999999992
aF0.23000000000000126
aF0.2500000000000013
aF-1.3499999999999999
aF-1.41
aF-1.2099999999999997
aF-1.51
aF-1.41
aF-1.3399999999999999
aF-1.1899999999999997
aF-1.3599999999999999
aF-1.54
aF-0.8299999999999994
aF-0.9799999999999995
aF-0.9599999999999995
aF-1.3699999999999999
aF-0.5299999999999991
aF-1.56
aF-1.53
aF-1.2699999999999998
aF-0.2699999999999989
aF-0.4999999999999991
aF1.350000000000002
aF1.240000000000002
aF-0.9199999999999995
aF-0.17999999999999883
aF1.150000000000002
aF-0.0899999999999988
aF0.9700000000000019
aF0.23000000000000126
aF0.44000000000000145
aF0.6700000000000016
aF0.34000000000000136
aF-0.22999999999999887
aF-0.16999999999999882
aF0.23000000000000126
aF0.31000000000000133
aF1.1000000000000019
aF0.010000000000001197
aF-0.6299999999999992
aF0.2800000000000013
aF-1.52
aF-1.1799999999999997
aF-1.38
aF-1.1699999999999997
aF-1.47
aF-0.7999999999999994
aF-0.8199999999999994
aF-0.5899999999999992
aF-1.2499999999999998
aF-0.5599999999999992
aF-0.7399999999999993
aF-1.1399999999999997
aF-0.4899999999999991
aF-0.2499999999999989
aF-1.44
aF1.5400000000000023
aF1.150000000000002
aF-0.6699999999999993
aF0.13000000000000117
aF0.4800000000000015
aF0.6300000000000016
aF-0.7899999999999994
aF1.150000000000002
aF-1.1199999999999997
aF0.5700000000000015
aF1.300000000000002
aF-0.1099999999999988
aF0.020000000000001197
aF0.3900000000000014
aF-1.5
aF-1.47
aF-0.9899999999999995
aF-1.56
aF-0.9399999999999995
aF-1.1999999999999997
aF-1.38
aF-1.2099999999999997
aF-1.0299999999999996
aF-0.8099999999999994
aF-0.9999999999999996
aF-1.51
aF-0.41999999999999904
aF-0.9899999999999995
aF-0.9399999999999995
aF-0.5399999999999991
aF-0.9999999999999996
aF-0.9699999999999995
aF-0.5199999999999991
aF-0.9599999999999995
aF-0.7499999999999993
aF-0.32999999999999896
aF-1.0699999999999996
aF-0.7599999999999993
aF-0.30999999999999894
aF-0.43999999999999906
aF-0.1099999999999988
aF-0.1599999999999988
aF-1.2799999999999998
aF-0.9799999999999995
aF-0.9799999999999995
aF0.8800000000000018
aF0.18000000000000121
aF0.7600000000000017
aF-0.019999999999998803
aF0.24000000000000127
aF-0.8499999999999994
aF0.12000000000000118
aF0.9000000000000018
aF-0.8099999999999994
aF-0.5899999999999992
aF0.6000000000000015
aF0.8500000000000018
aF-1.2499999999999998
aF0.0400000000000012
aF1.0200000000000018
aF-0.23999999999999888
aF1.170000000000002
aF0.4200000000000014
aF1.330000000000002
aF-0.21999999999999886
aF-1.52
aF-1.0999999999999996
aF-1.1199999999999997
aF-1.3599999999999999
aF-1.0199999999999996
aF-0.7999999999999994
aF-1.43
aF-0.6099999999999992
aF-1.1099999999999997
aF-0.8599999999999994
aF-0.7499999999999993
aF-1.1099999999999997
aF-0.349999999999999
aF-0.33999999999999897
aF-0.41999999999999904
aF-1.1099999999999997
aF0.0300000000000012
aF1.340000000000002
aF-0.2699999999999989
aF0.12000000000000118
aF-0.07999999999999881
aF-0.1399999999999988
aF0.9900000000000019
aF0.1700000000000012
aF-1.5
aF0.1500000000000012
aF-0.2799999999999989
aF1.0000000000000018
aF-0.6499999999999992
aF-0.399999999999999
aF-0.11999999999999879
aF1.5200000000000022
aF-1.2799999999999998
aF0.44000000000000145
aF-0.9699999999999995
aF-1.1499999999999997
aF1.0400000000000018
aF-0.2699999999999989
aF0.24000000000000127
aF-0.0899999999999988
aF-1.44
aF-1.49
aF-1.3399999999999999
aF-1.1599999999999997
aF-1.51
aF-0.9799999999999995
aF-1.1799999999999997
aF-1.3499999999999999
aF-1.1199999999999997
aF-0.5399999999999991
aF-0.5699999999999992
aF-0.9499999999999995
aF-0.5999999999999992
aF-0.4899999999999991
aF-0.5799999999999992
aF-0.2599999999999989
aF-0.5599999999999992
aF-0.9699999999999995
aF-1.51
aF-0.1099999999999988
aF-1.52
aF-0.19999999999999885
aF0.13000000000000117
aF-0.009999999999998803
aF1.320000000000002
aF1.370000000000002
aF-1.1499999999999997
aF0.19000000000000122
aF1.0100000000000018
aF1.5300000000000022
aF0.8500000000000018
aF-0.43999999999999906
aF0.2500000000000013
aF1.370000000000002
aF-0.029999999999998805
aF0.7500000000000017
aF0.2600000000000013
aF0.9900000000000019
aF-0.9199999999999995
aF-1.0799999999999996
aF0.43000000000000144
aF0.7200000000000016
aF0.9500000000000018
aF0.9900000000000019
aF-0.379999999999999
aF0.9400000000000018
aF-0.12999999999999878
aF0.7900000000000017
aF-1.2999999999999998
aF1.300000000000002
aF1.5200000000000022
aF-0.5599999999999992
aF-1.48
aF0.2700000000000013
aF1.1969591984239969e-15
aF-0.369999999999999
aF-0.29999999999999893
aF0.2700000000000013
aF0.7200000000000016
aF0.7200000000000016
aF1.0000000000000018
aF-1.2299999999999998
aF1.4700000000000022
aF-0.5399999999999991
aF-1.56
aF-1.2699999999999998
aF-1.1499999999999997
aF-1.0799999999999996
aF-1.2199999999999998
aF-1.1399999999999997
aF-1.55
aF-1.2399999999999998
aF-1.0299999999999996
aF-0.8299999999999994
aF-0.7799999999999994
aF-0.8999999999999995
aF-0.8899999999999995
aF-0.6499999999999992
aF-0.6299999999999992
aF-0.5499999999999992
aF-0.5999999999999992
aF-0.4799999999999991
aF-1.1499999999999997
aF-0.5199999999999991
aF-0.42999999999999905
aF-0.7399999999999993
aF-0.31999999999999895
aF-0.29999999999999893
aF-0.7599999999999993
aF-1.53
aF-0.9399999999999995
aF0.19000000000000122
aF-1.38
aF1.130000000000002
aF1.0300000000000018
aF-0.1399999999999988
aF-0.1099999999999988
aF0.8500000000000018
aF0.8100000000000017
aF1.0900000000000019
aF1.270000000000002
aF0.2500000000000013
aF0.5500000000000015
aF-0.8799999999999994
aF0.24000000000000127
aF0.5600000000000015
aF-1.49
aF0.5100000000000015
aF-0.9099999999999995
aF-0.8399999999999994
aF1.0300000000000018
aF-0.369999999999999
aF0.8000000000000017
aF-1.1599999999999997
aF0.3600000000000014
aF-1.3199999999999998
aF0.6900000000000016
aF1.0500000000000018
aF-0.03999999999999881
aF0.9400000000000018
aF0.0500000000000012
aF1.270000000000002
aF-1.2299999999999998
aF-1.0999999999999996
aF-1.0899999999999996
aF-1.0799999999999996
aF-0.9099999999999995
aF-0.7199999999999993
aF-0.6899999999999993
aF-1.2499999999999998
aF-0.9999999999999996
aF-1.42
aF-0.4899999999999991
aF-0.5199999999999991
aF-1.41
aF-0.40999999999999903
aF-0.4799999999999991
aF-0.8399999999999994
aF-0.1499999999999988
aF-0.4599999999999991
aF-0.04999999999999881
aF-0.1099999999999988
aF0.31000000000000133
aF-1.38
aF-1.3299999999999998
aF-0.1599999999999988
aF1.4700000000000022
aF1.1200000000000019
aF0.6000000000000015
aF0.19000000000000122
aF-1.57
aF0.6900000000000016
aF1.1000000000000019
aF1.340000000000002
aF0.8700000000000018
aF-1.2199999999999998
aF-0.389999999999999
aF0.8000000000000017
aF-0.4999999999999991
aF-0.43999999999999906
aF0.7600000000000017
aF-0.5599999999999992
aF0.45000000000000145
aF0.3900000000000014
aF0.8200000000000017
aF1.4700000000000022
aF1.5100000000000022
aF-1.1799999999999997
aF0.8700000000000018
aF1.130000000000002
aF0.7600000000000017
aF1.180000000000002
aF0.0500000000000012
aF1.1200000000000019
aF0.5100000000000015
aF0.7900000000000017
aF-0.33999999999999897
aF0.6300000000000016
aF1.5400000000000023
aF-0.8099999999999994
aF-1.51
aF-1.3499999999999999
aF-0.6599999999999993
aF-1.0299999999999996
aF-0.7699999999999994
aF-0.6399999999999992
aF-0.5699999999999992
aF-0.33999999999999897
aF-1.49
aF-0.19999999999999885
aF-1.1299999999999997
aF-0.359999999999999
aF-0.5199999999999991
aF0.1500000000000012
aF-0.23999999999999888
aF1.5300000000000022
aF-0.399999999999999
aF0.13000000000000117
aF0.2500000000000013
aF1.3900000000000021
aF1.240000000000002
aF1.4200000000000021
aF0.6200000000000015
aF0.4900000000000015
aF0.0400000000000012
aF0.7900000000000017
aF-1.3599999999999999
aF0.4000000000000014
aF1.5100000000000022
aF-0.30999999999999894
aF-0.43999999999999906
aF0.8200000000000017
aF1.330000000000002
aF0.3600000000000014
aF-1.55
aF-1.0399999999999996
aF-0.6299999999999992
aF0.7100000000000016
aF-0.8999999999999995
aF-0.03999999999999881
aF-0.9699999999999995
aF0.7200000000000016
aF-1.2199999999999998
aF1.0800000000000018
aF-1.2399999999999998
aF-1.48
aF-1.53
aF-1.51
aF-0.7299999999999993
aF-1.5
aF-1.0499999999999996
aF-0.6999999999999993
aF-0.6899999999999993
aF-0.5899999999999992
aF-1.2299999999999998
aF-0.5999999999999992
aF-1.2699999999999998
aF-1.2299999999999998
aF-0.5499999999999992
aF-0.5399999999999991
aF-0.7099999999999993
aF-0.5799999999999992
aF-0.7699999999999994
aF-0.359999999999999
aF-1.2899999999999998
aF-0.5199999999999991
aF-0.20999999999999885
aF-0.12999999999999878
aF-1.2099999999999997
aF0.09000000000000119
aF0.13000000000000117
aF-0.4899999999999991
aF0.13000000000000117
aF-0.1399999999999988
aF0.1500000000000012
aF0.34000000000000136
aF0.9800000000000019
aF0.5000000000000014
aF-0.009999999999998803
aF0.3900000000000014
aF1.170000000000002
aF1.290000000000002
aF0.0500000000000012
aF1.0900000000000019
aF0.6600000000000016
aF1.350000000000002
aF-1.3499999999999999
aF1.0400000000000018
aF-1.2799999999999998
aF0.4100000000000014
aF-0.30999999999999894
aF0.060000000000001205
aF0.020000000000001197
aF0.20000000000000123
aF1.5500000000000023
aF-0.7399999999999993
aF-0.389999999999999
aF-0.7699999999999994
aF0.22000000000000125
aF0.14000000000000118
aF-0.2599999999999989
aF-0.40999999999999903
aF0.47000000000000147
aF-0.43999999999999906
aF0.46000000000000146
aF-1.0299999999999996
aF-0.8299999999999994
aF0.6000000000000015
aF-1.1299999999999997
aF-1.0599999999999996
aF-1.0399999999999996
aF-0.6899999999999993
aF-0.8099999999999994
aF-0.5699999999999992
aF-1.44
aF-0.4799999999999991
aF-0.369999999999999
aF-0.32999999999999896
aF-0.349999999999999
aF-0.32999999999999896
aF-0.43999999999999906
aF-0.05999999999999881
aF-0.9499999999999995
aF-0.9299999999999995
aF0.0500000000000012
aF-0.32999999999999896
aF-0.03999999999999881
aF0.020000000000001197
aF0.3600000000000014
aF-0.0999999999999988
aF0.5300000000000015
aF0.7600000000000017
aF-0.7699999999999994
aF0.5000000000000014
aF-0.32999999999999896
aF-0.05999999999999881
aF0.24000000000000127
aF0.5700000000000015
aF-0.4699999999999991
aF0.19000000000000122
aF-1.2199999999999998
aF0.34000000000000136
aF1.4300000000000022
aF0.8100000000000017
aF1.140000000000002
aF0.1500000000000012
aF-0.8299999999999994
aF-1.1299999999999997
aF-1.52
aF-0.06999999999999881
aF1.250000000000002
aF-1.1299999999999997
aF-1.56
aF0.34000000000000136
aF-0.9699999999999995
aF0.5600000000000015
aF-0.7299999999999993
aF-0.5699999999999992
aF0.31000000000000133
aF-0.9499999999999995
aF-1.54
aF-0.5799999999999992
aF0.19000000000000122
aF-0.8699999999999994
aF-1.46
aF-0.9999999999999996
aF-1.57
aF-1.47
aF-0.6799999999999993
aF-1.1599999999999997
aF-0.5699999999999992
aF-0.5999999999999992
aF-1.2299999999999998
aF-0.9799999999999995
aF-0.5299999999999991
aF-0.43999999999999906
aF-0.40999999999999903
aF-1.47
aF-0.07999999999999881
aF-0.4999999999999991
aF-1.48
aF0.020000000000001197
aF-1.0699999999999996
aF0.11000000000000118
aF-0.5599999999999992
aF0.35000000000000137
aF0.33000000000000135
aF-1.56
aF0.0400000000000012
aF0.20000000000000123
aF0.6600000000000016
aF-0.33999999999999897
aF1.5400000000000023
aF-1.41
aF1.0500000000000018
aF0.5900000000000015
aF-0.8899999999999995
aF1.4200000000000021
aF-1.1899999999999997
aF1.230000000000002
aF1.0800000000000018
aF-0.1499999999999988
aF0.7500000000000017
aF0.33000000000000135
aF0.1500000000000012
aF1.3900000000000021
aF-0.40999999999999903
aF1.4000000000000021
aF1.5400000000000023
aF-0.0999999999999988
aF-0.6299999999999992
aF0.0500000000000012
aF0.7800000000000017
aF1.190000000000002
aF-0.8299999999999994
aF0.8600000000000018
aF-1.2799999999999998
aF-0.31999999999999895
aF0.35000000000000137
aF1.0200000000000018
aF0.13000000000000117
aF0.21000000000000124
aF-0.9399999999999995
aF-0.5999999999999992
aF-1.1699999999999997
aF-0.7099999999999993
aF-1.38
aF-1.55
aF-0.19999999999999885
aF-0.16999999999999882
aF-0.2599999999999989
aF-1.1599999999999997
aF0.060000000000001205
aF-0.029999999999998805
aF-1.0199999999999996
aF0.13000000000000117
aF-0.19999999999999885
aF-0.019999999999998803
aF-1.55
aF0.2700000000000013
aF-0.399999999999999
aF-0.04999999999999881
aF1.4500000000000022
aF1.0800000000000018
aF1.330000000000002
aF0.020000000000001197
aF-0.04999999999999881
aF0.5300000000000015
aF-0.8499999999999994
aF0.6100000000000015
aF1.0700000000000018
aF-1.1699999999999997
aF0.20000000000000123
aF0.6300000000000016
aF-0.07999999999999881
aF-1.5
aF0.9100000000000018
aF-0.6099999999999992
aF-1.1599999999999997
aF-0.349999999999999
aF-1.53
aF1.140000000000002
aF1.4900000000000022
aF0.1700000000000012
aF0.7100000000000016
aF0.1700000000000012
aF0.22000000000000125
aF1.1100000000000019
aF0.13000000000000117
aF-0.9199999999999995
aF-0.7099999999999993
aF0.6600000000000016
aF-0.2699999999999989
aF-1.0099999999999996
aF-1.57
aF-0.6599999999999993
aF-0.369999999999999
aF-1.5
aF-0.42999999999999905
aF-1.1199999999999997
aF-0.5299999999999991
aF-0.5199999999999991
aF-0.40999999999999903
aF-0.44999999999999907
aF-0.7899999999999994
aF-0.6999999999999993
aF-0.07999999999999881
aF-0.05999999999999881
aF-1.0399999999999996
aF0.0800000000000012
aF-0.7999999999999994
aF-0.1499999999999988
aF0.20000000000000123
aF0.3600000000000014
aF0.24000000000000127
aF0.5100000000000015
aF0.2500000000000013
aF0.060000000000001205
aF0.8000000000000017
aF0.9500000000000018
aF1.5300000000000022
aF1.0900000000000019
aF1.220000000000002
aF1.230000000000002
aF1.370000000000002
aF-0.1099999999999988
aF0.7000000000000016
aF1.0900000000000019
aF-0.29999999999999893
aF-0.18999999999999884
aF-0.11999999999999879
aF0.33000000000000135
aF-1.2299999999999998
aF1.4400000000000022
aF0.8200000000000017
aF-0.19999999999999885
aF-0.9599999999999995
aF1.180000000000002
aF1.4400000000000022
aF-0.16999999999999882
aF0.6000000000000015
aF0.47000000000000147
aF-0.5999999999999992
aF-1.46
aF-0.19999999999999885
aF0.2600000000000013
aF-0.9899999999999995
aF1.0600000000000018
aF-0.07999999999999881
aF-0.8499999999999994
aF0.1700000000000012
aF0.20000000000000123
aF0.4200000000000014
aF0.8000000000000017
aF1.4000000000000021
aF-1.0399999999999996
aF-1.2599999999999998
aF0.4200000000000014
aF-1.1799999999999997
aF-1.42
aF-0.359999999999999
aF-0.2899999999999989
aF-1.1199999999999997
aF-0.379999999999999
aF-0.389999999999999
aF-0.07999999999999881
aF-1.2299999999999998
aF-1.54
aF0.14000000000000118
aF0.09000000000000119
aF0.21000000000000124
aF0.10000000000000119
aF0.1600000000000012
aF0.2600000000000013
aF0.4000000000000014
aF0.4100000000000014
aF0.09000000000000119
aF0.2800000000000013
aF-0.42999999999999905
aF0.3700000000000014
aF1.5100000000000022
aF0.21000000000000124
aF0.2900000000000013
aF0.8200000000000017
aF1.1200000000000019
aF1.4700000000000022
aF1.0500000000000018
aF0.8900000000000018
aF-0.5399999999999991
aF0.46000000000000146
aF0.9100000000000018
aF0.8900000000000018
aF1.3900000000000021
aF1.1000000000000019
aF0.5900000000000015
aF1.340000000000002
aF1.350000000000002
aF1.4000000000000021
aF-0.8799999999999994
aF-0.18999999999999884
aF1.1200000000000019
aF-0.03999999999999881
aF0.5200000000000015
aF-1.46
aF0.33000000000000135
aF1.270000000000002
aF0.12000000000000118
aF0.19000000000000122
aF1.240000000000002
aF1.260000000000002
aF0.7200000000000016
aF-0.43999999999999906
aF1.5000000000000022
aF1.0800000000000018
aF-1.44
aF-0.2899999999999989
aF0.13000000000000117
aF-0.019999999999998803
aF1.180000000000002
aF-1.1499999999999997
aF-0.4799999999999991
aF-1.2799999999999998
aF-0.5699999999999992
aF-0.5099999999999991
aF-0.7499999999999993
aF-0.4699999999999991
aF-0.389999999999999
aF-0.04999999999999881
aF-0.8099999999999994
aF-1.0799999999999996
aF-1.43
aF0.19000000000000122
aF0.22000000000000125
aF-0.05999999999999881
aF-1.0999999999999996
aF-0.5699999999999992
aF0.44000000000000145
aF0.4900000000000015
aF-0.5299999999999991
aF-1.0199999999999996
aF-0.23999999999999888
aF0.9500000000000018
aF1.3900000000000021
aF1.0100000000000018
aF0.9800000000000019
aF0.8000000000000017
aF1.180000000000002
aF1.360000000000002
aF0.22000000000000125
aF1.4700000000000022
aF0.8100000000000017
aF0.12000000000000118
aF0.4100000000000014
aF1.180000000000002
aF-0.9599999999999995
aF-0.29999999999999893
aF0.7500000000000017
aF1.5200000000000022
aF0.6000000000000015
aF1.0400000000000018
aF1.310000000000002
aF0.8100000000000017
aF-0.03999999999999881
aF-0.009999999999998803
aF0.5700000000000015
aF-0.40999999999999903
aF0.8300000000000017
aF0.9800000000000019
aF0.18000000000000121
aF0.7500000000000017
aF-1.1099999999999997
aF-1.53
aF-0.8599999999999994
aF-0.6299999999999992
aF1.1200000000000019
aF0.20000000000000123
aF0.6700000000000016
aF-0.8999999999999995
aF-1.41
aF-0.7399999999999993
aF-0.4599999999999991
aF-0.6899999999999993
aF-0.1399999999999988
aF-0.4999999999999991
aF-1.1099999999999997
aF-1.2799999999999998
aF0.19000000000000122
aF0.20000000000000123
aF-0.9099999999999995
aF-0.32999999999999896
aF0.020000000000001197
aF0.3900000000000014
aF0.45000000000000145
aF-1.3299999999999998
aF-0.4899999999999991
aF0.5900000000000015
aF0.5000000000000014
aF0.47000000000000147
aF-1.43
aF-0.7599999999999993
aF0.7600000000000017
aF0.7700000000000017
aF0.8300000000000017
aF1.5600000000000023
aF1.4200000000000021
aF-0.29999999999999893
aF-0.04999999999999881
aF0.0700000000000012
aF1.5500000000000023
aF-0.4699999999999991
aF0.45000000000000145
aF1.270000000000002
aF1.3900000000000021
aF0.6000000000000015
aF-0.8199999999999994
aF0.9500000000000018
aF-0.1099999999999988
aF0.3000000000000013
aF0.19000000000000122
aF0.7500000000000017
aF1.160000000000002
aF-1.0399999999999996
aF-0.359999999999999
aF0.32000000000000134
aF0.7800000000000017
aF0.4800000000000015
aF1.5600000000000023
aF-0.389999999999999
aF1.340000000000002
aF-1.0699999999999996
aF1.180000000000002
aF0.5400000000000015
aF0.6000000000000015
aF-1.0199999999999996
aF-0.9799999999999995
aF-0.42999999999999905
aF-1.49
aF0.0300000000000012
aF-0.029999999999998805
aF-1.56
aF-0.5899999999999992
aF0.3700000000000014
aF-1.2599999999999998
aF0.1700000000000012
aF-1.2699999999999998
aF0.4000000000000014
aF0.6500000000000016
aF0.6700000000000016
aF0.6400000000000016
aF0.43000000000000144
aF-1.0199999999999996
aF1.5300000000000022
aF1.320000000000002
aF1.240000000000002
aF0.9300000000000018
aF1.4200000000000021
aF0.5600000000000015
aF0.2700000000000013
aF1.5500000000000023
aF1.0900000000000019
aF-0.359999999999999
aF0.4900000000000015
aF0.060000000000001205
aF0.3600000000000014
aF0.22000000000000125
aF1.370000000000002
aF-1.53
aF0.23000000000000126
aF-0.7199999999999993
aF1.330000000000002
aF-0.21999999999999886
aF-1.1499999999999997
aF0.09000000000000119
aF0.8500000000000018
aF1.5500000000000023
aF-1.52
aF0.6500000000000016
aF1.240000000000002
aF-1.2399999999999998
aF-0.7499999999999993
aF-0.8699999999999994
aF-0.16999999999999882
aF0.13000000000000117
aF-0.2799999999999989
aF0.6800000000000016
aF-0.1099999999999988
aF0.010000000000001197
aF-1.1599999999999997
aF0.8900000000000018
aF0.9000000000000018
aF1.4100000000000021
aF1.370000000000002
aF1.0800000000000018
aF1.4200000000000021
aF0.9000000000000018
aF1.0000000000000018
aF1.300000000000002
aF1.230000000000002
aF-0.1599999999999988
aF-0.8099999999999994
aF1.360000000000002
aF1.180000000000002
aF1.170000000000002
aF-0.20999999999999885
aF1.3900000000000021
aF0.8500000000000018
aF-0.019999999999998803
aF-1.1099999999999997
aF1.4900000000000022
aF1.170000000000002
aF1.4400000000000022
aF-0.4899999999999991
aF0.0300000000000012
aF1.200000000000002
aF0.5600000000000015
aF-0.1099999999999988
aF0.7400000000000017
aF0.4800000000000015
aF0.5700000000000015
aF-0.8999999999999995
aF1.4300000000000022
aF0.4200000000000014
aF-0.349999999999999
aF0.7800000000000017
aF0.8000000000000017
aF0.8200000000000017
aF-1.0399999999999996
aF-0.8599999999999994
aF-1.1599999999999997
aF-1.3199999999999998
aF-1.2399999999999998
aF-1.2399999999999998
aF-0.9299999999999995
aF-0.7999999999999994
aF-0.4899999999999991
aF0.10000000000000119
aF0.6600000000000016
aF0.7100000000000016
aF0.7500000000000017
aF-0.009999999999998803
aF0.10000000000000119
aF1.130000000000002
aF1.4200000000000021
aF1.4900000000000022
aF1.310000000000002
aF0.9800000000000019
aF0.8100000000000017
aF0.5400000000000015
aF-0.399999999999999
aF-1.1399999999999997
aF-0.7899999999999994
aF-0.0899999999999988
aF0.010000000000001197
aF-0.7799999999999994
aF-0.11999999999999879
aF-1.39
aF0.6900000000000016
aF0.3700000000000014
aF1.340000000000002
aF1.0900000000000019
aF0.6600000000000016
aF-0.9099999999999995
aF-1.38
aF-0.7799999999999994
aF0.7800000000000017
aF0.5700000000000015
aF0.8900000000000018
aF1.0200000000000018
aF0.5200000000000015
aF-1.41
aF-0.6699999999999993
aF-1.0499999999999996
aF-0.5299999999999991
aF0.12000000000000118
aF-1.1599999999999997
aF-0.369999999999999
aF-0.42999999999999905
aF0.33000000000000135
aF0.21000000000000124
aF0.11000000000000118
aF-0.1099999999999988
aF-0.359999999999999
aF-0.2699999999999989
aF-0.4599999999999991
aF0.8700000000000018
aF0.6600000000000016
aF1.0500000000000018
aF-0.5299999999999991
aF-0.16999999999999882
aF1.5400000000000023
aF1.280000000000002
aF-0.07999999999999881
aF0.8700000000000018
aF1.320000000000002
aF0.2500000000000013
aF0.4100000000000014
aF0.7800000000000017
aF1.200000000000002
aF-0.22999999999999887
aF-0.04999999999999881
aF0.4800000000000015
aF-1.1599999999999997
aF-0.31999999999999895
aF-0.5699999999999992
aF0.0800000000000012
aF-0.03999999999999881
aF-0.009999999999998803
aF-0.7499999999999993
aF-1.1899999999999997
aF0.9500000000000018
aF1.350000000000002
aF-0.4699999999999991
aF0.18000000000000121
aF-0.8299999999999994
aF-1.56
aF-1.38
aF-1.0299999999999996
aF-1.2699999999999998
aF-0.4599999999999991
aF-0.5699999999999992
aF-1.0599999999999996
aF-0.05999999999999881
aF-1.0899999999999996
aF-1.2399999999999998
aF-0.4999999999999991
aF0.47000000000000147
aF0.5000000000000014
aF1.0000000000000018
aF-0.06999999999999881
aF1.280000000000002
aF0.31000000000000133
aF1.1000000000000019
aF1.310000000000002
aF0.46000000000000146
aF-1.42
aF1.0100000000000018
aF-0.9099999999999995
aF1.4000000000000021
aF1.5100000000000022
aF0.12000000000000118
aF0.5000000000000014
aF0.7200000000000016
aF0.21000000000000124
aF-0.2599999999999989
aF0.47000000000000147
aF-0.18999999999999884
aF-0.8599999999999994
aF1.370000000000002
aF0.6200000000000015
aF0.9600000000000019
aF1.280000000000002
aF0.5100000000000015
aF-0.9999999999999996
aF-1.0499999999999996
aF-0.5199999999999991
aF1.5100000000000022
aF-1.39
aF-1.2299999999999998
aF-0.03999999999999881
aF-1.2299999999999998
aF-1.2799999999999998
aF0.8500000000000018
aF0.5500000000000015
aF-0.17999999999999883
aF0.3700000000000014
aF1.4400000000000022
aF0.0500000000000012
aF0.31000000000000133
aF0.9800000000000019
aF-0.7999999999999994
aF1.3800000000000021
aF0.7500000000000017
aF1.280000000000002
aF1.4300000000000022
aF0.2800000000000013
aF0.6200000000000015
aF0.7800000000000017
aF-1.1699999999999997
aF-0.9199999999999995
aF1.1000000000000019
aF1.5000000000000022
aF0.8600000000000018
aF-1.0299999999999996
aF0.22000000000000125
aF-1.2099999999999997
aF-0.29999999999999893
aF0.8600000000000018
aF0.34000000000000136
aF0.8600000000000018
aF-1.2999999999999998
aF-0.32999999999999896
aF-0.7199999999999993
aF0.7800000000000017
aF-0.9799999999999995
aF-0.05999999999999881
aF-0.6399999999999992
aF0.20000000000000123
aF0.22000000000000125
aF-0.8999999999999995
aF0.6400000000000016
aF-0.20999999999999885
aF0.060000000000001205
aF-1.3599999999999999
aF0.19000000000000122
aF-1.1899999999999997
aF0.3700000000000014
aF0.7700000000000017
aF0.3800000000000014
aF0.6200000000000015
aF0.9600000000000019
aF0.9100000000000018
aF-1.3699999999999999
aF-1.2799999999999998
aF-1.41
aF-1.1899999999999997
aF0.8400000000000017
aF0.5500000000000015
aF0.8100000000000017
aF-0.5799999999999992
aF0.060000000000001205
aF1.300000000000002
aF-1.2099999999999997
aF-0.4599999999999991
aF-1.42
aF-0.12999999999999878
aF-0.8599999999999994
aF-0.17999999999999883
aF-1.0899999999999996
aF1.190000000000002
aF0.5000000000000014
aF-1.1499999999999997
aF1.190000000000002
aF0.0500000000000012
aF0.4100000000000014
aF-0.9299999999999995
aF1.260000000000002
aF-0.1099999999999988
aF-0.5699999999999992
aF-0.6499999999999992
aF-0.4999999999999991
aF0.0700000000000012
aF1.1000000000000019
aF-0.8399999999999994
aF-0.8999999999999995
aF-0.2899999999999989
aF-1.2499999999999998
aF0.020000000000001197
aF0.0500000000000012
aF1.170000000000002
aF0.7800000000000017
aF0.43000000000000144
aF1.1100000000000019
aF-0.12999999999999878
aF-0.7799999999999994
aF1.0100000000000018
aF1.140000000000002
aF1.260000000000002
aF-1.0899999999999996
aF-0.5799999999999992
aF1.4800000000000022
aF-0.21999999999999886
aF-1.2499999999999998
aF0.6800000000000016
aF0.6200000000000015
aF1.5000000000000022
aF0.10000000000000119
aF0.4200000000000014
aF0.5800000000000015
aF-1.38
aF1.360000000000002
aF-1.48
aF0.8500000000000018
aF1.5300000000000022
aF1.370000000000002
aF-0.06999999999999881
aF-0.9399999999999995
aF-0.1099999999999988
aF0.2500000000000013
aF0.020000000000001197
aF0.14000000000000118
aF-1.1699999999999997
aF0.6600000000000016
aF-1.3499999999999999
aF-0.6499999999999992
aF0.22000000000000125
aF0.21000000000000124
aF0.5400000000000015
aF1.270000000000002
aF-1.42
aF-0.16999999999999882
aF-0.17999999999999883
aF0.0300000000000012
aF-0.5799999999999992
aF-0.07999999999999881
aF-0.1099999999999988
aF1.0800000000000018
aF0.2500000000000013
aF-0.2899999999999989
aF-0.2499999999999989
aF-0.7299999999999993
aF0.0500000000000012
aF-1.0299999999999996
aF1.4600000000000022
aF1.240000000000002
aF1.290000000000002
aF-0.2799999999999989
aF-0.8899999999999995
aF0.9700000000000019
aF-0.9899999999999995
aF-0.4799999999999991
aF0.9100000000000018
aF-0.6299999999999992
aF-0.5399999999999991
aF0.2800000000000013
aF0.9400000000000018
aF1.170000000000002
aF-0.30999999999999894
aF1.0700000000000018
aF0.060000000000001205
aF-0.5399999999999991
aF-0.03999999999999881
aF-0.2499999999999989
aF-1.1099999999999997
aF-1.1299999999999997
aF-0.43999999999999906
aF-0.11999999999999879
aF-0.7599999999999993
aF0.0800000000000012
aF0.5900000000000015
aF-0.5799999999999992
aF0.7500000000000017
aF1.220000000000002
aF-1.2599999999999998
aF0.7100000000000016
aF1.150000000000002
aF-1.0199999999999996
aF-1.2199999999999998
aF-0.42999999999999905
aF-0.8099999999999994
aF1.4800000000000022
aF-1.0799999999999996
aF1.240000000000002
aF1.340000000000002
aF-0.7299999999999993
aF0.060000000000001205
aF-1.2599999999999998
aF-1.1599999999999997
aF-1.56
aF-0.2799999999999989
aF-0.9599999999999995
aF-1.0599999999999996
aF-1.2299999999999998
aF0.9300000000000018
aF0.18000000000000121
aF-0.7199999999999993
aF0.43000000000000144
aF1.5000000000000022
aF-0.8299999999999994
aF0.9900000000000019
aF-1.0899999999999996
aF0.7600000000000017
aF-1.2399999999999998
aF-1.1199999999999997
aF1.140000000000002
aF0.5400000000000015
aF1.5400000000000023
aF-0.2699999999999989
aF0.0700000000000012
aF0.5700000000000015
aF-1.1699999999999997
aF0.8100000000000017
aF1.5200000000000022
aF-1.2799999999999998
aF-1.53
aF1.1969591984239969e-15
aF0.8800000000000018
aF0.7100000000000016
aF-1.56
aF-0.7099999999999993
aF-0.8599999999999994
aF0.5700000000000015
aF-0.43999999999999906
aF-0.6699999999999993
aF-1.52
aF-1.4
aF0.0400000000000012
aF-1.0399999999999996
aF1.320000000000002
aF0.5000000000000014
aF-1.45
aF0.1700000000000012
aF-0.9299999999999995
aF0.8300000000000017
aF-1.3499999999999999
aF-1.52
aF1.150000000000002
aF-0.379999999999999
aF-0.7399999999999993
aF1.250000000000002
aF-0.5199999999999991
aF1.1200000000000019
aF-0.8599999999999994
aF0.20000000000000123
aF-0.6399999999999992
aF-1.3299999999999998
aF0.33000000000000135
aF0.8900000000000018
aF1.0000000000000018
aF1.350000000000002
aF-0.7799999999999994
aF-1.0999999999999996
aF-1.0899999999999996
aF-0.6699999999999993
aF-1.3299999999999998
aF-1.52
aF0.2800000000000013
aF0.45000000000000145
aF-0.16999999999999882
aF1.4200000000000021
aF1.190000000000002
aF0.8700000000000018
aF0.5500000000000015
aF-0.21999999999999886
aF-1.2699999999999998
aF-0.16999999999999882
aF0.4100000000000014
aF-0.5799999999999992
aF0.0300000000000012
aF-0.9899999999999995
aF0.5100000000000015
aF0.2600000000000013
aF-0.6199999999999992
aF1.0300000000000018
aF0.32000000000000134
aF1.4100000000000021
aF-1.0099999999999996
aF0.9100000000000018
aF1.5000000000000022
aF0.21000000000000124
aF1.5400000000000023
aF-0.44999999999999907
aF-0.43999999999999906
aF1.4500000000000022
aF-0.5599999999999992
aF0.8300000000000017
aF-0.11999999999999879
aF-1.0299999999999996
aF0.4900000000000015
aF-0.9299999999999995
aF0.3600000000000014
aF-0.5199999999999991
aF0.4900000000000015
aF-0.32999999999999896
aF1.220000000000002
aF-1.3699999999999999
aF-1.2799999999999998
aF0.6000000000000015
aF-0.5499999999999992
aF-0.5499999999999992
aF-1.1699999999999997
aF-0.8099999999999994
aF0.7500000000000017
aF-0.9499999999999995
aF-0.5999999999999992
aF0.4100000000000014
aF0.0300000000000012
aF0.13000000000000117
aF-1.3299999999999998
aF0.8700000000000018
aF1.5400000000000023
aF0.5800000000000015
aF1.0000000000000018
aF-1.1099999999999997
aF-0.019999999999998803
aF1.0000000000000018
aF1.0600000000000018
aF0.6300000000000016
aF0.47000000000000147
aF0.5800000000000015
aF0.6300000000000016
aF-1.2299999999999998
aF-0.8199999999999994
aF-0.31999999999999895
aF0.21000000000000124
aF0.8900000000000018
aF0.010000000000001197
aF-0.43999999999999906
aF-0.6499999999999992
aF-0.8499999999999994
aF0.7500000000000017
aF-0.6299999999999992
aF0.7100000000000016
aF0.060000000000001205
aF-1.48
aF0.12000000000000118
aF0.5500000000000015
aF-1.55
aF0.060000000000001205
aF-0.8599999999999994
aF-0.40999999999999903
aF-1.53
aF0.7300000000000016
aF0.11000000000000118
aF1.220000000000002
aF-1.43
aF1.5600000000000023
aF-0.5799999999999992
aF-0.43999999999999906
aF-1.3199999999999998
aF-0.5099999999999991
aF0.14000000000000118
aF0.7000000000000016
aF-0.2699999999999989
aF1.220000000000002
aF1.0400000000000018
aF-0.5599999999999992
aF0.4200000000000014
aF-0.7699999999999994
aF0.9100000000000018
aF0.33000000000000135
aF-0.2699999999999989
aF-0.44999999999999907
aF-0.6399999999999992
aF1.5100000000000022
aF-0.389999999999999
aF-0.6099999999999992
aF-0.5699999999999992
aF-0.8699999999999994
aF1.360000000000002
aF-1.1199999999999997
aF-0.349999999999999
aF-0.2899999999999989
aF0.7900000000000017
aF-1.1899999999999997
aF-1.3499999999999999
aF0.20000000000000123
aF-0.2799999999999989
aF-0.1099999999999988
aF-0.4999999999999991
aF-0.6199999999999992
aF-0.9499999999999995
aF0.1600000000000012
aF-1.2099999999999997
aF0.6500000000000016
aF-0.5399999999999991
aF-0.12999999999999878
aF-0.8799999999999994
aF0.7400000000000017
aF0.9500000000000018
aF0.6500000000000016
aF-0.9499999999999995
aF0.2500000000000013
aF-0.1399999999999988
aF0.4100000000000014
aF1.300000000000002
aF0.010000000000001197
aF1.320000000000002
aF1.4800000000000022
aF1.210000000000002
aF0.34000000000000136
aF0.8000000000000017
aF0.3600000000000014
aF0.5700000000000015
aF-1.3699999999999999
aF0.4900000000000015
aF1.4200000000000021
aF-0.7299999999999993
aF-0.5699999999999992
aF-0.5499999999999992
aF0.2600000000000013
aF0.2500000000000013
aF-0.6899999999999993
aF0.13000000000000117
aF-0.7999999999999994
aF0.9900000000000019
aF0.2600000000000013
aF-0.399999999999999
aF-1.52
aF1.180000000000002
aF1.370000000000002
aF-0.6099999999999992
aF-0.5499999999999992
aF1.360000000000002
aF0.0800000000000012
aF0.22000000000000125
aF0.9200000000000018
aF0.22000000000000125
aF-0.42999999999999905
aF1.220000000000002
aF0.8000000000000017
aF0.7500000000000017
aF1.5600000000000023
aF1.4600000000000022
aF-1.4
aF0.33000000000000135
aF0.9300000000000018
aF1.250000000000002
aF-0.33999999999999897
aF1.4900000000000022
aF1.230000000000002
aF-0.19999999999999885
aF0.3600000000000014
aF0.9900000000000019
aF-0.029999999999998805
aF-0.029999999999998805
aF-1.0399999999999996
aF-0.33999999999999897
aF-0.18999999999999884
aF0.020000000000001197
aF-0.7299999999999993
aF0.6200000000000015
aF-0.7599999999999993
aF1.4400000000000022
aF1.160000000000002
aF-0.5799999999999992
aF-0.5699999999999992
aF-1.0599999999999996
aF1.160000000000002
aF-0.4999999999999991
aF0.8200000000000017
aF0.9800000000000019
aF-0.05999999999999881
aF0.18000000000000121
aF0.8100000000000017
aF0.11000000000000118
aF0.6600000000000016
aF0.9400000000000018
aF-1.3299999999999998
aF1.4600000000000022
aF0.5400000000000015
aF1.0400000000000018
aF-1.1599999999999997
aF1.340000000000002
aF0.9200000000000018
aF-0.8399999999999994
aF-0.12999999999999878
aF1.0500000000000018
aF-1.3299999999999998
aF-1.3199999999999998
aF-1.5
aF-0.42999999999999905
aF-1.5
aF0.10000000000000119
aF-0.9299999999999995
aF-1.4
aF-1.0499999999999996
aF-0.40999999999999903
aF0.19000000000000122
aF-1.54
aF-1.1699999999999997
aF-1.3499999999999999
aF0.6700000000000016
aF-0.05999999999999881
aF-0.6399999999999992
aF1.1200000000000019
aF0.5500000000000015
aF-1.1899999999999997
aF-0.019999999999998803
aF1.0000000000000018
aF-1.2599999999999998
aF-0.41999999999999904
aF-0.5099999999999991
aF-0.019999999999998803
aF0.9600000000000019
aF-0.9299999999999995
aF-0.11999999999999879
aF-1.56
aF1.4700000000000022
aF-0.6099999999999992
aF1.370000000000002
aF1.5500000000000023
aF-1.54
aF-0.9499999999999995
aF0.18000000000000121
aF0.7100000000000016
aF0.6600000000000016
aF0.2600000000000013
aF-0.40999999999999903
aF-1.0199999999999996
aF0.34000000000000136
aF-0.9899999999999995
aF-1.51
aF-1.3399999999999999
aF1.0600000000000018
aF-0.5299999999999991
aF0.35000000000000137
aF-0.7999999999999994
aF1.250000000000002
aF1.4300000000000022
aF-0.43999999999999906
aF1.330000000000002
aF-1.2199999999999998
aF-0.8299999999999994
aF0.2600000000000013
aF0.3800000000000014
aF-1.4
aF0.4100000000000014
aF0.8600000000000018
aF-0.8399999999999994
aF-0.9399999999999995
aF0.12000000000000118
aF1.340000000000002
aF-0.4599999999999991
aF-0.7099999999999993
aF0.9400000000000018
aF0.7800000000000017
aF-1.2599999999999998
aF0.22000000000000125
aF-1.44
aF0.1500000000000012
aF-0.7199999999999993
aF1.0800000000000018
aF-0.4799999999999991
aF0.1700000000000012
aF0.5100000000000015
aF-1.51
aF-0.17999999999999883
aF-0.1499999999999988
aF0.4900000000000015
aF-0.4699999999999991
aF-0.6199999999999992
aF1.250000000000002
aF0.4800000000000015
aF-1.52
aF0.31000000000000133
aF-0.1599999999999988
aF-1.1599999999999997
aF0.14000000000000118
aF-0.7899999999999994
aF0.9000000000000018
aF-0.7799999999999994
aF-0.6399999999999992
aF-1.0099999999999996
aF-0.8099999999999994
aF0.5600000000000015
aF0.8900000000000018
aF-0.6399999999999992
aF-0.32999999999999896
aF0.8400000000000017
aF-0.5199999999999991
aF-0.06999999999999881
aF1.4900000000000022
aF-0.5199999999999991
aF-0.9699999999999995
aF-1.0499999999999996
aF0.7500000000000017
aF-1.0499999999999996
aF-0.9899999999999995
aF-0.7399999999999993
aF-1.1099999999999997
aF-0.9999999999999996
aF-0.16999999999999882
aF0.3900000000000014
aF0.8500000000000018
aF-1.2299999999999998
aF1.5400000000000023
aF1.210000000000002
aF0.9000000000000018
aF1.0400000000000018
aF-0.1599999999999988
aF-0.6999999999999993
aF1.4600000000000022
aF0.32000000000000134
aF1.3800000000000021
aF-1.1999999999999997
aF-0.42999999999999905
aF-0.9299999999999995
aF-0.7799999999999994
aF-1.2599999999999998
aF-1.46
aF-1.39
aF0.32000000000000134
aF0.9200000000000018
aF0.8300000000000017
aF0.4900000000000015
aF1.0500000000000018
aF0.3900000000000014
aF1.4300000000000022
aF0.4200000000000014
aF-1.2499999999999998
aF0.21000000000000124
aF-0.369999999999999
aF0.22000000000000125
aF1.1000000000000019
aF-0.9599999999999995
aF-0.06999999999999881
aF0.7700000000000017
aF-0.16999999999999882
aF0.2900000000000013
aF-0.1399999999999988
aF-0.05999999999999881
aF0.9800000000000019
aF-0.5799999999999992
aF-0.389999999999999
aF-1.42
aF-0.7999999999999994
aF-0.6099999999999992
aF0.8800000000000018
aF0.6300000000000016
aF0.9200000000000018
aF-1.3099999999999998
aF0.7100000000000016
aF1.3900000000000021
aF0.5100000000000015
aF-0.9399999999999995
aF0.7200000000000016
aF-1.1199999999999997
aF0.5900000000000015
aF0.9300000000000018
aF-1.2699999999999998
aF-1.5
aF0.2500000000000013
aF1.250000000000002
aF-0.6199999999999992
aF-0.5699999999999992
aF-0.03999999999999881
aF-0.6799999999999993
aF0.46000000000000146
aF1.5100000000000022
aF0.32000000000000134
aF0.7200000000000016
aF-1.51
aF1.3900000000000021
aF-0.2499999999999989
aF1.0700000000000018
aF-0.42999999999999905
aF-1.0899999999999996
aF0.7400000000000017
aF1.240000000000002
aF-1.3299999999999998
aF-0.07999999999999881
aF1.240000000000002
aF-1.45
aF-0.6299999999999992
aF1.220000000000002
aF1.240000000000002
aF-1.0699999999999996
aF-0.16999999999999882
aF1.4800000000000022
aF0.9700000000000019
aF-1.57
aF-0.6699999999999993
aF1.140000000000002
aF0.6100000000000015
aF0.9300000000000018
aF-0.1399999999999988
aF-0.6299999999999992
aF1.0400000000000018
aF0.10000000000000119
aF-0.2899999999999989
aF0.20000000000000123
aF0.5400000000000015
aF0.7300000000000016
aF-0.359999999999999
aF0.2600000000000013
aF-0.1499999999999988
aF0.0800000000000012
aF0.2600000000000013
aF-1.0999999999999996
aF-1.54
aF-0.32999999999999896
aF0.4100000000000014
aF-0.369999999999999
aF-1.1499999999999997
aF1.4600000000000022
aF0.2700000000000013
aF0.6600000000000016
aF0.7700000000000017
aF0.8300000000000017
aF0.8800000000000018
aF0.8600000000000018
aF0.33000000000000135
aF0.4200000000000014
aF1.5300000000000022
aF0.7600000000000017
aF-0.9199999999999995
aF-1.1099999999999997
aF0.4800000000000015
aF0.7000000000000016
aF0.020000000000001197
aF1.4900000000000022
aF-0.2499999999999989
aF-0.6399999999999992
aF0.19000000000000122
aF-1.1199999999999997
aF1.1969591984239969e-15
aF-0.17999999999999883
aF1.1969591984239969e-15
aF-0.33999999999999897
aF-0.30999999999999894
aF0.9900000000000019
aF1.4700000000000022
aF-0.8399999999999994
aF-0.1099999999999988
aF1.1200000000000019
aF0.010000000000001197
aF0.060000000000001205
aF0.5100000000000015
aF-1.2099999999999997
aF-0.8199999999999994
aF0.0400000000000012
aF0.7400000000000017
aF-0.8999999999999995
aF-0.5999999999999992
aF-0.43999999999999906
aF0.0500000000000012
aF-0.369999999999999
aF-0.6699999999999993
aF-0.23999999999999888
aF-1.46
aF-0.23999999999999888
aF-0.5199999999999991
aF-0.9799999999999995
aF0.34000000000000136
aF-0.22999999999999887
aF0.8000000000000017
aF1.0900000000000019
aF-0.2499999999999989
aF0.9400000000000018
aF0.7900000000000017
aF-0.23999999999999888
aF0.9300000000000018
aF-0.5899999999999992
aF-1.2199999999999998
aF-0.6599999999999993
aF1.4100000000000021
aF0.09000000000000119
aF0.5600000000000015
aF1.5000000000000022
aF1.3800000000000021
aF1.5100000000000022
aF-0.7799999999999994
aF1.4600000000000022
aF0.6700000000000016
aF1.290000000000002
aF0.33000000000000135
aF-0.04999999999999881
aF-0.9299999999999995
aF1.0000000000000018
aF-0.8599999999999994
aF-0.29999999999999893
aF0.7100000000000016
aF-0.18999999999999884
aF0.7000000000000016
aF-1.0399999999999996
aF-0.8499999999999994
aF-0.7399999999999993
aF0.060000000000001205
aF-1.3699999999999999
aF0.1700000000000012
aF-1.1399999999999997
aF-0.11999999999999879
aF-1.2299999999999998
aF1.4600000000000022
aF-0.7499999999999993
aF-1.2099999999999997
aF-0.4599999999999991
aF0.8500000000000018
aF-0.4899999999999991
aF0.33000000000000135
aF-0.18999999999999884
aF0.9600000000000019
aF0.21000000000000124
aF0.5300000000000015
aF-0.9499999999999995
aF-1.2199999999999998
aF-0.9599999999999995
aF-0.8799999999999994
aF1.5600000000000023
aF-1.3599999999999999
aF-0.31999999999999895
aF-0.0999999999999988
aF-0.6999999999999993
aF-1.1599999999999997
aF1.0100000000000018
aF0.9300000000000018
aF-1.0099999999999996
aF-1.3499999999999999
aF-0.9099999999999995
aF0.13000000000000117
aF-1.3499999999999999
aF1.140000000000002
aF0.4800000000000015
aF-1.46
aF0.8300000000000017
aF-1.56
aF0.5800000000000015
aF1.4400000000000022
aF-0.0899999999999988
aF-1.0899999999999996
aF-0.399999999999999
aF-0.379999999999999
aF-0.5799999999999992
aF1.190000000000002
aF0.22000000000000125
aF-0.369999999999999
aF0.5100000000000015
aF1.250000000000002
aF1.0200000000000018
aF-1.39
aF-1.0499999999999996
aF0.6400000000000016
aF-0.0899999999999988
aF0.1600000000000012
aF0.14000000000000118
aF1.0100000000000018
aF0.5600000000000015
aF-0.9099999999999995
aF0.6800000000000016
aF1.370000000000002
aF0.9600000000000019
aF-1.52
aF-1.3099999999999998
aF0.8900000000000018
aF-0.2599999999999989
aF1.3900000000000021
aF0.8300000000000017
aF1.170000000000002
aF-1.2899999999999998
aF1.160000000000002
aF1.4200000000000021
aF-0.33999999999999897
aF0.9700000000000019
aF0.8800000000000018
aF-1.2399999999999998
aF1.5100000000000022
aF-0.9199999999999995
aF-0.349999999999999
aF0.0700000000000012
aF0.8500000000000018
aF-0.7799999999999994
aF-0.6599999999999993
aF0.8600000000000018
aF0.12000000000000118
aF-0.29999999999999893
aF0.5300000000000015
aF0.3700000000000014
aF0.8700000000000018
aF-0.1399999999999988
aF-1.51
aF-1.0899999999999996
aF-0.0999999999999988
aF0.0700000000000012
aF-0.9599999999999995
aF0.6700000000000016
aF0.5500000000000015
aF0.5600000000000015
aF1.280000000000002
aF-1.0799999999999996
aF-0.8699999999999994
aF1.220000000000002
aF0.2800000000000013
aF0.6800000000000016
aF-0.07999999999999881
aF1.0800000000000018
aF-1.42
aF-0.8799999999999994
aF0.34000000000000136
aF0.43000000000000144
aF-0.399999999999999
aF-0.9699999999999995
aF0.9200000000000018
aF1.290000000000002
aF-0.1499999999999988
aF-0.31999999999999895
aF-0.1399999999999988
aF0.21000000000000124
aF0.9200000000000018
aF-0.8199999999999994
aF-1.0699999999999996
aF-0.6799999999999993
aF1.1969591984239969e-15
aF1.210000000000002
aF0.8100000000000017
aF-1.57
aF-1.42
aF0.5800000000000015
aF0.6400000000000016
aF1.3800000000000021
aF-0.7299999999999993
aF0.8200000000000017
aF-0.06999999999999881
aF0.6800000000000016
aF-0.8999999999999995
aF-1.52
aF0.3900000000000014
aF1.0300000000000018
aF1.210000000000002
aF1.340000000000002
aF1.340000000000002
aF-1.0499999999999996
aF-0.5099999999999991
aF0.8100000000000017
aF-0.4699999999999991
aF-1.0499999999999996
aF-0.5499999999999992
aF0.2500000000000013
aF-0.32999999999999896
aF-0.03999999999999881
aF0.7800000000000017
aF-0.16999999999999882
aF0.0300000000000012
aF-1.1099999999999997
aF0.8100000000000017
aF1.290000000000002
aF0.6700000000000016
aF0.2500000000000013
aF-0.7099999999999993
aF-0.8499999999999994
aF1.170000000000002
aF-0.2799999999999989
aF0.34000000000000136
aF-0.5699999999999992
aF0.09000000000000119
aF-0.5799999999999992
aF-0.7999999999999994
aF1.4600000000000022
aF0.4900000000000015
aF-1.1499999999999997
aF-0.40999999999999903
aF1.330000000000002
aF-0.5699999999999992
aF0.5600000000000015
aF0.8300000000000017
aF-0.17999999999999883
aF-0.7899999999999994
aF0.5800000000000015
aF-0.2799999999999989
aF0.8900000000000018
aF-1.48
aF1.5200000000000022
aF0.8700000000000018
aF-0.9899999999999995
aF-1.4
aF-1.3199999999999998
aF-0.6099999999999992
aF-1.57
aF-0.04999999999999881
aF-0.5399999999999991
aF-0.04999999999999881
aF-0.8199999999999994
aF0.32000000000000134
aF-0.6999999999999993
aF-0.18999999999999884
aF-1.0799999999999996
aF0.20000000000000123
aF1.350000000000002
aF0.4200000000000014
aF1.0700000000000018
aF-1.48
aF-0.5199999999999991
aF1.160000000000002
aF-0.009999999999998803
aF-0.11999999999999879
aF0.11000000000000118
aF-0.22999999999999887
aF-1.3599999999999999
aF0.0400000000000012
aF1.5000000000000022
aF1.0800000000000018
aF0.8000000000000017
aF0.0800000000000012
aF0.6300000000000016
aF0.44000000000000145
aF-1.57
aF0.5800000000000015
aF0.4000000000000014
aF0.21000000000000124
aF-0.43999999999999906
aF0.3900000000000014
aF-0.389999999999999
aF0.18000000000000121
aF1.0800000000000018
aF1.0500000000000018
aF0.0500000000000012
aF-0.4699999999999991
aF-1.0799999999999996
aF-0.5599999999999992
aF-0.43999999999999906
aF1.4600000000000022
aF-0.9299999999999995
aF-0.5499999999999992
aF-0.05999999999999881
aF0.19000000000000122
aF0.8000000000000017
aF1.0300000000000018
aF-1.0599999999999996
aF1.0000000000000018
aF-0.16999999999999882
aF1.0000000000000018
aF-1.56
aF-0.8399999999999994
aF1.130000000000002
aF0.9200000000000018
aF0.9300000000000018
aF0.9300000000000018
aF-1.43
aF1.230000000000002
aF1.1000000000000019
aF0.8300000000000017
aF1.0400000000000018
aF-0.18999999999999884
aF0.4000000000000014
aF-1.1799999999999997
aF1.190000000000002
aF-1.51
aF-0.7299999999999993
aF-1.2799999999999998
aF-1.0499999999999996
aF0.9600000000000019
aF-0.18999999999999884
aF1.170000000000002
aF-0.29999999999999893
aF1.220000000000002
aF-1.2299999999999998
aF1.5100000000000022
aF-0.12999999999999878
aF0.8700000000000018
aF0.5800000000000015
aF0.8700000000000018
aF0.7900000000000017
aF-0.21999999999999886
aF1.4500000000000022
aF-1.3499999999999999
aF0.8100000000000017
aF0.33000000000000135
aF1.0800000000000018
aF-1.43
aF-1.3599999999999999
aF-1.1099999999999997
aF-0.019999999999998803
aF0.7800000000000017
aF-1.2599999999999998
aF-1.1599999999999997
aF1.4500000000000022
aF0.2900000000000013
aF0.32000000000000134
aF-0.5299999999999991
aF1.0400000000000018
aF0.47000000000000147
aF-0.7399999999999993
aF0.34000000000000136
aF-0.7499999999999993
aF-1.51
aF-0.9699999999999995
aF1.5400000000000023
aF-0.6399999999999992
aF1.5300000000000022
aF0.14000000000000118
aF1.4800000000000022
aF-1.3399999999999999
aF-0.7599999999999993
aF-1.54
aF0.7100000000000016
aF-0.0999999999999988
aF0.8800000000000018
aF1.0600000000000018
aF-1.3499999999999999
aF-0.5499999999999992
aF0.46000000000000146
aF-0.2699999999999989
aF-0.029999999999998805
aF0.6200000000000015
aF-0.9499999999999995
aF-0.5799999999999992
aF-0.7099999999999993
aF-1.2899999999999998
aF0.8100000000000017
aF-0.7599999999999993
aF1.370000000000002
aF-0.7399999999999993
aF1.0900000000000019
aF-0.8499999999999994
aF0.7600000000000017
aF1.0200000000000018
aF1.4700000000000022
aF-1.1799999999999997
aF-1.3599999999999999
aF0.3900000000000014
aF-0.0999999999999988
aF0.8000000000000017
aF0.8100000000000017
aF-0.9299999999999995
aF0.12000000000000118
aF-1.53
aF0.6900000000000016
aF-1.1399999999999997
aF0.8000000000000017
aF0.6200000000000015
aF0.18000000000000121
aF-0.9099999999999995
aF-0.6599999999999993
aF0.7400000000000017
aF0.6000000000000015
aF0.22000000000000125
aF-1.2699999999999998
aF0.9500000000000018
aF0.020000000000001197
aF-0.1399999999999988
aF-0.399999999999999
aF-1.0299999999999996
aF0.4900000000000015
aF0.32000000000000134
aF-0.0899999999999988
aF1.0300000000000018
aF0.3600000000000014
aF0.1700000000000012
aF1.290000000000002
aF-0.31999999999999895
aF-1.4
aF1.0700000000000018
aF0.10000000000000119
aF-1.0599999999999996
aF1.5400000000000023
aF-0.5099999999999991
aF-1.2899999999999998
aF0.7500000000000017
aF0.6300000000000016
aF0.0500000000000012
aF0.09000000000000119
aF-1.1099999999999997
aF1.1200000000000019
aF0.8900000000000018
aF1.4800000000000022
aF1.5200000000000022
aF1.340000000000002
aF-1.54
aF0.6200000000000015
aF-1.38
aF1.0000000000000018
aF-0.6799999999999993
aF-0.31999999999999895
aF1.0000000000000018
aF1.250000000000002
aF-0.7699999999999994
aF1.290000000000002
aF-0.5599999999999992
aF0.8200000000000017
aF0.010000000000001197
aF0.8300000000000017
aF-0.2499999999999989
aF-0.8599999999999994
aF0.45000000000000145
aF-0.5699999999999992
aF-0.32999999999999896
aF-1.3199999999999998
aF-1.0799999999999996
aF-0.8099999999999994
aF-1.41
aF0.22000000000000125
aF-0.1399999999999988
aF-1.2699999999999998
aF-1.0799999999999996
aF-0.5199999999999991
aF0.09000000000000119
aF-0.8899999999999995
aF-0.389999999999999
aF-0.6899999999999993
aF-0.7199999999999993
aF-0.9599999999999995
aF-1.2699999999999998
aF-1.2599999999999998
aF-1.2499999999999998
aF-1.2399999999999998
aF-1.2299999999999998
aF-1.43
aF-0.379999999999999
aF-0.6399999999999992
aF0.7200000000000016
aF-0.16999999999999882
aF-0.359999999999999
aF0.32000000000000134
aF1.370000000000002
aF1.4700000000000022
aF-0.6699999999999993
aF-0.31999999999999895
aF-1.3499999999999999
aF-1.44
aF1.4600000000000022
aF0.32000000000000134
aF1.5000000000000022
aF0.8400000000000017
aF0.1700000000000012
aF1.360000000000002
aF1.3800000000000021
aF-0.009999999999998803
aF0.6900000000000016
aF1.5500000000000023
aF-1.4
aF-0.7599999999999993
aF-1.43
aF0.6400000000000016
aF-1.39
aF0.6700000000000016
aF-1.3199999999999998
aF1.180000000000002
aF-0.9299999999999995
aF-1.2299999999999998
aF-0.7599999999999993
aF1.0400000000000018
aF-0.009999999999998803
aF-0.30999999999999894
aF-1.51
aF1.0700000000000018
aF-0.369999999999999
aF1.0400000000000018
aF0.8800000000000018
aF1.4600000000000022
aF-0.029999999999998805
aF0.9500000000000018
aF-0.5299999999999991
aF-0.1099999999999988
aF0.4200000000000014
aF-0.8999999999999995
aF-1.0699999999999996
aF1.4100000000000021
aF0.0300000000000012
aF-0.2899999999999989
aF-0.44999999999999907
aF-0.07999999999999881
aF0.0800000000000012
aF0.32000000000000134
aF-0.8999999999999995
aF-0.7699999999999994
aF0.7800000000000017
aF1.260000000000002
aF-1.2699999999999998
aF-1.2699999999999998
aF-0.0999999999999988
aF0.5400000000000015
aF-0.44999999999999907
aF-0.5899999999999992
aF-1.39
aF-0.4799999999999991
aF-0.43999999999999906
aF-0.8599999999999994
aF0.9200000000000018
aF0.5500000000000015
aF0.010000000000001197
aF0.2900000000000013
aF-0.5199999999999991
aF-0.5699999999999992
aF-1.1699999999999997
aF1.4300000000000022
aF-1.51
aF0.5900000000000015
aF0.6200000000000015
aF0.6100000000000015
aF-0.0899999999999988
aF-0.19999999999999885
aF0.7500000000000017
aF0.19000000000000122
aF-1.1499999999999997
aF-0.349999999999999
aF-0.8899999999999995
aF-0.6199999999999992
aF1.350000000000002
aF-0.8699999999999994
aF0.8000000000000017
aF-0.11999999999999879
aF-0.1599999999999988
aF1.270000000000002
aF-0.8099999999999994
aF0.9600000000000019
aF0.32000000000000134
aF-0.20999999999999885
aF1.290000000000002
aF1.210000000000002
aF-0.7299999999999993
aF0.8400000000000017
aF-0.2799999999999989
aF-1.51
aF-1.43
aF1.0000000000000018
aF0.24000000000000127
aF0.3700000000000014
aF0.7100000000000016
aF1.3900000000000021
aF-0.05999999999999881
aF0.6700000000000016
aF0.7200000000000016
aF0.9600000000000019
aF1.3800000000000021
aF0.24000000000000127
aF-1.57
aF1.4000000000000021
aF-1.1899999999999997
aF1.4600000000000022
aF0.7600000000000017
aF1.5500000000000023
aF-1.1199999999999997
aF1.0300000000000018
aF0.7500000000000017
aF-1.48
aF-0.4899999999999991
aF1.1100000000000019
aF0.43000000000000144
aF-0.6999999999999993
aF0.47000000000000147
aF-0.6999999999999993
aF0.5400000000000015
aF0.6600000000000016
aF0.9000000000000018
aF0.6700000000000016
aF0.46000000000000146
aF1.0300000000000018
aF-0.009999999999998803
aF-0.6399999999999992
aF0.4200000000000014
aF-0.05999999999999881
aF-0.6999999999999993
aF-0.44999999999999907
aF1.5400000000000023
aF-0.8299999999999994
aF-0.22999999999999887
aF0.0800000000000012
aF0.6500000000000016
aF0.7700000000000017
aF0.9000000000000018
aF0.14000000000000118
aF0.5100000000000015
aF-0.399999999999999
aF-0.8599999999999994
aF1.350000000000002
aF-0.6099999999999992
aF1.230000000000002
aF1.210000000000002
aF1.140000000000002
aF-0.19999999999999885
aF0.9600000000000019
aF-0.16999999999999882
aF-0.03999999999999881
aF-0.43999999999999906
aF-0.7799999999999994
aF-0.2499999999999989
aF-1.2699999999999998
aF-0.21999999999999886
aF0.13000000000000117
aF0.5000000000000014
aF0.11000000000000118
aF-1.0999999999999996
aF-1.0099999999999996
aF0.35000000000000137
aF0.6200000000000015
aF-0.23999999999999888
aF0.2900000000000013
aF-0.42999999999999905
aF0.7300000000000016
aF-0.19999999999999885
aF-1.55
aF0.43000000000000144
aF1.260000000000002
aF-0.16999999999999882
aF0.4800000000000015
aF-0.1099999999999988
aF0.5300000000000015
aF1.5500000000000023
aF0.3000000000000013
aF-0.9999999999999996
aF-0.8399999999999994
aF-0.33999999999999897
aF-0.19999999999999885
aF-0.379999999999999
aF1.260000000000002
aF-1.3399999999999999
aF1.3800000000000021
aF-0.9999999999999996
aF-1.2699999999999998
aF-0.9899999999999995
aF1.5300000000000022
aF-0.9499999999999995
aF0.8500000000000018
aF-1.0899999999999996
aF0.4900000000000015
aF-0.30999999999999894
aF-0.30999999999999894
aF0.45000000000000145
aF0.1500000000000012
aF0.2900000000000013
aF-0.6099999999999992
aF0.8300000000000017
aF-0.7799999999999994
aF-0.9999999999999996
aF0.9000000000000018
aF0.060000000000001205
aF0.6300000000000016
aF1.250000000000002
aF0.2800000000000013
aF1.180000000000002
aF0.8600000000000018
aF0.45000000000000145
aF1.0700000000000018
aF-0.6199999999999992
aF1.4200000000000021
aF1.0200000000000018
aF-1.47
aF0.6500000000000016
aF0.4100000000000014
aF-0.6499999999999992
aF-0.7899999999999994
aF-0.18999999999999884
aF0.7000000000000016
aF0.32000000000000134
aF-0.9299999999999995
aF0.4000000000000014
aF-0.359999999999999
aF-0.8699999999999994
aF-1.2899999999999998
aF-0.30999999999999894
aF-0.43999999999999906
aF-0.8599999999999994
aF-0.7599999999999993
aF-0.43999999999999906
aF0.31000000000000133
aF1.4800000000000022
aF-1.2299999999999998
aF-0.8699999999999994
aF0.09000000000000119
aF-0.7999999999999994
aF1.140000000000002
aF-0.4999999999999991
aF0.9800000000000019
aF1.0200000000000018
aF-1.2199999999999998
aF-1.42
aF0.4100000000000014
aF-0.03999999999999881
aF-0.369999999999999
aF0.5300000000000015
aF1.230000000000002
aF1.350000000000002
aF0.22000000000000125
aF0.5900000000000015
aF0.6300000000000016
aF0.8900000000000018
aF-1.2899999999999998
aF1.4400000000000022
aF-1.3199999999999998
aF0.4800000000000015
aF-0.9999999999999996
aF-0.32999999999999896
aF1.4600000000000022
aF0.4100000000000014
aF1.170000000000002
aF1.210000000000002
aF-1.0899999999999996
aF-0.9099999999999995
aF0.8400000000000017
aF-0.5699999999999992
aF-0.009999999999998803
aF1.0300000000000018
aF-1.53
aF-0.2799999999999989
aF-0.1399999999999988
aF1.140000000000002
aF-0.7899999999999994
aF0.010000000000001197
aF1.180000000000002
aF0.8200000000000017
aF-1.3299999999999998
aF-1.3099999999999998
aF0.6900000000000016
aF0.4800000000000015
aF0.060000000000001205
aF0.8700000000000018
aF0.8000000000000017
aF-1.1799999999999997
aF-0.6599999999999993
aF-1.0999999999999996
aF-0.04999999999999881
aF0.7000000000000016
aF0.31000000000000133
aF1.0200000000000018
aF0.4900000000000015
aF-0.8899999999999995
aF0.5200000000000015
aF1.4700000000000022
aF-0.6699999999999993
aF0.46000000000000146
aF0.5800000000000015
aF0.20000000000000123
aF1.280000000000002
aF-0.399999999999999
aF-0.5699999999999992
aF1.340000000000002
aF1.140000000000002
aF0.8900000000000018
aF-0.8799999999999994
aF-1.44
aF0.4800000000000015
aF-1.3499999999999999
aF-1.4
aF0.6000000000000015
aF-0.22999999999999887
aF1.4200000000000021
aF-1.1999999999999997
aF0.0300000000000012
aF0.6500000000000016
aF-1.0899999999999996
aF-1.2799999999999998
aF0.34000000000000136
aF-1.57
aF0.6000000000000015
aF0.9600000000000019
aF-0.7399999999999993
aF-0.5899999999999992
aF-1.0499999999999996
aF0.20000000000000123
aF0.1700000000000012
aF-0.11999999999999879
aF-0.009999999999998803
aF0.4000000000000014
aF-1.3699999999999999
aF-0.7399999999999993
aF1.0400000000000018
aF-1.0299999999999996
aF-1.51
aF-1.2499999999999998
aF0.7400000000000017
aF0.4100000000000014
aF0.5000000000000014
aF-0.7099999999999993
aF0.44000000000000145
aF1.4100000000000021
aF-1.48
aF0.7000000000000016
aF-0.7299999999999993
aF1.3900000000000021
aF1.190000000000002
aF0.010000000000001197
aF-0.7799999999999994
aF-1.1899999999999997
aF-0.5199999999999991
aF-1.54
aF1.240000000000002
aF1.130000000000002
aF-0.12999999999999878
aF0.33000000000000135
aF-0.44999999999999907
aF1.370000000000002
aF-1.3099999999999998
aF0.5100000000000015
aF0.5200000000000015
aF-1.38
aF-1.3299999999999998
aF-0.7299999999999993
aF1.350000000000002
aF1.210000000000002
aF-1.0599999999999996
aF1.160000000000002
aF-0.369999999999999
aF-0.9499999999999995
aF-0.6099999999999992
aF1.220000000000002
aF-1.0299999999999996
aF0.010000000000001197
aF1.330000000000002
aF0.4800000000000015
aF0.9600000000000019
aF0.5900000000000015
aF-0.0899999999999988
aF-1.1999999999999997
aF-0.389999999999999
aF-1.44
aF-0.009999999999998803
aF-0.9299999999999995
aF1.5500000000000023
aF0.7300000000000016
aF0.8000000000000017
aF-1.3399999999999999
aF-1.57
aF-1.1799999999999997
aF0.18000000000000121
aF-0.2799999999999989
aF0.5200000000000015
aF0.18000000000000121
aF-0.5299999999999991
aF-0.399999999999999
aF0.23000000000000126
aF0.4800000000000015
aF-0.029999999999998805
aF-0.7899999999999994
aF1.4100000000000021
aF-0.9099999999999995
aF0.3600000000000014
aF-0.9599999999999995
aF1.1100000000000019
aF-0.9299999999999995
aF0.6700000000000016
aF1.4700000000000022
aF-0.20999999999999885
aF1.220000000000002
aF-0.8099999999999994
aF-0.17999999999999883
aF-0.05999999999999881
aF-1.47
aF0.7500000000000017
aF0.14000000000000118
aF-1.2899999999999998
aF-1.2499999999999998
aF-0.9099999999999995
aF-0.7899999999999994
aF0.060000000000001205
aF-0.5699999999999992
aF0.34000000000000136
aF1.5200000000000022
aF0.2600000000000013
aF1.0700000000000018
aF0.7900000000000017
aF-0.2899999999999989
aF0.060000000000001205
aF0.2700000000000013
aF1.0600000000000018
aF1.1200000000000019
aF-0.07999999999999881
aF1.360000000000002
aF1.4000000000000021
aF-0.6499999999999992
aF-1.45
aF0.9500000000000018
aF-0.6299999999999992
aF0.46000000000000146
aF1.250000000000002
aF1.240000000000002
aF-1.1499999999999997
aF0.5800000000000015
aF0.0300000000000012
aF-1.2099999999999997
aF0.8300000000000017
aF1.1969591984239969e-15
aF0.8200000000000017
aF0.6300000000000016
aF-0.05999999999999881
aF0.9500000000000018
aF1.140000000000002
aF-0.2799999999999989
aF1.0400000000000018
aF0.9500000000000018
aF-0.9099999999999995
aF0.7600000000000017
aF0.21000000000000124
aF-0.399999999999999
aF0.21000000000000124
aF-1.44
aF0.20000000000000123
aF0.5500000000000015
aF-1.1099999999999997
aF-0.7299999999999993
aF-1.0299999999999996
aF-1.2199999999999998
aF-1.1699999999999997
aF1.200000000000002
aF0.9900000000000019
aF-1.3099999999999998
aF-0.0999999999999988
aF1.0600000000000018
aF-0.4699999999999991
aF1.1200000000000019
aF0.6800000000000016
aF1.4200000000000021
aF-0.9999999999999996
aF-0.7399999999999993
aF0.7000000000000016
aF-0.1499999999999988
aF-0.5399999999999991
aF-1.1999999999999997
aF-0.8699999999999994
aF-0.8499999999999994
aF-1.3599999999999999
aF0.010000000000001197
aF0.0800000000000012
aF0.7700000000000017
aF1.0400000000000018
aF1.4000000000000021
aF-1.3099999999999998
aF-0.6199999999999992
aF-1.55
aF0.2600000000000013
aF-0.16999999999999882
aF0.6300000000000016
aF1.0400000000000018
aF1.260000000000002
aF-1.1899999999999997
aF-0.5099999999999991
aF0.5900000000000015
aF0.9300000000000018
aF1.4900000000000022
aF-0.7299999999999993
aF0.2500000000000013
aF1.0300000000000018
aF0.5600000000000015
aF0.3000000000000013
aF0.12000000000000118
aF-1.39
aF0.46000000000000146
aF0.8300000000000017
aF0.9400000000000018
aF1.180000000000002
aF0.2500000000000013
aF0.12000000000000118
aF0.4800000000000015
aF-0.7099999999999993
aF-0.4799999999999991
aF0.3700000000000014
aF0.5400000000000015
aF-1.49
aF0.020000000000001197
aF-1.3499999999999999
aF-0.0899999999999988
aF0.8800000000000018
aF-0.7099999999999993
aF0.20000000000000123
aF0.5000000000000014
aF1.4100000000000021
aF0.8800000000000018
aF0.3800000000000014
aF-1.1699999999999997
aF-0.05999999999999881
aF-0.7499999999999993
aF-0.6099999999999992
aF0.9800000000000019
aF-1.1299999999999997
aF-0.6499999999999992
aF0.8900000000000018
aF-0.7999999999999994
aF-0.9999999999999996
aF-0.359999999999999
aF-0.5799999999999992
aF-0.6399999999999992
aF1.0800000000000018
aF1.200000000000002
aF-1.1099999999999997
aF-0.1399999999999988
aF1.200000000000002
aF-0.1099999999999988
aF-0.379999999999999
aF1.1969591984239969e-15
aF0.0500000000000012
aF1.5300000000000022
aF0.45000000000000145
aF1.360000000000002
aF0.6400000000000016
aF0.23000000000000126
aF-1.3099999999999998
aF-1.46
aF-0.7599999999999993
aF0.43000000000000144
aF-1.44
aF-0.2599999999999989
aF-1.52
aF-0.41999999999999904
aF1.330000000000002
aF-0.16999999999999882
aF-0.389999999999999
aF0.33000000000000135
aF-0.41999999999999904
aF-0.03999999999999881
aF0.5800000000000015
aF-0.6299999999999992
aF-1.0599999999999996
aF0.5200000000000015
aF-0.1399999999999988
aF0.1500000000000012
aF-0.29999999999999893
aF-1.0599999999999996
aF-0.29999999999999893
aF0.1600000000000012
aF-0.1099999999999988
aF-0.43999999999999906
aF-1.1299999999999997
aF-0.9599999999999995
aF-0.8299999999999994
aF1.5100000000000022
aF0.24000000000000127
aF-1.1899999999999997
aF1.180000000000002
aF-0.9499999999999995
aF0.8600000000000018
aF-0.9199999999999995
aF0.9100000000000018
aF0.24000000000000127
aF1.360000000000002
aF-0.1399999999999988
aF0.7600000000000017
aF-0.2599999999999989
aF1.250000000000002
aF-0.9499999999999995
aF-0.06999999999999881
aF0.35000000000000137
aF1.220000000000002
aF0.8700000000000018
aF1.1100000000000019
aF0.47000000000000147
aF0.5600000000000015
aF-1.1599999999999997
aF-0.40999999999999903
aF-1.1399999999999997
aF-0.8999999999999995
aF-0.6799999999999993
aF-0.30999999999999894
aF-0.29999999999999893
aF-0.9299999999999995
aF-0.30999999999999894
aF-0.5099999999999991
aF0.7500000000000017
aF-0.8899999999999995
aF0.5100000000000015
aF-0.5999999999999992
aF1.180000000000002
aF-1.0199999999999996
aF0.14000000000000118
aF-0.5799999999999992
aF1.250000000000002
aF-0.7599999999999993
aF1.0500000000000018
aF-0.4599999999999991
aF-0.7899999999999994
aF0.45000000000000145
aF-0.2799999999999989
aF1.280000000000002
aF-0.16999999999999882
aF0.1500000000000012
aF0.6700000000000016
aF1.290000000000002
aF-0.5199999999999991
aF-0.9199999999999995
aF0.8000000000000017
aF0.8300000000000017
aF0.4100000000000014
aF1.300000000000002
aF0.35000000000000137
aF-1.2599999999999998
aF-0.8699999999999994
aF0.11000000000000118
aF-1.1199999999999997
aF0.0300000000000012
aF-0.42999999999999905
aF-0.5299999999999991
aF1.200000000000002
aF-0.379999999999999
aF1.4100000000000021
aF-0.8999999999999995
aF0.020000000000001197
aF0.5400000000000015
aF0.31000000000000133
aF0.34000000000000136
aF-0.19999999999999885
aF-0.9699999999999995
aF-0.40999999999999903
aF-0.17999999999999883
aF0.9300000000000018
aF0.8200000000000017
aF-0.9699999999999995
aF-1.2699999999999998
aF-1.0099999999999996
aF0.6000000000000015
aF1.290000000000002
aF-0.5399999999999991
aF0.31000000000000133
aF-0.23999999999999888
aF0.35000000000000137
aF1.0800000000000018
aF1.1100000000000019
aF1.0200000000000018
aF-1.0899999999999996
aF0.7600000000000017
aF-0.4799999999999991
aF-0.30999999999999894
aF0.7100000000000016
aF-0.21999999999999886
aF0.18000000000000121
aF1.330000000000002
aF0.22000000000000125
aF-0.2699999999999989
aF-0.5799999999999992
aF1.0300000000000018
aF-0.30999999999999894
aF0.11000000000000118
aF-0.029999999999998805
aF0.11000000000000118
aF1.3900000000000021
aF-0.5499999999999992
aF0.6400000000000016
aF-0.2699999999999989
aF0.0700000000000012
aF-1.3499999999999999
aF-0.05999999999999881
aF0.010000000000001197
aF1.180000000000002
aF1.4100000000000021
aF0.4800000000000015
aF-0.8899999999999995
aF-1.44
aF0.8000000000000017
aF-0.1599999999999988
aF-0.7799999999999994
aF0.9000000000000018
aF-1.5
aF-1.2499999999999998
aF0.6600000000000016
aF0.1500000000000012
aF1.5300000000000022
aF-1.0999999999999996
aF1.0000000000000018
aF0.020000000000001197
aF1.140000000000002
aF1.0700000000000018
aF-0.399999999999999
aF-1.0799999999999996
aF-0.5099999999999991
aF-0.20999999999999885
aF-0.9499999999999995
aF-0.05999999999999881
aF1.5400000000000023
aF-0.12999999999999878
aF0.6000000000000015
aF0.5100000000000015
aF-0.4999999999999991
aF1.320000000000002
aF-1.0999999999999996
aF-1.0199999999999996
aF-0.06999999999999881
aF1.210000000000002
aF0.31000000000000133
aF0.10000000000000119
aF0.9300000000000018
aF0.6800000000000016
aF-1.1599999999999997
aF-0.5899999999999992
aF0.9100000000000018
aF-1.56
aF-0.6299999999999992
aF0.3600000000000014
aF-0.9899999999999995
aF1.0200000000000018
aF1.370000000000002
aF0.6500000000000016
aF0.31000000000000133
aF0.060000000000001205
aF-1.54
aF-0.22999999999999887
aF-0.7099999999999993
aF1.5200000000000022
aF-0.43999999999999906
aF0.1600000000000012
aF-0.16999999999999882
aF0.8100000000000017
aF-1.0299999999999996
aF-0.19999999999999885
aF0.11000000000000118
aF-1.3099999999999998
aF1.370000000000002
aF0.1700000000000012
aF-0.8699999999999994
aF-0.7099999999999993
aF-1.2699999999999998
aF-1.2399999999999998
aF-1.3599999999999999
aF-1.57
aF-1.0499999999999996
aF0.7400000000000017
aF0.10000000000000119
aF-0.7799999999999994
aF0.8100000000000017
aF-0.1599999999999988
aF1.170000000000002
aF-0.389999999999999
aF1.0800000000000018
aF0.0700000000000012
aF0.32000000000000134
aF-1.3199999999999998
aF0.12000000000000118
aF0.5600000000000015
aF0.0500000000000012
aF-0.9099999999999995
aF0.33000000000000135
aF-1.3599999999999999
aF-0.03999999999999881
aF0.4000000000000014
aF-0.8399999999999994
aF-1.1299999999999997
aF-0.379999999999999
aF-0.32999999999999896
aF0.33000000000000135
aF0.4200000000000014
aF1.4200000000000021
aF-0.1599999999999988
aF1.240000000000002
aF0.10000000000000119
aF0.6100000000000015
aF0.31000000000000133
aF-0.6499999999999992
aF0.5900000000000015
aF0.0500000000000012
aF-1.51
aF-1.1099999999999997
aF-1.2699999999999998
aF1.310000000000002
aF-0.2899999999999989
aF0.5300000000000015
aF-1.3499999999999999
aF0.5600000000000015
aF0.0800000000000012
aF0.2500000000000013
aF-1.42
aF-0.9199999999999995
aF1.180000000000002
aF1.5600000000000023
aF0.2500000000000013
aF0.7200000000000016
aF0.1700000000000012
aF-1.0799999999999996
aF-0.8999999999999995
aF-0.1099999999999988
aF0.3600000000000014
aF-1.48
aF-1.1799999999999997
aF-0.5799999999999992
aF-1.41
aF0.5100000000000015
aF1.5300000000000022
aF1.190000000000002
aF0.7300000000000016
aF0.7800000000000017
aF0.020000000000001197
aF-0.22999999999999887
aF0.3800000000000014
aF-0.389999999999999
aF-0.8299999999999994
aF0.34000000000000136
aF1.0300000000000018
aF0.7100000000000016
aF0.060000000000001205
aF-0.5099999999999991
aF-1.0499999999999996
aF-1.47
aF-0.6099999999999992
aF1.4800000000000022
aF-0.23999999999999888
aF0.7100000000000016
aF-1.1999999999999997
aF1.0600000000000018
aF-0.9599999999999995
aF0.8400000000000017
aF-0.07999999999999881
aF-1.1299999999999997
aF-0.6399999999999992
aF-0.2599999999999989
aF1.4200000000000021
aF-0.11999999999999879
aF0.24000000000000127
aF-0.019999999999998803
aF0.8400000000000017
aF-0.8699999999999994
aF-0.4899999999999991
aF-1.56
aF1.4600000000000022
aF0.24000000000000127
aF0.9800000000000019
aF-0.6299999999999992
aF0.2800000000000013
aF-1.0799999999999996
aF-0.8099999999999994
aF-0.7999999999999994
aF1.160000000000002
aF-0.6299999999999992
aF0.2900000000000013
aF-1.53
aF-0.6099999999999992
aF-0.7599999999999993
aF0.4200000000000014
aF-0.7599999999999993
aF-0.20999999999999885
aF-0.7899999999999994
aF0.11000000000000118
aF1.260000000000002
aF-0.1399999999999988
aF-0.389999999999999
aF-1.5
aF-1.48
aF1.130000000000002
aF-0.42999999999999905
aF-0.9999999999999996
aF-0.8599999999999994
aF-0.9299999999999995
aF0.9400000000000018
aF0.8800000000000018
aF0.7600000000000017
aF-0.03999999999999881
aF-0.5599999999999992
aF1.1100000000000019
aF-1.3599999999999999
aF0.33000000000000135
aF-0.2499999999999989
aF-1.1299999999999997
aF-0.6399999999999992
aF-0.17999999999999883
aF-0.5099999999999991
aF0.10000000000000119
aF1.130000000000002
aF1.5300000000000022
aF0.8600000000000018
aF-1.1399999999999997
aF-0.5699999999999992
aF-1.41
aF0.6800000000000016
aF0.5700000000000015
aF-0.03999999999999881
aF0.020000000000001197
aF-0.29999999999999893
aF0.33000000000000135
aF0.0700000000000012
aF-0.30999999999999894
aF1.290000000000002
aF-0.8399999999999994
aF-0.11999999999999879
aF-0.22999999999999887
aF-1.43
aF-0.9099999999999995
aF0.7700000000000017
aF-0.6299999999999992
aF0.9200000000000018
aF-0.8799999999999994
aF-0.42999999999999905
aF1.160000000000002
aF-1.1399999999999997
aF1.1100000000000019
aF-1.5
aF0.10000000000000119
aF0.19000000000000122
aF-0.8099999999999994
aF0.4800000000000015
aF1.0800000000000018
aF0.11000000000000118
aF0.6200000000000015
aF-0.32999999999999896
aF-1.39
aF0.9000000000000018
aF1.1200000000000019
aF-1.0299999999999996
aF-0.12999999999999878
aF-1.3199999999999998
aF-0.8199999999999994
aF-0.349999999999999
aF-1.0099999999999996
aF-1.1999999999999997
aF-0.19999999999999885
aF-0.2699999999999989
aF0.14000000000000118
aF1.5600000000000023
aF-0.6499999999999992
aF1.4800000000000022
aF0.8900000000000018
aF-0.1399999999999988
aF0.8300000000000017
aF0.010000000000001197
aF1.4100000000000021
aF-1.0999999999999996
aF0.11000000000000118
aF-1.3399999999999999
aF-0.5599999999999992
aF-0.359999999999999
aF-0.2899999999999989
aF1.4300000000000022
aF1.0000000000000018
aF-0.8299999999999994
aF-0.23999999999999888
aF0.8300000000000017
aF-1.0599999999999996
aF-0.9599999999999995
aF0.22000000000000125
aF0.8100000000000017
aF0.13000000000000117
aF-0.23999999999999888
aF0.4200000000000014
aF0.18000000000000121
aF-0.5099999999999991
aF-0.6499999999999992
aF0.9000000000000018
aF-1.3099999999999998
aF0.8100000000000017
aF0.9400000000000018
aF1.280000000000002
aF0.4000000000000014
aF1.1200000000000019
aF0.7100000000000016
aF0.6200000000000015
aF-0.40999999999999903
aF0.0800000000000012
aF0.6800000000000016
aF-0.9299999999999995
aF0.9000000000000018
aF-0.41999999999999904
aF-1.54
aF0.45000000000000145
aF-0.8899999999999995
aF-0.7599999999999993
aF-1.57
aF-1.0499999999999996
aF-0.17999999999999883
aF0.4100000000000014
aF-1.1999999999999997
aF-0.40999999999999903
aF0.6600000000000016
aF1.0500000000000018
aF0.2800000000000013
aF1.160000000000002
aF-0.05999999999999881
aF1.0500000000000018
aF0.34000000000000136
aF-0.2699999999999989
aF-0.9599999999999995
aF-1.1899999999999997
aF-0.29999999999999893
aF-0.2499999999999989
aF0.7200000000000016
aF-1.53
aF-1.46
aF0.8600000000000018
aF-1.0199999999999996
aF-0.19999999999999885
aF0.8700000000000018
aF0.10000000000000119
aF1.4500000000000022
aF-0.399999999999999
aF1.0700000000000018
aF-0.07999999999999881
aF0.24000000000000127
aF0.7900000000000017
aF-1.1499999999999997
aF-0.44999999999999907
aF0.24000000000000127
aF-1.1299999999999997
aF-1.42
aF1.280000000000002
aF-0.9099999999999995
aF1.310000000000002
aF1.0000000000000018
aF-1.2399999999999998
aF-1.0999999999999996
aF-1.0799999999999996
aF0.2500000000000013
aF0.9300000000000018
aF-0.9799999999999995
aF-0.7699999999999994
aF1.0000000000000018
aF0.19000000000000122
aF1.190000000000002
aF-1.2999999999999998
aF1.360000000000002
aF0.7600000000000017
aF0.9300000000000018
aF-0.03999999999999881
aF-0.16999999999999882
aF0.24000000000000127
aF-0.8299999999999994
aF0.8000000000000017
aF0.2800000000000013
aF0.4200000000000014
aF-1.1299999999999997
aF-0.029999999999998805
aF-1.38
aF-1.2699999999999998
aF-0.32999999999999896
aF0.3600000000000014
aF0.18000000000000121
aF-0.5199999999999991
aF1.310000000000002
aF-1.2999999999999998
aF-1.0299999999999996
aF1.5300000000000022
aF-1.2499999999999998
aF-0.7099999999999993
aF-0.029999999999998805
aF1.5600000000000023
aF-0.1099999999999988
aF-1.3599999999999999
aF-1.45
aF-0.05999999999999881
aF-0.40999999999999903
aF-0.5799999999999992
aF-1.2899999999999998
aF-0.17999999999999883
aF-1.0099999999999996
aF-0.9299999999999995
aF0.0700000000000012
aF-1.3199999999999998
aF0.5200000000000015
aF1.5100000000000022
aF-0.5999999999999992
aF-1.52
aF-0.389999999999999
aF1.190000000000002
aF-1.41
aF1.370000000000002
aF-0.6299999999999992
aF-0.7999999999999994
aF0.47000000000000147
aF0.9900000000000019
aF1.160000000000002
aF1.0800000000000018
aF0.5300000000000015
aF1.240000000000002
aF1.1100000000000019
aF-0.1099999999999988
aF1.150000000000002
aF-0.0899999999999988
aF-1.3299999999999998
aF-1.1899999999999997
aF0.18000000000000121
aF-0.32999999999999896
aF0.7100000000000016
aF-0.5799999999999992
aF1.200000000000002
aF-1.54
aF0.24000000000000127
aF-1.56
aF-0.7899999999999994
aF0.0300000000000012
aF0.0300000000000012
aF-0.4599999999999991
aF-0.5599999999999992
aF0.0800000000000012
aF1.5600000000000023
aF0.7900000000000017
aF-0.6299999999999992
aF0.24000000000000127
aF0.5100000000000015
aF-1.43
aF0.6000000000000015
aF-1.41
aF-1.2299999999999998
aF-0.7599999999999993
aF1.4700000000000022
aF-0.7499999999999993
aF0.4200000000000014
aF0.32000000000000134
aF0.1600000000000012
aF-0.379999999999999
aF1.230000000000002
aF-0.8099999999999994
aF0.11000000000000118
aF-1.56
aF0.44000000000000145
aF0.5300000000000015
aF0.3600000000000014
aF-1.46
aF0.5700000000000015
aF0.9300000000000018
aF-1.3299999999999998
aF-0.7799999999999994
aF0.33000000000000135
aF1.4000000000000021
aF-0.349999999999999
aF1.0500000000000018
aF-0.40999999999999903
aF-0.19999999999999885
aF0.1700000000000012
aF1.200000000000002
aF-0.7299999999999993
aF-0.29999999999999893
aF0.7500000000000017
aF1.4600000000000022
aF-1.54
aF-0.05999999999999881
aF-0.389999999999999
aF1.3900000000000021
aF-0.389999999999999
aF1.4600000000000022
aF0.9900000000000019
aF1.1100000000000019
aF0.3800000000000014
aF0.6600000000000016
aF0.7800000000000017
aF1.3800000000000021
aF1.150000000000002
a.