(lp0
F-3.1383999999999967
aF-3.1326999999999847
aF-3.13039999999998
aF-3.1297999999999786
aF-3.122399999999963
aF-3.118699999999955
aF-3.1093999999999355
aF-3.108099999999933
aF-3.107299999999931
aF-3.105399999999927
aF-3.1037999999999237
aF-3.101499999999919
aF-3.100699999999917
aF-3.099199999999914
aF-3.0973999999999102
aF-3.09719999999991
aF-3.0951999999999056
aF-3.091999999999899
aF-3.0842999999998826
aF-3.0752999999998636
aF-3.073099999999859
aF-3.0714999999998556
aF-3.0689999999998503
aF-3.0681999999998486
aF-3.065499999999843
aF-3.0639999999998397
aF-3.0632999999998383
aF-3.0624999999998366
aF-3.0619999999998355
aF-3.060799999999833
aF-3.0553999999998216
aF-3.0529999999998165
aF-3.0504999999998113
aF-3.0487999999998077
aF-3.0466999999998032
aF-3.0452999999998003
aF-3.04039999999979
aF-3.038599999999786
aF-3.037599999999784
aF-3.036199999999781
aF-3.034299999999777
aF-3.0329999999997743
aF-3.031999999999772
aF-3.0302999999997686
aF-3.029499999999767
aF-3.028599999999765
aF-3.025799999999759
aF-3.022799999999753
aF-3.0189999999997448
aF-3.0160999999997387
aF-3.010099999999726
aF-3.008299999999722
aF-3.007799999999721
aF-3.006699999999719
aF-3.0065999999997186
aF-3.0041999999997135
aF-3.001999999999709
aF-3.0013999999997076
aF-3.000199999999705
aF-2.9985999999997017
aF-2.9975999999996996
aF-2.995799999999696
aF-2.995499999999695
aF-2.9952999999996948
aF-2.9941999999996924
aF-2.993899999999692
aF-2.990699999999685
aF-2.9885999999996806
aF-2.9856999999996745
aF-2.985399999999674
aF-2.984499999999672
aF-2.983999999999671
aF-2.9805999999996637
aF-2.9786999999996597
aF-2.9784999999996593
aF-2.973699999999649
aF-2.9724999999996466
aF-2.971699999999645
aF-2.971299999999644
aF-2.970399999999642
aF-2.9680999999996374
aF-2.967899999999637
aF-2.9675999999996363
aF-2.9671999999996355
aF-2.966599999999634
aF-2.9661999999996334
aF-2.9658999999996327
aF-2.9642999999996293
aF-2.964199999999629
aF-2.963699999999628
aF-2.961799999999624
aF-2.9585999999996173
aF-2.958399999999617
aF-2.9577999999996156
aF-2.9566999999996133
aF-2.9563999999996127
aF-2.9562999999996125
aF-2.9561999999996122
aF-2.956099999999612
aF-2.955699999999611
aF-2.9538999999996074
aF-2.953699999999607
aF-2.953199999999606
aF-2.9520999999996036
aF-2.951899999999603
aF-2.9510999999996015
aF-2.9506999999996006
aF-2.9505999999996004
aF-2.948499999999596
aF-2.94569999999959
aF-2.94559999999959
aF-2.9454999999995897
aF-2.9453999999995895
aF-2.9443999999995873
aF-2.943699999999586
aF-2.943299999999585
aF-2.9424999999995833
aF-2.94089999999958
aF-2.9401999999995785
aF-2.939899999999578
aF-2.939499999999577
aF-2.939399999999577
aF-2.938999999999576
aF-2.938599999999575
aF-2.9383999999995747
aF-2.9382999999995745
aF-2.9373999999995726
aF-2.9358999999995694
aF-2.935699999999569
aF-2.9350999999995677
aF-2.934799999999567
aF-2.9336999999995648
aF-2.9335999999995646
aF-2.933299999999564
aF-2.9330999999995635
aF-2.932799999999563
aF-2.9325999999995624
aF-2.932399999999562
aF-2.9321999999995616
aF-2.931999999999561
aF-2.9317999999995608
aF-2.9316999999995605
aF-2.9315999999995603
aF-2.93149999999956
aF-2.93139999999956
aF-2.93139999999956
aF-2.9312999999995597
aF-2.9312999999995597
aF-2.9311999999995595
aF-2.9311999999995595
aF-0.2103999999977917
aF-0.2103999999977917
aF-0.2103999999977917
aF-0.2102999999977917
aF-0.2102999999977917
aF-0.21009999999779172
aF-0.21009999999779172
aF-0.20899999999779184
aF-0.20859999999779189
aF-0.20859999999779189
aF-0.20729999999779203
aF-0.20729999999779203
aF-0.20709999999779205
aF-0.20609999999779216
aF-0.2057999999977922
aF-0.2057999999977922
aF-0.20459999999779233
aF-0.20439999999779235
aF-0.20359999999779244
aF-0.20249999999779256
aF-0.20179999999779263
aF-0.20139999999779268
aF-0.19999999999779283
aF-0.1993999999977929
aF-0.19909999999779293
aF-0.19809999999779304
aF-0.19799999999779305
aF-0.1974999999977931
aF-0.1966999999977932
aF-0.19609999999779326
aF-0.19599999999779327
aF-0.19369999999779353
aF-0.1930999999977936
aF-0.1919999999977937
aF-0.19159999999779376
aF-0.19099999999779382
aF-0.19049999999779388
aF-0.189399999997794
aF-0.1885999999977941
aF-0.1865999999977943
aF-0.18599999999779437
aF-0.18469999999779452
aF-0.18289999999779472
aF-0.1820999999977948
aF-0.18009999999779502
aF-0.1776999999977953
aF-0.17719999999779534
aF-0.17469999999779562
aF-0.1729999999977958
aF-0.17269999999779584
aF-0.17229999999779588
aF-0.17139999999779598
aF-0.17069999999779606
aF-0.1648999999977967
aF-0.1638999999977968
aF-0.16189999999779703
aF-0.16139999999779708
aF-0.15929999999779731
aF-0.15889999999779736
aF-0.1565999999977976
aF-0.15509999999779778
aF-0.1547999999977978
aF-0.15469999999779782
aF-0.15459999999779783
aF-0.15449999999779784
aF-0.15439999999779785
aF-0.15429999999779787
aF-0.1539999999977979
aF-0.15259999999779805
aF-0.15109999999779822
aF-0.15059999999779827
aF-0.14789999999779857
aF-0.14369999999779903
aF-0.14349999999779905
aF-0.14329999999779908
aF-0.14199999999779922
aF-0.13919999999779953
aF-0.13889999999779956
aF-0.1385999999977996
aF-0.13829999999779963
aF-0.13649999999779983
aF-0.13519999999779997
aF-0.13469999999780002
aF-0.13419999999780008
aF-0.13289999999780022
aF-0.1320999999978003
aF-0.13109999999780042
aF-0.1294999999978006
aF-0.12659999999780092
aF-0.12639999999780094
aF-0.12379999999780104
aF-0.122299999997801
aF-0.11999999999780094
aF-0.11699999999780085
aF-0.11589999999780082
aF-0.11489999999780079
aF-0.11459999999780078
aF-0.11309999999780074
aF-0.11039999999780066
aF-0.10919999999780063
aF-0.1084999999978006
aF-0.10779999999780059
aF-0.10289999999780045
aF-0.10019999999780037
aF-0.09899999999780033
aF-0.0979999999978003
aF-0.09589999999780024
aF-0.09559999999780024
aF-0.0909999999978001
aF-0.08959999999780006
aF-0.08809999999780002
aF-0.08689999999779999
aF-0.08609999999779996
aF-0.08429999999779991
aF-0.08329999999779988
aF-0.08279999999779987
aF-0.07939999999779977
aF-0.0766999999977997
aF-0.07589999999779967
aF-0.07499999999779965
aF-0.07409999999779962
aF-0.07309999999779959
aF-0.07209999999779956
aF-0.07199999999779956
aF-0.06929999999779948
aF-0.06759999999779943
aF-0.06489999999779936
aF-0.06459999999779935
aF-0.058499999997799174
aF-0.05809999999779916
aF-0.055399999997799085
aF-0.05519999999779908
aF-0.05319999999779902
aF-0.05169999999779898
aF-0.051599999997798976
aF-0.0488999999977989
aF-0.04779999999779887
aF-0.046699999997798836
aF-0.044599999997798775
aF-0.038699999997798606
aF-0.0305999999977984
aF-0.028199999997798413
aF-0.026499999997798424
aF-0.02049999999779846
aF-0.01889999999779847
aF-0.01739999999779848
aF-0.013399999997798503
aF-0.011899999997798512
aF-0.00899999999779853
aF-0.007599999997798535
aF-0.003799999997798526
aF2.20147139992459e-12
aF0.003800000002201469
aF0.007600000002201479
aF0.009000000002201473
aF0.011900000002201455
aF0.013400000002201446
aF0.017400000002201422
aF0.018900000002201413
aF0.020500000002201403
aF0.026500000002201367
aF0.028200000002201357
aF0.030600000002201342
aF0.03870000000220155
aF0.04460000000220172
aF0.04670000000220178
aF0.04780000000220181
aF0.04890000000220184
aF0.05160000000220192
aF0.05170000000220192
aF0.053200000002201965
aF0.05520000000220202
aF0.05540000000220203
aF0.058100000002202105
aF0.05850000000220212
aF0.06460000000220228
aF0.0649000000022023
aF0.06760000000220237
aF0.06930000000220242
aF0.0720000000022025
aF0.0721000000022025
aF0.07310000000220253
aF0.07410000000220256
aF0.07500000000220258
aF0.07590000000220261
aF0.07670000000220263
aF0.07940000000220271
aF0.0828000000022028
aF0.08330000000220282
aF0.08430000000220285
aF0.0861000000022029
aF0.08690000000220292
aF0.08810000000220296
aF0.089600000002203
aF0.09100000000220304
aF0.09560000000220317
aF0.09590000000220318
aF0.09800000000220324
aF0.09900000000220327
aF0.1002000000022033
aF0.10290000000220338
aF0.10780000000220352
aF0.10850000000220354
aF0.10920000000220356
aF0.1104000000022036
aF0.11310000000220367
aF0.11460000000220372
aF0.11490000000220373
aF0.11590000000220375
aF0.11700000000220379
aF0.12000000000220387
aF0.12230000000220394
aF0.12380000000220398
aF0.12640000000220386
aF0.12660000000220384
aF0.12950000000220352
aF0.13110000000220334
aF0.13210000000220323
aF0.13290000000220314
aF0.134200000002203
aF0.13470000000220295
aF0.1352000000022029
aF0.13650000000220275
aF0.13830000000220255
aF0.13860000000220252
aF0.13890000000220248
aF0.13920000000220245
aF0.14200000000220214
aF0.143300000002202
aF0.14350000000220198
aF0.14370000000220196
aF0.1479000000022015
aF0.1506000000022012
aF0.15110000000220114
aF0.15260000000220098
aF0.15400000000220082
aF0.1543000000022008
aF0.15440000000220078
aF0.15450000000220077
aF0.15460000000220075
aF0.15470000000220074
aF0.15480000000220073
aF0.1551000000022007
aF0.15660000000220053
aF0.15890000000220028
aF0.15930000000220024
aF0.1614000000022
aF0.16190000000219995
aF0.16390000000219973
aF0.16490000000219962
aF0.17070000000219898
aF0.1714000000021989
aF0.1723000000021988
aF0.17270000000219876
aF0.17300000000219873
aF0.17470000000219854
aF0.17720000000219827
aF0.1777000000021982
aF0.18010000000219795
aF0.18210000000219773
aF0.18290000000219764
aF0.18470000000219744
aF0.1860000000021973
aF0.18660000000219723
aF0.188600000002197
aF0.18940000000219692
aF0.1905000000021968
aF0.19100000000219675
aF0.19160000000219668
aF0.19200000000219664
aF0.19310000000219651
aF0.19370000000219645
aF0.1960000000021962
aF0.19610000000219618
aF0.19670000000219612
aF0.19750000000219603
aF0.19800000000219597
aF0.19810000000219596
aF0.19910000000219585
aF0.19940000000219582
aF0.20000000000219575
aF0.2014000000021956
aF0.20180000000219556
aF0.20250000000219548
aF0.20360000000219536
aF0.20440000000219527
aF0.20460000000219525
aF0.20580000000219512
aF0.20580000000219512
aF0.20610000000219508
aF0.20710000000219497
aF0.20730000000219495
aF0.20730000000219495
aF0.2086000000021948
aF0.2086000000021948
aF0.20900000000219476
aF0.21010000000219464
aF0.21010000000219464
aF0.21030000000219462
aF0.21030000000219462
aF0.2104000000021946
aF0.2104000000021946
aF0.2104000000021946
aF2.9312000000039626
aF2.9312000000039626
aF2.931300000003963
aF2.931300000003963
aF2.931400000003963
aF2.931400000003963
aF2.9315000000039633
aF2.9316000000039635
aF2.9317000000039637
aF2.931800000003964
aF2.9320000000039643
aF2.9322000000039647
aF2.932400000003965
aF2.9326000000039656
aF2.932800000003966
aF2.9331000000039666
aF2.933300000003967
aF2.9336000000039677
aF2.933700000003968
aF2.9348000000039702
aF2.935100000003971
aF2.935700000003972
aF2.9359000000039726
aF2.9374000000039757
aF2.9383000000039776
aF2.938400000003978
aF2.9386000000039783
aF2.939000000003979
aF2.93940000000398
aF2.93950000000398
aF2.939900000003981
aF2.9402000000039816
aF2.940900000003983
aF2.9425000000039865
aF2.943300000003988
aF2.943700000003989
aF2.9444000000039905
aF2.9454000000039926
aF2.945500000003993
aF2.945600000003993
aF2.9457000000039932
aF2.948500000003999
aF2.9506000000040036
aF2.950700000004004
aF2.9511000000040046
aF2.9519000000040063
aF2.9521000000040067
aF2.953200000004009
aF2.95370000000401
aF2.9539000000040105
aF2.9557000000040143
aF2.956100000004015
aF2.9562000000040154
aF2.9563000000040156
aF2.956400000004016
aF2.9567000000040164
aF2.9578000000040188
aF2.95840000000402
aF2.9586000000040205
aF2.961800000004027
aF2.963700000004031
aF2.9642000000040323
aF2.9643000000040325
aF2.965900000004036
aF2.9662000000040365
aF2.9666000000040373
aF2.9672000000040386
aF2.9676000000040395
aF2.96790000000404
aF2.9681000000040405
aF2.9704000000040454
aF2.9713000000040473
aF2.971700000004048
aF2.97250000000405
aF2.9737000000040523
aF2.9785000000040625
aF2.978700000004063
aF2.980600000004067
aF2.984000000004074
aF2.984500000004075
aF2.985400000004077
aF2.9857000000040776
aF2.9886000000040838
aF2.990700000004088
aF2.993900000004095
aF2.9942000000040956
aF2.995300000004098
aF2.9955000000040983
aF2.995800000004099
aF2.9976000000041028
aF2.998600000004105
aF3.0002000000041082
aF3.001400000004111
aF3.002000000004112
aF3.0042000000041167
aF3.0066000000041218
aF3.006700000004122
aF3.0078000000041243
aF3.0083000000041253
aF3.010100000004129
aF3.016100000004142
aF3.019000000004148
aF3.022800000004156
aF3.0258000000041623
aF3.028600000004168
aF3.02950000000417
aF3.0303000000041718
aF3.0320000000041754
aF3.0330000000041775
aF3.03430000000418
aF3.036200000004184
aF3.037600000004187
aF3.0386000000041893
aF3.040400000004193
aF3.0453000000042034
aF3.0467000000042064
aF3.048800000004211
aF3.0505000000042144
aF3.0530000000042197
aF3.0554000000042247
aF3.060800000004236
aF3.0620000000042387
aF3.0625000000042397
aF3.0633000000042414
aF3.064000000004243
aF3.065500000004246
aF3.0682000000042517
aF3.0690000000042534
aF3.0715000000042587
aF3.073100000004262
aF3.0753000000042667
aF3.0843000000042857
aF3.092000000004302
aF3.0952000000043087
aF3.097200000004313
aF3.0974000000043134
aF3.099200000004317
aF3.1007000000043203
aF3.101500000004322
aF3.103800000004327
aF3.1054000000043303
aF3.1073000000043343
aF3.108100000004336
aF3.1094000000043387
aF3.1187000000043583
aF3.122400000004366
aF3.1298000000043817
aF3.130400000004383
aF3.132700000004388
aF3.1384000000044
a.