(lp0
F-3.15
aF-3.149
aF-3.1430000000000007
aF-3.142000000000001
aF-3.1360000000000015
aF-3.1350000000000016
aF-3.1290000000000022
aF-3.1280000000000023
aF-3.122000000000003
aF-3.121000000000003
aF-3.114000000000004
aF-3.0890000000000066
aF-3.0820000000000074
aF-3.0630000000000095
aF-3.0520000000000107
aF-3.040000000000012
aF-3.0290000000000132
aF-3.024000000000014
aF-2.9700000000000197
aF-2.959000000000021
aF-2.948000000000022
aF-2.942000000000023
aF-2.9350000000000236
aF-2.9290000000000243
aF-2.914000000000026
aF-2.903000000000027
aF-2.895000000000028
aF-2.8800000000000296
aF-2.87800000000003
aF-2.8540000000000325
aF-2.8520000000000327
aF-2.850000000000033
aF-2.848000000000033
aF-2.8260000000000356
aF-2.824000000000036
aF-2.8110000000000372
aF-2.803000000000038
aF-2.7830000000000403
aF-2.7610000000000428
aF-2.7470000000000443
aF-2.7350000000000456
aF-2.732000000000046
aF-2.722000000000047
aF-2.7170000000000476
aF-2.715000000000048
aF-2.6930000000000502
aF-2.688000000000051
aF-2.6610000000000538
aF-2.657000000000054
aF-2.6470000000000553
aF-2.640000000000056
aF-2.6080000000000596
aF-2.6070000000000597
aF-2.6020000000000603
aF-2.5980000000000607
aF-2.5910000000000615
aF-2.585000000000062
aF-2.5710000000000637
aF-2.569000000000064
aF-2.561000000000065
aF-2.557000000000065
aF-2.524000000000069
aF-2.521000000000069
aF-2.51400000000007
aF-2.51200000000007
aF-2.5070000000000707
aF-2.4890000000000727
aF-2.488000000000073
aF-2.469000000000075
aF-2.459000000000076
aF-2.4560000000000763
aF-2.4450000000000776
aF-2.4440000000000777
aF-2.439000000000078
aF-2.432000000000079
aF-2.431000000000079
aF-2.430000000000079
aF-2.4290000000000793
aF-2.42200000000008
aF-2.42100000000008
aF-2.4180000000000805
aF-2.4170000000000806
aF-2.415000000000081
aF-2.4070000000000817
aF-2.403000000000082
aF-2.4010000000000824
aF-2.4000000000000825
aF-2.3980000000000827
aF-2.394000000000083
aF-2.3920000000000834
aF-2.3890000000000837
aF-2.388000000000084
aF-2.387000000000084
aF-2.386000000000084
aF-2.3820000000000845
aF-2.3810000000000846
aF-2.3800000000000847
aF-2.379000000000085
aF-2.3750000000000853
aF-2.3740000000000854
aF-2.3740000000000854
aF-2.370000000000086
aF-2.369000000000086
aF-2.368000000000086
aF-2.367000000000086
aF-2.367000000000086
aF-0.7750000000002365
aF-0.7750000000002365
aF-0.7750000000002365
aF-0.7740000000002365
aF-0.7730000000002365
aF-0.7730000000002365
aF-0.7720000000002365
aF-0.7710000000002365
aF-0.7700000000002365
aF-0.7680000000002365
aF-0.7670000000002365
aF-0.7660000000002365
aF-0.7650000000002365
aF-0.7630000000002365
aF-0.7610000000002365
aF-0.7600000000002365
aF-0.7560000000002365
aF-0.7520000000002365
aF-0.7440000000002365
aF-0.7430000000002365
aF-0.7390000000002365
aF-0.7360000000002365
aF-0.7330000000002365
aF-0.7320000000002365
aF-0.7280000000002365
aF-0.7270000000002365
aF-0.7170000000002364
aF-0.7050000000002364
aF-0.6970000000002364
aF-0.6920000000002364
aF-0.6850000000002364
aF-0.6840000000002364
aF-0.6610000000002364
aF-0.6580000000002364
aF-0.6560000000002364
aF-0.6490000000002364
aF-0.6450000000002364
aF-0.6430000000002364
aF-0.6400000000002364
aF-0.6380000000002364
aF-0.6320000000002364
aF-0.6240000000002364
aF-0.6100000000002364
aF-0.5930000000002363
aF-0.5920000000002363
aF-0.5840000000002363
aF-0.5670000000002363
aF-0.5640000000002363
aF-0.5530000000002363
aF-0.5470000000002363
aF-0.5210000000002363
aF-0.5170000000002363
aF-0.5130000000002363
aF-0.5090000000002363
aF-0.49800000000023625
aF-0.49600000000023625
aF-0.47500000000023623
aF-0.47000000000023623
aF-0.4670000000002362
aF-0.4600000000002362
aF-0.4470000000002362
aF-0.4350000000002362
aF-0.4180000000002362
aF-0.4170000000002362
aF-0.4130000000002362
aF-0.4120000000002362
aF-0.39600000000023616
aF-0.38900000000023616
aF-0.38800000000023616
aF-0.38200000000023615
aF-0.37200000000023614
aF-0.36300000000023613
aF-0.3520000000002361
aF-0.3210000000002361
aF-0.3160000000002361
aF-0.26400000000023605
aF-0.25900000000023604
aF-0.25700000000023604
aF-0.23900000000023602
aF-0.219000000000236
aF-0.207000000000236
aF-0.204000000000236
aF-0.19400000000023598
aF-0.18300000000023597
aF-0.17200000000023596
aF-0.16000000000023595
aF-0.15100000000023595
aF-0.14200000000023594
aF-0.13300000000023593
aF-0.11800000000023592
aF-0.10800000000023591
aF-0.08600000000023589
aF-0.08500000000023589
aF-0.048000000000235854
aF-0.04200000000023585
aF-0.04100000000023585
aF-0.03500000000023584
aF-0.03400000000023584
aF-0.028000000000235836
aF-0.027000000000235835
aF-0.02100000000023583
aF-0.02000000000023583
aF-0.014000000000235824
aF-0.0070000000002358185
aF-2.3581830932428716e-13
aF0.006999999999764182
aF0.013999999999764187
aF0.019999999999764193
aF0.020999999999764193
aF0.0269999999997642
aF0.0279999999997642
aF0.033999999999764205
aF0.034999999999764206
aF0.04099999999976421
aF0.04199999999976421
aF0.04799999999976422
aF0.08499999999976425
aF0.08599999999976425
aF0.10799999999976427
aF0.11799999999976428
aF0.13299999999976428
aF0.1419999999997643
aF0.1509999999997643
aF0.1599999999997643
aF0.1719999999997643
aF0.18299999999976432
aF0.19399999999976433
aF0.20399999999976434
aF0.20699999999976434
aF0.21899999999976436
aF0.23899999999976437
aF0.25699999999976436
aF0.25899999999976436
aF0.26399999999976437
aF0.3159999999997644
aF0.3209999999997644
aF0.35199999999976445
aF0.36299999999976446
aF0.37199999999976446
aF0.3819999999997645
aF0.3879999999997645
aF0.3889999999997645
aF0.3959999999997645
aF0.4119999999997645
aF0.4129999999997645
aF0.4169999999997645
aF0.4179999999997645
aF0.4349999999997645
aF0.44699999999976453
aF0.45999999999976454
aF0.46699999999976455
aF0.46999999999976455
aF0.47499999999976456
aF0.4959999999997646
aF0.4979999999997646
aF0.5089999999997645
aF0.5129999999997645
aF0.5169999999997645
aF0.5209999999997645
aF0.5469999999997646
aF0.5529999999997646
aF0.5639999999997646
aF0.5669999999997646
aF0.5839999999997646
aF0.5919999999997646
aF0.5929999999997646
aF0.6099999999997646
aF0.6239999999997646
aF0.6319999999997646
aF0.6379999999997646
aF0.6399999999997646
aF0.6429999999997646
aF0.6449999999997647
aF0.6489999999997647
aF0.6559999999997647
aF0.6579999999997647
aF0.6609999999997647
aF0.6839999999997647
aF0.6849999999997647
aF0.6919999999997647
aF0.6969999999997647
aF0.7049999999997647
aF0.7169999999997647
aF0.7269999999997647
aF0.7279999999997647
aF0.7319999999997647
aF0.7329999999997647
aF0.7359999999997647
aF0.7389999999997647
aF0.7429999999997647
aF0.7439999999997647
aF0.7519999999997647
aF0.7559999999997647
aF0.7599999999997648
aF0.7609999999997648
aF0.7629999999997648
aF0.7649999999997648
aF0.7659999999997648
aF0.7669999999997648
aF0.7679999999997648
aF0.7699999999997648
aF0.7709999999997648
aF0.7719999999997648
aF0.7729999999997648
aF0.7729999999997648
aF0.7739999999997648
aF0.7749999999997648
aF0.7749999999997648
aF0.7749999999997648
aF2.3669999999996145
aF2.3669999999996145
aF2.3679999999996144
aF2.3689999999996143
aF2.369999999999614
aF2.3739999999996138
aF2.3739999999996138
aF2.3749999999996136
aF2.378999999999613
aF2.379999999999613
aF2.380999999999613
aF2.381999999999613
aF2.3859999999996124
aF2.3869999999996123
aF2.387999999999612
aF2.388999999999612
aF2.3919999999996118
aF2.3939999999996115
aF2.397999999999611
aF2.399999999999611
aF2.400999999999611
aF2.4029999999996106
aF2.40699999999961
aF2.4149999999996092
aF2.416999999999609
aF2.417999999999609
aF2.4209999999996086
aF2.4219999999996085
aF2.4289999999996077
aF2.4299999999996076
aF2.4309999999996075
aF2.4319999999996074
aF2.4389999999996066
aF2.443999999999606
aF2.444999999999606
aF2.4559999999996047
aF2.4589999999996044
aF2.4689999999996033
aF2.487999999999601
aF2.488999999999601
aF2.506999999999599
aF2.5119999999995986
aF2.5139999999995983
aF2.5209999999995976
aF2.5239999999995972
aF2.5569999999995936
aF2.560999999999593
aF2.5689999999995923
aF2.570999999999592
aF2.5849999999995905
aF2.59099999999959
aF2.597999999999589
aF2.6019999999995886
aF2.606999999999588
aF2.607999999999588
aF2.6399999999995845
aF2.6469999999995837
aF2.6569999999995826
aF2.660999999999582
aF2.687999999999579
aF2.6929999999995786
aF2.714999999999576
aF2.716999999999576
aF2.7219999999995754
aF2.7319999999995743
aF2.734999999999574
aF2.7469999999995727
aF2.760999999999571
aF2.7829999999995687
aF2.8029999999995665
aF2.8109999999995656
aF2.823999999999564
aF2.825999999999564
aF2.8479999999995615
aF2.8499999999995613
aF2.851999999999561
aF2.853999999999561
aF2.8779999999995582
aF2.879999999999558
aF2.8949999999995564
aF2.9029999999995555
aF2.9139999999995543
aF2.9289999999995526
aF2.934999999999552
aF2.941999999999551
aF2.9479999999995505
aF2.9589999999995493
aF2.969999999999548
aF3.023999999999542
aF3.0289999999995416
aF3.0399999999995404
aF3.051999999999539
aF3.062999999999538
aF3.0819999999995358
aF3.088999999999535
aF3.1139999999995323
aF3.1209999999995315
aF3.1219999999995314
aF3.1279999999995307
aF3.1289999999995306
aF3.13499999999953
aF3.13599999999953
aF3.141999999999529
aF3.142999999999529
aF3.1489999999995284
aF3.1499999999995283
a.