(lp0
F-4.0375069530398315
aF-4.3687424282470415
aF-6.572848433847663
aF-8.11392085171015
aF-8.994002265486625
aF-9.764311931331367
aF-11.631075317023038
aF-12.618584678766382
aF-13.385800585425892
aF-13.715787086624566
aF-15.028851189176923
aF-15.35531631401244
aF-15.902909148727817
aF-16.88396599719479
aF-17.7558636844793
aF-17.97412492205514
aF-19.60509456886815
aF-21.881397630934607
aF-22.74529078080804
aF-22.962293056510713
aF-23.178721276082932
aF-23.39457002883043
aF-23.609833918545675
aF-23.824507563642673
aF-24.686604289593507
aF-27.581657362400627
aF-28.115523433466404
aF-28.43615859860548
aF-28.754973859300414
aF-29.1815826224812
aF-29.925347150044686
aF-30.24386974396758
aF-31.726522216106922
aF-33.41310536307766
aF-33.833714605716445
aF-33.94010157812152
aF-34.88372461226903
aF-34.98701434756432
aF-35.30255260698416
aF-36.24208479684382
aF-37.178107282827625
aF-37.28100381137426
aF-37.904098114618094
aF-38.52585156168489
aF-39.55816219762171
aF-41.09853875061842
aF-42.63002128766078
aF-42.936535520984165
aF-43.24118147014463
aF-44.051315383246596
aF-44.55632582846797
aF-44.65831555070585
aF-44.75918881738092
aF-44.858943106666764
aF-46.065946141738706
aF-46.16620007746778
aF-46.86810293566828
aF-47.0660361617156
aF-47.5660071222203
aF-47.76516036255829
aF-47.86360255899297
aF-48.1616385435392
aF-48.26094527292341
aF-48.45901642503382
aF-48.559004821600524
aF-48.6573805654259
aF-48.65875460851104
aF-48.75682761552378
aF-48.95457022112358
aF-48.99536386570255
aF-48.89622964566702
aF-48.69845852395865
aF-48.59843781087367
aF-48.50071327926131
aF-48.40145689774452
aF-48.302575101460405
aF-48.20212793508646
aF-48.10323782709374
aF-47.80492129604167
aF-47.60653060103185
aF-46.70891304619893
aF-46.10636987706412
aF-43.890311398871496
aF-43.18100618528169
aF-42.87490895289972
aF-41.447970963738946
aF-41.14112729059749
aF-40.83379124242597
aF-40.113508623067744
aF-40.01183724390236
aF-39.59893737278398
aF-39.29011468866318
aF-39.08361233202205
aF-38.36112817563452
aF-38.25675417722493
aF-37.63519832548839
aF-37.01170343638559
aF-36.80470853200871
aF-36.49198772603257
aF-35.76215286597649
aF-35.24069810006296
aF-31.770839443185146
aF-30.712163046118867
aF-29.33176454295692
aF-29.11875512745589
aF-27.51702357260672
aF-27.411658108678488
aF-25.80486834202161
aF-21.493597900424653
aF-20.625687883762758
aF-20.518494990171362
aF-19.866199383666785
aF-19.758180108662785
aF-17.691497420561888
aF-16.819137455668166
aF-14.963126117528883
aF-14.635778461576225
aF-14.307713655407317
aF-13.978947774132026
aF-13.649496927212754
aF-12.115803994209577
aF-7.9400769862410225
aF-6.727645010083728
aF-6.066625327408502
aF-4.193195316128287
aF-2.206505128524126
aF-1.7654186118916695
aF-1.3241890973168895
aF-0.8828523241492257
aF-0.4414440404260036
aF2.313377614471257e-11
aF0.4414440404722693
aF0.8828523241954856
aF1.3241890973631403
aF1.765418611937907
aF2.2065051285703468
aF4.193195316082169
aF6.066625327454415
aF6.7276450100379
aF7.940076986195366
aF12.115803994164722
aF13.649496927257195
aF13.978947774176378
aF14.307713655451575
aF14.635778461620387
aF14.963126117572946
aF16.819137455711633
aF17.691497420605046
aF19.75818010862044
aF19.866199383709095
aF20.518494990129337
aF20.625687883804737
aF21.493597900383065
aF25.80486834206096
aF27.41165810871686
aF27.517023572568423
aF29.118755127418666
aF29.33176454299401
aF30.71216304608277
aF31.770839443149896
aF35.24069810003078
aF35.76215286600816
aF36.49198772606349
aF36.80470853197813
aF37.01170343641596
aF37.63519832545872
aF38.25675417719596
aF38.36112817566336
aF39.08361233205
aF39.29011468869088
aF39.59893737275667
aF40.01183724392913
aF40.11350862304112
aF40.83379124240034
aF41.14112729062268
aF41.44797096371421
aF42.87490895287725
aF43.18100618525973
aF43.89031139889215
aF46.10636987704832
aF46.708913046184804
aF47.60653060102071
aF47.80492129605203
aF48.10323782710279
aF48.20212793507789
aF48.30257510146845
aF48.40145689775201
aF48.50071327926822
aF48.59843781087993
aF48.69845852396418
aF48.896229645663354
aF48.99536386570037
aF48.954570221120704
aF48.75682761551874
aF48.65875460850521
aF48.657380565431744
aF48.559004821607054
aF48.45901642502667
aF48.26094527293167
aF48.16163854354796
aF47.863602558982855
aF47.76516036254777
aF47.56600712223159
aF47.06603616170258
aF46.86810293565464
aF46.16620007748341
aF46.065946141754594
aF44.85894310664805
aF44.75918881736199
aF44.658315550686716
aF44.55632582844863
aF44.05131538322625
aF43.241181470166474
aF42.93653552100654
aF42.6300212876379
aF41.098538750593164
aF39.55816219764906
aF38.525851561656246
aF37.90409811464747
aF37.2810038113442
aF37.1781072828578
aF36.24208479681264
aF35.302552606952034
aF34.98701434759674
aF34.88372461230155
aF33.94010157815492
aF33.83371460574994
aF33.41310536304379
aF31.72652221607164
aF30.243869743931143
aF29.92534715008134
aF29.181582622518388
aF28.75497385926293
aF28.436158598567783
aF28.11552343342849
aF27.581657362438882
aF24.686604289553532
aF23.824507563683113
aF23.60983391858623
aF23.394570028871094
aF23.178721276123706
aF22.9622930565516
aF22.745290780849032
aF21.88139763089318
aF19.605094568910562
aF17.974124922098188
aF17.755863684436175
aF16.883965997151353
aF15.902909148771583
aF15.355316313968498
aF15.028851189132881
aF13.715787086580146
aF13.38580058538136
aF12.618584678811091
aF11.631075316978091
aF9.764311931286027
aF8.994002265441143
aF8.113920851755779
aF6.572848433801815
aF4.368742428293124
aF4.037506952993723
a.