(lp0
F0.6185413640680151
aF0.5449755768568539
aF0.47140760974411205
aF0.39783775700155966
aF0.3242663129085097
aF0.2506935717506405
aF0.17711982781881858
aF0.10354537540792151
aF0.029970508815660893
aF-0.043604477658595035
aF-0.11717928971499848
aF-0.1907536330543993
aF-0.26432721337952225
aF-0.3378997363961441
aF-0.41147090781427087
aF-0.485040433349315
aF-0.5586080187232726
aF-0.6321733696659
aF-0.7057361919158917
aF-0.7792961912220565
aF-0.8528530733444958
aF-0.9264065440557786
aF-0.9999563091421205
aF-1.0735020744045591
aF-1.1470435456601316
aF-1.2205804287430504
aF-1.2941124295058821
aF-1.3676392538207212
aF-1.4411606075803682
aF-1.5146761966995066
aF-1.588185727115878
aF-1.6616889047914583
aF-1.7351854357136351
aF-1.8086750258963826
aF-1.882157381381438
aF-1.9556322082394777
aF-2.0290992125712917
aF-2.102558100508961
aF-2.1760085782170315
aF-4.309206779073165
aF-4.382266597446596
aF-4.455308886759463
aF-4.52833335484274
aF-4.601339709598635
aF-7.2431087121165705
aF-7.315228983073028
aF-7.755310928869577
aF-7.827216863856089
aF-9.14361567761989
aF-9.507374093101635
aF-10.455479739010169
aF-10.674729925598987
aF-11.47378257095381
aF-12.490119997150295
aF-14.804918140013124
aF-15.308387389032138
aF-16.60100749693749
aF-17.675121141129743
aF-18.316806032404553
aF-18.38765093783791
aF-19.24113013691572
aF-19.453205500734988
aF-19.950266641614096
aF-20.868391854084862
aF-21.079948857173292
aF-21.714975116893058
aF-22.275222573176976
aF-23.535152578440734
aF-24.64698375610987
aF-25.407815825384127
aF-25.61396863960755
aF-26.578862489718528
aF-26.85143921701758
aF-27.057280531683205
aF-27.126414935842305
aF-27.671869669276585
aF-28.07993490354971
aF-28.216786216054533
aF-28.894388671263666
aF-28.96256601179601
aF-29.030482689429746
aF-29.098138092915256
aF-29.16553161335434
aF-29.23266264420575
aF-29.299530581290686
aF-29.906079613790688
aF-30.576189232160544
aF-30.843968664961398
aF-31.31193339169309
aF-31.71051330247172
aF-32.04102974012187
aF-32.50391431595308
aF-32.6369311356299
aF-33.16332999386029
aF-33.49035755768284
aF-33.94922708549923
aF-34.14426436615011
aF-34.20929744701388
aF-34.59972493960419
aF-34.66451357999996
aF-34.795242414691955
aF-34.924496627452605
aF-35.118369149952485
aF-35.18346889409239
aF-35.24730203715192
aF-35.44105844651125
aF-35.76252538206711
aF-36.02011621100019
aF-36.14881873857693
aF-36.4035133895236
aF-36.40468960101909
aF-36.59483746422283
aF-36.65898781777304
aF-36.659669075872394
aF-36.72433092708606
aF-36.722643371914
aF-36.78613611814076
aF-36.78643449899073
aF-36.78669609340926
aF-36.78692090113477
aF-36.78710892194244
aF-36.787260155644255
aF-36.78737460208898
aF-36.787452261162166
aF-36.78749313278616
aF-36.78749721692009
aF-36.78746451355987
aF-36.787395022738195
aF-36.78728874452456
aF-36.78714567902525
aF-36.78696582638333
aF-36.78674918677864
aF-36.78649576042784
aF-36.786205547584345
aF-36.748929464748414
aF-36.74992112458827
aF-36.68464430584376
aF-36.686267070898474
aF-36.622331187124246
aF-36.620909728176564
aF-36.557846552941626
aF-36.494924629906954
aF-36.17459161809023
aF-36.11008275332026
aF-36.04537601287476
aF-35.9808734416279
aF-35.91843159051038
aF-35.853690972031195
aF-35.66015723773663
aF-35.59602277079231
aF-35.46650706545489
aF-35.40318162322371
aF-35.27449242682403
aF-35.08083659257918
aF-34.757027035057334
aF-34.69134572233892
aF-34.496273857284706
aF-34.4319431467106
aF-34.36675163935116
aF-34.30070096499067
aF-34.10558848732639
aF-33.90921032329339
aF-33.77945519808686
aF-33.517926059620535
aF-33.25535103616652
aF-33.05764108753881
aF-32.99281519771035
aF-32.927461423542574
aF-32.86158081069448
aF-32.79517441325445
aF-32.5313118585872
aF-32.33326065341034
aF-31.73672667497378
aF-31.537886564765834
aF-31.40454268455571
aF-31.339078484181304
aF-30.6049465500863
aF-30.469711952731313
aF-30.337009503828195
aF-30.136009818862146
aF-30.000207600005258
aF-29.664590577562052
aF-29.192086644983192
aF-29.12479676245897
aF-29.057244756960472
aF-28.989431236455303
aF-28.921356811264683
aF-28.44708622018541
aF-28.108085547375723
aF-27.700582318776604
aF-27.358975269121892
aF-26.811356341871882
aF-25.02190176015231
aF-24.466402838900112
aF-24.328737171930744
aF-23.772026976338633
aF-23.074467232992426
aF-23.00542716432832
aF-22.58408674881443
aF-22.514113793880096
aF-22.233997841496087
aF-22.163378537926246
aF-21.673162782787234
aF-21.60154092750387
aF-20.332208003164304
aF-20.191191859107303
aF-19.696609331496767
aF-19.340905785479638
aF-18.91377779292403
aF-18.202070890201583
aF-17.345600019133293
aF-17.202451128376527
aF-16.987701420216922
aF-16.199756557824653
aF-15.769028065192556
aF-15.121068766594073
aF-14.61634427450737
aF-14.040353745148439
aF-13.679393190483582
aF-13.028121000919455
aF-12.738423371120897
aF-12.302831849514037
aF-11.067829245682848
aF-9.97510992687893
aF-9.172642632220947
aF-8.515353115694547
aF-7.344598545555922
aF-7.272490159109312
aF-6.172763079954111
aF-6.100218937305936
aF-2.2059258883452513
aF-2.132478920730937
aF-2.059023423203783
aF-1.985559689585682
aF-1.9120880137314697
aF-1.838608689527752
aF-1.7651220108917278
aF-1.6916282717700135
aF-1.6181277661374676
aF-1.5446207879960145
aF-1.471107631373469
aF-1.3975885903223595
aF-1.3240639589187522
aF-1.2505340312610747
aF-1.1769991014689394
aF-1.1034594636819677
aF-1.0299154120586123
aF-0.956367240774982
aF-0.882815244023664
aF-0.8092597160125468
aF-0.7357009509636445
aF-0.6621392431119193
aF-0.5885748867041045
aF-0.5150081759975278
aF-0.44143940525893355
aF-0.36786886876330693
aF-0.2942968607926958
aF-0.22072367563503384
aF-0.14714960758296372
aF-0.0735749509326595
aF1.7350332108534428e-11
aF0.07357495096736011
aF0.1471496076176641
aF0.22072367566973392
aF0.2942968608273953
aF0.3678688687980059
aF0.44143940529363174
aF0.515008176032225
aF0.5885748867388008
aF0.6621392431466143
aF0.7357009509983382
aF0.809259716047239
aF0.8828152440583545
aF0.9563672408096711
aF1.0299154120932994
aF1.1034594637166528
aF1.1769991015036223
aF1.2505340312957551
aF1.3240639589534304
aF1.397588590357035
aF1.4711076314081422
aF1.5446207880306844
aF1.6181277661721345
aF1.6916282718046773
aF1.7651220109263883
aF1.8386086895624094
aF1.9120880137661234
aF1.985559689620332
aF2.0590234232384295
aF2.132478920765579
aF2.2059258883798893
aF6.100218937271716
aF6.1727630799199025
aF7.272490159143328
aF7.344598545589925
aF8.515353115660789
aF9.172642632254554
aF9.97510992684553
aF11.067829245649758
aF12.302831849546742
aF12.738423371088327
aF13.02812100095191
aF13.679393190515798
aF14.040353745116365
aF14.616344274475527
aF15.12106876656244
aF15.769028065223909
aF16.19975655785581
aF16.987701420247706
aF17.202451128345853
aF17.3456000191639
aF18.202070890171427
aF18.913777792953795
aF19.340905785450122
aF19.69660933152608
aF20.191191859136318
aF20.33220800313538
aF21.60154092747578
aF21.67316278281528
aF22.163378537898538
aF22.233997841523742
aF22.514113793852655
aF22.584086748841823
aF23.00542716430123
aF23.074467233019455
aF23.772026976312155
aF24.328737171904717
aF24.466402838874195
aF25.021901760177748
aF26.811356341848125
aF27.358975269098696
aF27.70058231875376
aF28.108085547353337
aF28.447086220207417
aF28.92135681124324
aF28.989431236433937
aF29.057244756939188
aF29.124796762437775
aF29.192086644962078
aF29.664590577582572
aF30.000207599985174
aF30.13600981888205
aF30.337009503808567
aF30.46971195275076
aF30.604946550067048
aF31.33907848416313
aF31.404542684573784
aF31.537886564783705
aF31.73672667495623
aF32.333260653393786
aF32.5313118586034
aF32.79517441323873
aF32.86158081067888
aF32.927461423527106
aF32.992815197695
aF33.05764108752358
aF33.25535103618135
aF33.51792605963483
aF33.779455198073116
aF33.90921032327992
aF34.10558848731339
aF34.30070096500321
aF34.366751639363535
aF34.43194314672282
aF34.49627385729676
aF34.69134572232738
aF34.7570270350687
aF35.08083659258963
aF35.27449242683388
aF35.40318162321428
aF35.466507065464114
aF35.59602277078355
aF35.6601572377281
aF35.85369097203897
aF35.91843159051788
aF35.98087344163513
aF36.04537601286783
aF36.110082753313634
aF36.17459161809654
aF36.49492462990258
aF36.5578465529455
aF36.62090972817326
aF36.62233118712753
aF36.6862670708959
aF36.684644305846355
aF36.749921124586706
aF36.74892946475
aF36.78620554758405
aF36.786495760427584
aF36.78674918677842
aF36.786965826383145
aF36.7871456790251
aF36.787288744524446
aF36.78739502273811
aF36.78746451355982
aF36.78749721692007
aF36.78749313278618
aF36.78745226116223
aF36.78737460208907
aF36.78726015564438
aF36.787108921942604
aF36.78692090113496
aF36.78669609340949
aF36.78643449899099
aF36.78613611814106
aF36.72264337191194
aF36.72433092708809
aF36.6596690758695
aF36.65898781777593
aF36.59483746421928
aF36.4046896010141
aF36.403513389528605
aF36.148818738583365
aF36.02011621100724
aF35.762525382075246
aF35.44105844650195
aF35.247302037141985
aF35.18346889408226
aF35.118369149942154
aF34.924496627463505
aF34.79524241470322
aF34.664513579988345
aF34.59972493961598
aF34.20929744702664
aF34.14426436613719
aF33.949227085485866
aF33.490357557697195
aF33.1633299938753
aF32.636931135645916
aF32.50391431593683
aF32.04102974013892
aF31.71051330248931
aF31.311933391711307
aF30.84396866494249
aF30.57618923217984
aF29.906079613810896
aF29.2995305812697
aF29.232662644184682
aF29.16553161333319
aF29.098138092894025
aF29.030482689408437
aF28.962566011774616
aF28.89438867124219
aF28.2167862160768
aF28.07993490352729
aF27.671869669253724
aF27.126414935865746
aF27.057280531659696
aF26.851439217041303
aF26.578862489694536
aF25.613968639632457
aF25.40781582535903
aF24.64698375613563
aF23.535152578467404
aF22.275222573149346
aF21.714975116865048
aF21.07994885720173
aF20.86839185411344
aF19.95026664164325
aF19.45320550076444
aF19.241130136886145
aF18.387650937807855
aF18.316806032434645
aF17.675121141160172
aF16.601007496968457
aF15.308387389063688
aF14.804918140044888
aF12.490119997117656
aF11.473782570986778
aF10.67472992556578
aF10.455479739043437
aF9.507374093068114
aF9.1436156776535
aF7.8272168638221835
aF7.755310928835642
aF7.315228983107034
aF7.24310871215059
aF4.601339709564209
aF4.5283333548083045
aF4.455308886725019
aF4.382266597412143
aF4.309206779038704
aF2.17600857825167
aF2.102558100543604
aF2.029099212605938
aF1.955632208274128
aF1.8821573814160921
aF1.8086750259310402
aF1.7351854357482963
aF1.6616889048261225
aF1.588185727150545
aF1.5146761967341769
aF1.4411606076150412
aF1.3676392538553968
aF1.2941124295405602
aF1.220580428777731
aF1.1470435456948143
aF1.073502074439244
aF0.9999563091768073
aF0.9264065440904673
aF0.8528530733791861
aF0.7792961912567484
aF0.7057361919505849
aF0.6321733697005946
aF0.5586080187579682
aF0.4850404333840117
aF0.41147090784896834
aF0.33789973643084226
aF0.264327213414221
aF0.19075363308909846
aF0.11717928974969795
aF0.04360447769329466
aF-0.029970508780961264
aF-0.10354537537322202
aF-0.17711982778411933
aF-0.2506935717159417
aF-0.3242663128738114
aF-0.397837756966862
aF-0.4714076097094152
aF-0.5449755768221581
aF-0.6185413640333203
a.