(lp0
F8.872148044144653
aF-14.196312723073902
aF-88.41822058011334
aF-113.23673632646525
aF-121.93335678824077
aF-133.60672353149613
aF-163.12870343894951
aF-171.01343057981592
aF-200.29644076550778
aF-213.67889398622194
aF-220.4901351162893
aF-310.4272719776051
aF-318.0165590235031
aF-323.7010762038884
aF-329.37901801221994
aF-337.69438016179527
aF-363.8027749724498
aF-373.3038589521705
aF-401.42721135058093
aF-413.188453149624
aF-439.1762403051847
aF-443.7134523933414
aF-448.6118454311767
aF-459.362574300742
aF-459.48463295193284
aF-459.60667322373854
aF-460.9479017785591
aF-461.0697211171865
aF-476.9992747651516
aF-493.69141544082555
aF-529.4117330848203
aF-544.0199529009285
aF-565.9537176214308
aF-590.5978478547664
aF-591.1787999968394
aF-597.0948295461743
aF-613.2548861276626
aF-614.1745954391363
aF-622.2063408948188
aF-630.8918737990385
aF-637.1547870176897
aF-662.1240372143793
aF-665.7130893325035
aF-667.1691129651458
aF-670.6367561143836
aF-673.3169800285658
aF-702.2101413000598
aF-709.987963045072
aF-713.0454055474543
aF-724.2443498027054
aF-727.7081839340296
aF-736.3348146653127
aF-737.3022635010977
aF-739.1283350108694
aF-746.8380013227493
aF-749.3993160605434
aF-752.4886843115152
aF-754.7216170303199
aF-755.7838856548715
aF-757.3757932189108
aF-760.6602554262043
aF-763.7261569521643
aF-763.839505593736
aF-763.83944105881
aF-762.8888142193347
aF-762.3602618681697
aF-760.3504122125538
aF-759.7151654837578
aF-755.0481971384756
aF-753.134831099736
aF-752.7092106499086
aF-748.9806432564965
aF-744.1732180574016
aF-727.175380613789
aF-721.3241385896524
aF-720.9985180967398
aF-720.2381740779273
aF-718.8254804985949
aF-715.7786847079566
aF-711.3069039805991
aF-701.3395676934016
aF-691.42448116626
aF-688.1068975584966
aF-687.774835597756
aF-671.8737627534823
aF-662.8058767245585
aF-655.2721651518561
aF-639.5493622817363
aF-635.3431965448789
aF-627.4760855771959
aF-623.7029916470133
aF-614.7579025505252
aF-576.1547696584071
aF-567.1360031039476
aF-532.7529817931456
aF-524.6522662910384
aF-520.4734086026561
aF-482.58234433438344
aF-476.15909955177403
aF-461.078669740173
aF-460.95685175626323
aF-460.8350153340795
aF-459.6156380796967
aF-459.49359915830917
aF-459.37154185717765
aF-439.92136217328186
aF-396.59733153021733
aF-394.11357031568957
aF-376.308917353223
aF-359.30418491364446
aF-331.0271611865614
aF-299.79299230340143
aF-287.7300244915506
aF-273.0928417982644
aF-271.3084750870291
aF-181.86998886420562
aF-166.62887484291107
aF-157.96462608871744
aF-128.55905934547278
aF-96.74788179093802
aF-66.83121165808056
aF-28.410153869461187
aF-3.3959304981183465e-09
aF28.410153862674022
aF66.83121165131475
aF96.74788179767549
aF128.5590593387778
aF157.96462609536246
aF166.6288748362828
aF181.86998887080216
aF271.30847509337843
aF273.0928418046077
aF287.7300244978425
aF299.7929922971545
aF331.02716118044043
aF359.30418490765084
aF376.3089173473125
aF394.11357032150795
aF396.59733153602235
aF439.92136216772934
aF459.37154185175115
aF459.49359915288346
aF459.6156380742718
aF460.83501532866273
aF460.95685175084736
aF461.07866973475785
aF476.15909954646315
aF482.58234432911854
aF520.4734085976847
aF524.6522662861018
aF532.7529817980134
aF567.1360031084976
aF576.1547696628666
aF614.757902554557
aF623.7029916509347
aF627.4760855733224
aF635.3431965411081
aF639.5493622854505
aF655.272165155347
aF662.8058767211821
aF671.8737627502505
aF687.7748356007116
aF688.1068975614461
aF691.4244811633725
aF701.3395676907098
aF711.3069039830756
aF715.7786847103289
aF718.8254805008933
aF720.2381740756642
aF720.9985180944959
aF721.324138591888
aF727.1753806117086
aF744.1732180558685
aF748.9806432551611
aF752.7092106510665
aF753.1348311008717
aF755.0481971374453
aF759.7151654830486
aF760.3504122132068
aF762.3602618677401
aF762.8888142196823
aF763.8394410588883
aF763.8395055936579
aF763.7261569520235
aF760.6602554268283
aF757.3757932197958
aF755.7838856538846
aF754.7216170313689
aF752.4886843126843
aF749.3993160618601
aF746.8380013241763
aF739.1283350091542
aF737.3022634993214
aF736.334814663505
aF727.708183931964
aF724.2443498048651
aF713.045405545018
aF709.9879630425655
aF702.210141297386
aF673.3169800253575
aF670.6367561176357
aF667.1691129684538
aF665.7130893358346
aF662.1240372177665
aF637.1547870139426
aF630.8918737952089
aF622.2063408987592
aF614.1745954431747
aF613.2548861236129
aF597.0948295504106
aF591.178799992538
aF590.5978478504586
aF565.953717616869
aF544.0199528961602
aF529.4117330897166
aF493.69141544600836
aF476.99927477045657
aF461.0697211117711
aF460.94790177314286
aF459.60667321831323
aF459.48463294650685
aF459.362574295315
aF448.61184542567855
aF443.71345238781254
aF439.17624031074206
aF413.1884531553365
aF401.42721135635935
aF373.30385894624465
aF363.8027749664774
aF337.6943801678874
aF329.37901801834823
aF323.7010761977362
aF318.0165590173275
aF310.42727197139845
aF220.49013512279237
aF213.67889399274296
aF200.29644077206197
aF171.01343057319613
aF163.12870344558465
aF133.60672353818362
aF121.93335679494552
aF113.23673631974813
aF88.41822058685952
aF14.196312716282904
aF-8.872148050936364
a.