(lp0
F-3.105000000000005
aF-3.102000000000005
aF-3.0820000000000074
aF-3.068000000000009
aF-3.06000000000001
aF-3.0530000000000106
aF-3.0360000000000125
aF-3.0270000000000135
aF-3.0200000000000142
aF-3.0170000000000146
aF-3.005000000000016
aF-3.002000000000016
aF-2.9970000000000168
aF-2.9880000000000178
aF-2.9800000000000186
aF-2.978000000000019
aF-2.9630000000000205
aF-2.942000000000023
aF-2.9340000000000237
aF-2.932000000000024
aF-2.930000000000024
aF-2.9280000000000244
aF-2.9260000000000246
aF-2.924000000000025
aF-2.9160000000000257
aF-2.8890000000000287
aF-2.884000000000029
aF-2.8810000000000295
aF-2.87800000000003
aF-2.8740000000000303
aF-2.867000000000031
aF-2.8640000000000314
aF-2.850000000000033
aF-2.8340000000000347
aF-2.830000000000035
aF-2.8290000000000353
aF-2.8200000000000363
aF-2.8190000000000364
aF-2.8160000000000367
aF-2.8070000000000377
aF-2.7980000000000387
aF-2.797000000000039
aF-2.7910000000000394
aF-2.78500000000004
aF-2.775000000000041
aF-2.760000000000043
aF-2.7450000000000445
aF-2.742000000000045
aF-2.739000000000045
aF-2.731000000000046
aF-2.7260000000000466
aF-2.7250000000000467
aF-2.724000000000047
aF-2.723000000000047
aF-2.7110000000000483
aF-2.7100000000000484
aF-2.703000000000049
aF-2.7010000000000494
aF-2.69600000000005
aF-2.69400000000005
aF-2.6930000000000502
aF-2.6900000000000506
aF-2.6890000000000507
aF-2.687000000000051
aF-2.686000000000051
aF-2.685000000000051
aF-2.685000000000051
aF-2.6840000000000512
aF-2.6820000000000515
aF-0.4600000000002362
aF-0.4590000000002362
aF-0.4570000000002362
aF-0.4560000000002362
aF-0.4550000000002362
aF-0.4540000000002362
aF-0.4530000000002362
aF-0.4520000000002362
aF-0.4510000000002362
aF-0.4480000000002362
aF-0.4460000000002362
aF-0.4370000000002362
aF-0.4310000000002362
aF-0.4090000000002362
aF-0.40200000000023617
aF-0.39900000000023617
aF-0.38500000000023615
aF-0.38200000000023615
aF-0.37900000000023615
aF-0.37200000000023614
aF-0.37100000000023614
aF-0.36700000000023614
aF-0.36400000000023613
aF-0.36200000000023613
aF-0.3550000000002361
aF-0.3540000000002361
aF-0.3480000000002361
aF-0.3420000000002361
aF-0.3400000000002361
aF-0.3370000000002361
aF-0.3300000000002361
aF-0.3250000000002361
aF-0.29200000000023607
aF-0.28200000000023606
aF-0.26900000000023605
aF-0.26700000000023605
aF-0.25200000000023604
aF-0.25100000000023603
aF-0.23600000000023602
aF-0.19600000000023599
aF-0.18800000000023598
aF-0.18700000000023598
aF-0.18100000000023597
aF-0.18000000000023597
aF-0.16100000000023595
aF-0.15300000000023595
aF-0.13600000000023593
aF-0.13300000000023593
aF-0.13000000000023593
aF-0.12700000000023592
aF-0.12400000000023592
aF-0.11000000000023591
aF-0.07200000000023588
aF-0.061000000000235866
aF-0.05500000000023586
aF-0.038000000000235845
aF-0.02000000000023583
aF-0.016000000000235826
aF-0.012000000000235822
aF-0.008000000000235818
aF-0.004000000000235818
aF-2.3581830932428716e-13
aF0.003999999999764182
aF0.007999999999764182
aF0.011999999999764185
aF0.01599999999976419
aF0.019999999999764193
aF0.03799999999976421
aF0.054999999999764224
aF0.06099999999976423
aF0.07199999999976424
aF0.10999999999976427
aF0.12399999999976428
aF0.12699999999976427
aF0.12999999999976428
aF0.13299999999976428
aF0.13599999999976428
aF0.1529999999997643
aF0.1609999999997643
aF0.17999999999976432
aF0.18099999999976432
aF0.18699999999976433
aF0.18799999999976433
aF0.19599999999976433
aF0.23599999999976437
aF0.25099999999976436
aF0.25199999999976436
aF0.26699999999976437
aF0.26899999999976437
aF0.2819999999997644
aF0.2919999999997644
aF0.3249999999997644
aF0.3299999999997644
aF0.33699999999976443
aF0.33999999999976444
aF0.34199999999976444
aF0.34799999999976444
aF0.35399999999976445
aF0.35499999999976445
aF0.36199999999976445
aF0.36399999999976446
aF0.36699999999976446
aF0.37099999999976446
aF0.37199999999976446
aF0.37899999999976447
aF0.3819999999997645
aF0.3849999999997645
aF0.3989999999997645
aF0.4019999999997645
aF0.4089999999997645
aF0.4309999999997645
aF0.4369999999997645
aF0.44599999999976453
aF0.44799999999976453
aF0.45099999999976453
aF0.45199999999976453
aF0.45299999999976454
aF0.45399999999976454
aF0.45499999999976454
aF0.45599999999976454
aF0.45699999999976454
aF0.45899999999976454
aF0.45999999999976454
aF2.68199999999958
aF2.6839999999995796
aF2.6849999999995795
aF2.6849999999995795
aF2.6859999999995794
aF2.6869999999995793
aF2.688999999999579
aF2.689999999999579
aF2.6929999999995786
aF2.6939999999995785
aF2.6959999999995783
aF2.7009999999995777
aF2.7029999999995775
aF2.7099999999995767
aF2.7109999999995766
aF2.7229999999995753
aF2.723999999999575
aF2.724999999999575
aF2.725999999999575
aF2.7309999999995744
aF2.7389999999995736
aF2.7419999999995732
aF2.744999999999573
aF2.7599999999995712
aF2.7749999999995696
aF2.7849999999995685
aF2.790999999999568
aF2.796999999999567
aF2.797999999999567
aF2.806999999999566
aF2.815999999999565
aF2.8189999999995647
aF2.8199999999995646
aF2.8289999999995636
aF2.8299999999995635
aF2.833999999999563
aF2.8499999999995613
aF2.86399999999956
aF2.8669999999995595
aF2.8739999999995587
aF2.8779999999995582
aF2.880999999999558
aF2.8839999999995576
aF2.888999999999557
aF2.915999999999554
aF2.923999999999553
aF2.925999999999553
aF2.9279999999995527
aF2.9299999999995525
aF2.9319999999995523
aF2.933999999999552
aF2.941999999999551
aF2.962999999999549
aF2.9779999999995472
aF2.979999999999547
aF2.987999999999546
aF2.996999999999545
aF3.0019999999995446
aF3.0049999999995443
aF3.016999999999543
aF3.0199999999995426
aF3.026999999999542
aF3.035999999999541
aF3.052999999999539
aF3.059999999999538
aF3.0679999999995373
aF3.0819999999995358
aF3.1019999999995336
aF3.1049999999995332
a.