(lp0
F-3.15
aF-3.1470000000000002
aF-3.1440000000000006
aF-3.141000000000001
aF-3.1380000000000012
aF-3.1350000000000016
aF-3.132000000000002
aF-3.1290000000000022
aF-3.0910000000000064
aF-3.0880000000000067
aF-3.085000000000007
aF-3.0820000000000074
aF-3.069000000000009
aF-3.066000000000009
aF-3.048000000000011
aF-3.041000000000012
aF-3.0260000000000136
aF-3.022000000000014
aF-3.013000000000015
aF-3.0090000000000154
aF-3.0000000000000164
aF-2.9900000000000175
aF-2.9790000000000187
aF-2.958000000000021
aF-2.948000000000022
aF-2.9360000000000235
aF-2.933000000000024
aF-2.9010000000000273
aF-2.8880000000000288
aF-2.887000000000029
aF-2.8790000000000298
aF-2.87800000000003
aF-2.8540000000000325
aF-2.8430000000000337
aF-2.8370000000000344
aF-2.824000000000036
aF-2.8170000000000366
aF-2.8090000000000375
aF-2.78800000000004
aF-2.7740000000000413
aF-2.750000000000044
aF-2.749000000000044
aF-2.748000000000044
aF-2.7470000000000443
aF-2.7250000000000467
aF-2.713000000000048
aF-2.704000000000049
aF-2.69600000000005
aF-2.6900000000000506
aF-2.686000000000051
aF-2.685000000000051
aF-2.677000000000052
aF-2.676000000000052
aF-2.6730000000000524
aF-2.6650000000000533
aF-2.6360000000000565
aF-2.6280000000000574
aF-2.623000000000058
aF-2.6070000000000597
aF-2.5990000000000606
aF-2.5900000000000616
aF-2.578000000000063
aF-2.576000000000063
aF-2.559000000000065
aF-2.5540000000000656
aF-2.5470000000000663
aF-2.5450000000000665
aF-2.542000000000067
aF-2.541000000000067
aF-2.5360000000000675
aF-2.523000000000069
aF-2.522000000000069
aF-2.5190000000000694
aF-2.5160000000000697
aF-2.51500000000007
aF-2.51300000000007
aF-2.51200000000007
aF-2.5070000000000707
aF-2.506000000000071
aF-2.504000000000071
aF-2.503000000000071
aF-2.503000000000071
aF-2.5020000000000713
aF-2.5010000000000714
aF-2.5000000000000715
aF-2.5000000000000715
aF-2.4990000000000716
aF-2.4990000000000716
aF-0.6430000000002364
aF-0.6430000000002364
aF-0.6420000000002364
aF-0.6410000000002364
aF-0.6400000000002364
aF-0.6390000000002364
aF-0.6380000000002364
aF-0.6370000000002364
aF-0.6360000000002364
aF-0.6350000000002364
aF-0.6330000000002364
aF-0.6320000000002364
aF-0.6310000000002364
aF-0.6280000000002364
aF-0.6270000000002364
aF-0.6260000000002364
aF-0.6230000000002364
aF-0.6180000000002364
aF-0.6130000000002364
aF-0.6110000000002364
aF-0.6060000000002363
aF-0.6020000000002363
aF-0.5950000000002363
aF-0.5900000000002363
aF-0.5760000000002363
aF-0.5710000000002363
aF-0.5680000000002363
aF-0.5650000000002363
aF-0.5430000000002363
aF-0.5410000000002363
aF-0.5300000000002363
aF-0.5180000000002363
aF-0.5150000000002363
aF-0.5030000000002363
aF-0.5020000000002363
aF-0.49600000000023625
aF-0.49500000000023625
aF-0.48700000000023624
aF-0.48400000000023624
aF-0.48100000000023624
aF-0.4670000000002362
aF-0.4630000000002362
aF-0.4480000000002362
aF-0.4340000000002362
aF-0.4290000000002362
aF-0.4170000000002362
aF-0.4100000000002362
aF-0.4090000000002362
aF-0.37600000000023615
aF-0.36800000000023614
aF-0.35900000000023613
aF-0.3540000000002361
aF-0.3470000000002361
aF-0.3430000000002361
aF-0.3220000000002361
aF-0.3190000000002361
aF-0.3150000000002361
aF-0.3060000000002361
aF-0.3000000000002361
aF-0.29100000000023607
aF-0.26100000000023604
aF-0.25900000000023604
aF-0.25200000000023604
aF-0.25000000000023603
aF-0.23900000000023602
aF-0.23300000000023602
aF-0.22900000000023601
aF-0.225000000000236
aF-0.221000000000236
aF-0.217000000000236
aF-0.211000000000236
aF-0.18500000000023598
aF-0.18000000000023597
aF-0.17300000000023597
aF-0.16600000000023596
aF-0.16400000000023596
aF-0.14900000000023594
aF-0.14700000000023594
aF-0.12600000000023592
aF-0.11000000000023591
aF-0.1050000000002359
aF-0.08800000000023589
aF-0.08000000000023588
aF-0.03300000000023584
aF-0.030000000000235838
aF-0.027000000000235835
aF-0.024000000000235833
aF-0.02100000000023583
aF-0.018000000000235827
aF-0.015000000000235825
aF-0.012000000000235822
aF-0.00900000000023582
aF-0.0060000000002358184
aF-0.0030000000002358184
aF-2.3581830932428716e-13
aF0.0029999999997641818
aF0.005999999999764182
aF0.008999999999764183
aF0.011999999999764185
aF0.014999999999764188
aF0.01799999999976419
aF0.020999999999764193
aF0.023999999999764196
aF0.0269999999997642
aF0.0299999999997642
aF0.032999999999764204
aF0.07999999999976425
aF0.08799999999976425
aF0.10499999999976427
aF0.10999999999976427
aF0.12599999999976427
aF0.1469999999997643
aF0.1489999999997643
aF0.1639999999997643
aF0.1659999999997643
aF0.17299999999976431
aF0.17999999999976432
aF0.18499999999976433
aF0.21099999999976435
aF0.21699999999976435
aF0.22099999999976436
aF0.22499999999976436
aF0.22899999999976436
aF0.23299999999976437
aF0.23899999999976437
aF0.24999999999976438
aF0.25199999999976436
aF0.25899999999976436
aF0.26099999999976436
aF0.2909999999997644
aF0.2999999999997644
aF0.3059999999997644
aF0.3149999999997644
aF0.3189999999997644
aF0.3219999999997644
aF0.34299999999976444
aF0.34699999999976444
aF0.35399999999976445
aF0.35899999999976445
aF0.36799999999976446
aF0.37599999999976447
aF0.4089999999997645
aF0.4099999999997645
aF0.4169999999997645
aF0.4289999999997645
aF0.4339999999997645
aF0.44799999999976453
aF0.46299999999976454
aF0.46699999999976455
aF0.48099999999976456
aF0.48399999999976456
aF0.48699999999976457
aF0.4949999999997646
aF0.4959999999997646
aF0.5019999999997645
aF0.5029999999997645
aF0.5149999999997645
aF0.5179999999997645
aF0.5299999999997645
aF0.5409999999997646
aF0.5429999999997646
aF0.5649999999997646
aF0.5679999999997646
aF0.5709999999997646
aF0.5759999999997646
aF0.5899999999997646
aF0.5949999999997646
aF0.6019999999997646
aF0.6059999999997646
aF0.6109999999997646
aF0.6129999999997646
aF0.6179999999997646
aF0.6229999999997646
aF0.6259999999997646
aF0.6269999999997646
aF0.6279999999997646
aF0.6309999999997646
aF0.6319999999997646
aF0.6329999999997646
aF0.6349999999997646
aF0.6359999999997646
aF0.6369999999997646
aF0.6379999999997646
aF0.6389999999997646
aF0.6399999999997646
aF0.6409999999997646
aF0.6419999999997646
aF0.6429999999997646
aF0.6429999999997646
aF2.4989999999996
aF2.4989999999996
aF2.4999999999996
aF2.4999999999996
aF2.5009999999995998
aF2.5019999999995997
aF2.5029999999995995
aF2.5029999999995995
aF2.5039999999995994
aF2.505999999999599
aF2.506999999999599
aF2.5119999999995986
aF2.5129999999995984
aF2.5149999999995982
aF2.515999999999598
aF2.518999999999598
aF2.5219999999995975
aF2.5229999999995973
aF2.535999999999596
aF2.5409999999995954
aF2.5419999999995952
aF2.544999999999595
aF2.5469999999995947
aF2.553999999999594
aF2.5589999999995934
aF2.5759999999995915
aF2.5779999999995913
aF2.58999999999959
aF2.598999999999589
aF2.606999999999588
aF2.6229999999995863
aF2.627999999999586
aF2.635999999999585
aF2.6649999999995817
aF2.672999999999581
aF2.6759999999995805
aF2.6769999999995804
aF2.6849999999995795
aF2.6859999999995794
aF2.689999999999579
aF2.6959999999995783
aF2.7039999999995774
aF2.7129999999995764
aF2.724999999999575
aF2.7469999999995727
aF2.7479999999995726
aF2.7489999999995725
aF2.7499999999995723
aF2.7739999999995697
aF2.787999999999568
aF2.808999999999566
aF2.816999999999565
aF2.823999999999564
aF2.8369999999995628
aF2.842999999999562
aF2.853999999999561
aF2.8779999999995582
aF2.878999999999558
aF2.8869999999995573
aF2.887999999999557
aF2.9009999999995557
aF2.932999999999552
aF2.935999999999552
aF2.9479999999995505
aF2.9579999999995494
aF2.978999999999547
aF2.989999999999546
aF2.999999999999545
aF3.008999999999544
aF3.0129999999995434
aF3.0219999999995424
aF3.025999999999542
aF3.0409999999995403
aF3.0479999999995395
aF3.0659999999995375
aF3.068999999999537
aF3.0819999999995358
aF3.0849999999995354
aF3.087999999999535
aF3.090999999999535
aF3.1289999999995306
aF3.1319999999995303
aF3.13499999999953
aF3.1379999999995296
aF3.1409999999995293
aF3.143999999999529
aF3.1469999999995286
aF3.1499999999995283
a.