(lp0
F-3.148
aF-3.140000000000001
aF-3.132000000000002
aF-3.103000000000005
aF-3.093000000000006
aF-3.069000000000009
aF-3.067000000000009
aF-3.06000000000001
aF-3.05800000000001
aF-3.041000000000012
aF-3.0170000000000146
aF-3.0080000000000156
aF-3.005000000000016
aF-2.995000000000017
aF-2.959000000000021
aF-2.9530000000000216
aF-2.9000000000000274
aF-2.895000000000028
aF-2.8810000000000295
aF-2.87800000000003
aF-2.859000000000032
aF-2.857000000000032
aF-2.849000000000033
aF-2.842000000000034
aF-2.8370000000000344
aF-2.830000000000035
aF-2.8160000000000367
aF-2.815000000000037
aF-2.7920000000000393
aF-2.7550000000000434
aF-2.712000000000048
aF-2.7090000000000485
aF-2.6980000000000497
aF-2.6910000000000505
aF-2.687000000000051
aF-2.686000000000051
aF-2.685000000000051
aF-2.6840000000000512
aF-2.6830000000000513
aF-2.6820000000000515
aF-2.678000000000052
aF-2.6630000000000535
aF-2.649000000000055
aF-2.6470000000000553
aF-2.6280000000000574
aF-2.6270000000000575
aF-2.613000000000059
aF-2.612000000000059
aF-2.60600000000006
aF-2.6020000000000603
aF-2.594000000000061
aF-2.5920000000000614
aF-2.5910000000000615
aF-2.586000000000062
aF-2.585000000000062
aF-2.5840000000000622
aF-2.5820000000000625
aF-2.5810000000000626
aF-2.5810000000000626
aF-2.5800000000000627
aF-0.5620000000002363
aF-0.5610000000002363
aF-0.5600000000002363
aF-0.5580000000002363
aF-0.5570000000002363
aF-0.5560000000002363
aF-0.5500000000002363
aF-0.5460000000002363
aF-0.5440000000002363
aF-0.5420000000002363
aF-0.5310000000002363
aF-0.5270000000002363
aF-0.5250000000002363
aF-0.5230000000002363
aF-0.5220000000002363
aF-0.49900000000023625
aF-0.49000000000023625
aF-0.48800000000023624
aF-0.47100000000023623
aF-0.4630000000002362
aF-0.4510000000002362
aF-0.4470000000002362
aF-0.4400000000002362
aF-0.4370000000002362
aF-0.4310000000002362
aF-0.4210000000002362
aF-0.39700000000023616
aF-0.39500000000023616
aF-0.39300000000023616
aF-0.36600000000023614
aF-0.3440000000002361
aF-0.3300000000002361
aF-0.3080000000002361
aF-0.3020000000002361
aF-0.2980000000002361
aF-0.29100000000023607
aF-0.27900000000023606
aF-0.27300000000023605
aF-0.25400000000023604
aF-0.24100000000023603
aF-0.225000000000236
aF-0.224000000000236
aF-0.223000000000236
aF-0.209000000000236
aF-0.208000000000236
aF-0.207000000000236
aF-0.206000000000236
aF-0.18900000000023598
aF-0.17400000000023597
aF-0.16600000000023596
aF-0.15600000000023595
aF-0.15000000000023594
aF-0.12900000000023593
aF-0.1070000000002359
aF-0.1030000000002359
aF-0.0970000000002359
aF-0.0930000000002359
aF-0.024000000000235833
aF-0.016000000000235826
aF-0.008000000000235818
aF-2.3581830932428716e-13
aF0.007999999999764182
aF0.01599999999976419
aF0.023999999999764196
aF0.09299999999976426
aF0.09699999999976426
aF0.10299999999976427
aF0.10699999999976427
aF0.12899999999976428
aF0.1499999999997643
aF0.1559999999997643
aF0.1659999999997643
aF0.17399999999976432
aF0.18899999999976433
aF0.20599999999976434
aF0.20699999999976434
aF0.20799999999976435
aF0.20899999999976435
aF0.22299999999976436
aF0.22399999999976436
aF0.22499999999976436
aF0.24099999999976437
aF0.25399999999976436
aF0.2729999999997644
aF0.2789999999997644
aF0.2909999999997644
aF0.2979999999997644
aF0.3019999999997644
aF0.3079999999997644
aF0.3299999999997644
aF0.34399999999976444
aF0.36599999999976446
aF0.3929999999997645
aF0.3949999999997645
aF0.3969999999997645
aF0.4209999999997645
aF0.4309999999997645
aF0.4369999999997645
aF0.4399999999997645
aF0.44699999999976453
aF0.45099999999976453
aF0.46299999999976454
aF0.47099999999976455
aF0.48799999999976457
aF0.48999999999976457
aF0.4989999999997646
aF0.5219999999997645
aF0.5229999999997645
aF0.5249999999997645
aF0.5269999999997645
aF0.5309999999997645
aF0.5419999999997646
aF0.5439999999997646
aF0.5459999999997646
aF0.5499999999997646
aF0.5559999999997646
aF0.5569999999997646
aF0.5579999999997646
aF0.5599999999997646
aF0.5609999999997646
aF0.5619999999997646
aF2.579999999999591
aF2.580999999999591
aF2.580999999999591
aF2.581999999999591
aF2.5839999999995906
aF2.5849999999995905
aF2.5859999999995904
aF2.59099999999959
aF2.5919999999995897
aF2.5939999999995895
aF2.6019999999995886
aF2.605999999999588
aF2.6119999999995875
aF2.6129999999995874
aF2.626999999999586
aF2.627999999999586
aF2.6469999999995837
aF2.6489999999995835
aF2.662999999999582
aF2.6779999999995803
aF2.68199999999958
aF2.6829999999995797
aF2.6839999999995796
aF2.6849999999995795
aF2.6859999999995794
aF2.6869999999995793
aF2.690999999999579
aF2.697999999999578
aF2.708999999999577
aF2.7119999999995765
aF2.754999999999572
aF2.7919999999995677
aF2.814999999999565
aF2.815999999999565
aF2.8299999999995635
aF2.8369999999995628
aF2.841999999999562
aF2.8489999999995614
aF2.8569999999995606
aF2.8589999999995603
aF2.8779999999995582
aF2.880999999999558
aF2.8949999999995564
aF2.899999999999556
aF2.95299999999955
aF2.9589999999995493
aF2.9949999999995454
aF3.0049999999995443
aF3.007999999999544
aF3.016999999999543
aF3.0409999999995403
aF3.0579999999995384
aF3.059999999999538
aF3.0669999999995374
aF3.068999999999537
aF3.0929999999995346
aF3.1029999999995335
aF3.1319999999995303
aF3.1399999999995294
aF3.1479999999995285
a.