(lp0
F3.13599999999953
aF3.1379999999995296
aF3.1399999999995294
aF3.141999999999529
aF3.143999999999529
aF3.1459999999995287
aF3.1479999999995285
aF3.1499999999995283
aF-0.13500000000023593
aF-0.14300000000023594
aF-0.15100000000023595
aF-0.15900000000023595
aF-3.093000000000006
aF-3.0910000000000064
aF-0.25000000000023603
aF-3.0740000000000083
aF-0.3090000000002361
aF-3.0610000000000097
aF-0.3440000000002361
aF-3.0520000000000107
aF-0.37900000000023615
aF-0.40600000000023617
aF-3.031000000000013
aF-3.0160000000000147
aF-0.5200000000002363
aF-3.0000000000000164
aF-0.5610000000002363
aF-0.6490000000002364
aF-0.6850000000002364
aF-2.9630000000000205
aF-0.7100000000002364
aF-2.9560000000000213
aF-0.7800000000002365
aF-0.8110000000002365
aF-0.8280000000002365
aF-0.8650000000002366
aF-0.8850000000002366
aF-0.9080000000002366
aF-2.8800000000000296
aF-2.867000000000031
aF-1.0810000000002278
aF-1.0840000000002274
aF-1.0870000000002271
aF-1.0900000000002268
aF-2.8180000000000365
aF-2.805000000000038
aF-2.795000000000039
aF-1.2470000000002095
aF-1.2660000000002074
aF-2.7740000000000413
aF-1.2820000000002056
aF-2.7630000000000425
aF-1.3110000000002024
aF-2.758000000000043
aF-1.3470000000001985
aF-1.4450000000001877
aF-1.4730000000001846
aF-2.688000000000051
aF-1.5490000000001762
aF-1.579000000000173
aF-2.631000000000057
aF-2.6070000000000597
aF-1.670000000000163
aF-1.7430000000001549
aF-2.551000000000066
aF-1.7990000000001487
aF-2.5260000000000686
aF-2.5170000000000696
aF-2.51400000000007
aF-2.4980000000000717
aF-2.449000000000077
aF-1.9360000000001336
aF-2.431000000000079
aF-2.4160000000000807
aF-1.9840000000001283
aF-1.9990000000001267
aF-2.007000000000126
aF-2.360000000000087
aF-2.352000000000088
aF-2.33400000000009
aF-2.324000000000091
aF-2.095000000000116
aF-2.1080000000001147
aF-2.123000000000113
aF-2.2840000000000953
aF-2.141000000000111
aF-2.2630000000000976
aF-2.1640000000001085
aF2.1769999999996354
aF2.2499999999996274
aF2.2759999999996245
aF2.1299999999996406
aF2.1139999999996424
aF2.099999999999644
aF2.3299999999996186
aF2.0759999999996466
aF2.064999999999648
aF2.054999999999649
aF2.035999999999651
aF2.026999999999652
aF2.3849999999996125
aF2.4029999999996106
aF1.9869999999996564
aF2.4139999999996093
aF2.4289999999996077
aF1.925999999999663
aF1.8959999999996664
aF2.478999999999602
aF1.8569999999996707
aF1.835999999999673
aF1.8009999999996769
aF1.7769999999996795
aF1.7139999999996864
aF2.59099999999959
aF1.6799999999996902
aF2.6039999999995884
aF2.6469999999995837
aF1.572999999999702
aF1.5319999999997065
aF2.688999999999579
aF1.4779999999997124
aF1.435999999999717
aF2.7129999999995764
aF1.4119999999997197
aF2.7229999999995753
aF2.733999999999574
aF2.7379999999995737
aF2.7419999999995732
aF2.7599999999995712
aF2.7649999999995707
aF2.7829999999995687
aF2.798999999999567
aF1.1949999999997436
aF1.1579999999997477
aF2.824999999999564
aF2.825999999999564
aF2.8589999999995603
aF1.0109999999997639
aF2.8749999999995586
aF0.9699999999997649
aF2.8859999999995574
aF0.9379999999997649
aF2.907999999999555
aF0.8689999999997648
aF2.9139999999995543
aF0.8319999999997648
aF0.8149999999997648
aF2.933999999999552
aF2.9579999999995494
aF0.6999999999997647
aF2.9649999999995487
aF0.6749999999997647
aF2.9749999999995476
aF0.6279999999997646
aF0.6169999999997646
aF0.6059999999997646
aF0.5949999999997646
aF0.5839999999997646
aF2.9959999999995452
aF3.014999999999543
aF0.48299999999976456
aF0.46399999999976455
aF0.44499999999976453
aF3.0299999999995415
aF0.3989999999997645
aF3.04199999999954
aF0.33699999999976443
aF0.2939999999997644
aF3.070999999999537
aF0.23499999999976437
aF3.087999999999535
aF0.08799999999976425
aF0.07999999999976425
aF0.07199999999976424
aF0.06399999999976423
aF0.055999999999764224
aF0.04799999999976422
aF0.03999999999976421
aF0.0319999999997642
aF0.023999999999764196
aF0.01599999999976419
aF0.007999999999764182
aF-2.3581830932428716e-13
aF-0.008000000000235818
aF-0.016000000000235826
aF-0.024000000000235833
aF-0.03200000000023584
aF-0.04000000000023585
aF-0.048000000000235854
aF-0.05600000000023586
aF-0.06400000000023587
aF-0.07200000000023588
aF-0.08000000000023588
aF-0.08800000000023589
aF-3.0880000000000067
aF-0.23500000000023602
aF-3.0710000000000086
aF-0.2940000000002361
aF-0.3370000000002361
aF-3.042000000000012
aF-0.39900000000023617
aF-3.030000000000013
aF-0.4450000000002362
aF-0.4640000000002362
aF-0.48300000000023624
aF-3.015000000000015
aF-2.996000000000017
aF-0.5840000000002363
aF-0.5950000000002363
aF-0.6060000000002363
aF-0.6170000000002364
aF-0.6280000000002364
aF-2.975000000000019
aF-0.6750000000002364
aF-2.9650000000000203
aF-0.7000000000002364
aF-2.958000000000021
aF-2.9340000000000237
aF-0.8150000000002365
aF-0.8320000000002366
aF-2.914000000000026
aF-0.8690000000002366
aF-2.9080000000000266
aF-0.9380000000002366
aF-2.886000000000029
aF-0.9700000000002367
aF-2.87500000000003
aF-1.0110000000002355
aF-2.859000000000032
aF-2.8260000000000356
aF-2.8250000000000357
aF-1.1580000000002193
aF-1.1950000000002152
aF-2.7990000000000386
aF-2.7830000000000403
aF-2.7650000000000423
aF-2.760000000000043
aF-2.742000000000045
aF-2.7380000000000453
aF-2.7340000000000457
aF-2.723000000000047
aF-1.4120000000001913
aF-2.713000000000048
aF-1.4360000000001887
aF-1.478000000000184
aF-2.6890000000000507
aF-1.532000000000178
aF-1.5730000000001736
aF-2.6470000000000553
aF-2.60400000000006
aF-1.6800000000001618
aF-2.5910000000000615
aF-1.714000000000158
aF-1.7770000000001511
aF-1.8010000000001485
aF-1.8360000000001446
aF-1.8570000000001423
aF-2.479000000000074
aF-1.896000000000138
aF-1.9260000000001347
aF-2.4290000000000793
aF-2.414000000000081
aF-1.987000000000128
aF-2.403000000000082
aF-2.385000000000084
aF-2.0270000000001236
aF-2.0360000000001226
aF-2.0550000000001205
aF-2.0650000000001194
aF-2.076000000000118
aF-2.33000000000009
aF-2.1000000000001156
aF-2.114000000000114
aF-2.1300000000001122
aF-2.276000000000096
aF-2.250000000000099
aF-2.177000000000107
aF2.163999999999637
aF2.262999999999626
aF2.1409999999996394
aF2.2839999999996237
aF2.1229999999996414
aF2.107999999999643
aF2.0949999999996445
aF2.3239999999996193
aF2.333999999999618
aF2.351999999999616
aF2.3599999999996153
aF2.006999999999654
aF1.998999999999655
aF1.9839999999996567
aF2.415999999999609
aF2.4309999999996075
aF1.935999999999662
aF2.4489999999996055
aF2.4979999999996
aF2.5139999999995983
aF2.516999999999598
aF2.525999999999597
aF1.798999999999677
aF2.5509999999995943
aF1.7429999999996832
aF1.6699999999996913
aF2.606999999999588
aF2.6309999999995854
aF1.5789999999997013
aF1.5489999999997046
aF2.687999999999579
aF1.472999999999713
aF1.444999999999716
aF1.3469999999997269
aF2.7579999999995715
aF1.3109999999997308
aF2.762999999999571
aF1.281999999999734
aF2.7739999999995697
aF1.2659999999997358
aF1.2469999999997379
aF2.7949999999995674
aF2.8049999999995663
aF2.817999999999565
aF1.0899999999997552
aF1.0869999999997555
aF1.0839999999997558
aF1.0809999999997562
aF2.8669999999995595
aF2.879999999999558
aF0.9079999999997649
aF0.8849999999997649
aF0.8649999999997648
aF0.8279999999997648
aF0.8109999999997648
aF0.7799999999997648
aF2.9559999999995497
aF0.7099999999997647
aF2.962999999999549
aF0.6849999999997647
aF0.6489999999997647
aF0.5609999999997646
aF2.999999999999545
aF0.5199999999997645
aF3.015999999999543
aF3.0309999999995414
aF0.4059999999997645
aF0.37899999999976447
aF3.051999999999539
aF0.34399999999976444
aF3.060999999999538
aF0.3089999999997644
aF3.0739999999995367
aF0.24999999999976438
aF3.090999999999535
aF3.0929999999995346
aF0.1589999999997643
aF0.1509999999997643
aF0.1429999999997643
aF0.13499999999976428
aF-3.15
aF-3.148
aF-3.1460000000000004
aF-3.1440000000000006
aF-3.142000000000001
aF-3.140000000000001
aF-3.1380000000000012
aF-3.1360000000000015
a.