(lp0
F0.6180151674110151
aF0.545537939411268
aF0.10300493135429209
aF0.030523139709319004
aF-0.41201560510972923
aF-0.4844947122811652
aF-0.9269949403565847
aF-0.9994641152041656
aF-1.441881576881898
aF-1.5143335725485523
aF-2.0290515977976016
aF-3.8685841362083555
aF-4.381952160257811
aF-5.777075446084296
aF-6.583798906640028
aF-7.462479942327369
aF-8.265546714159655
aF-8.632459693390048
aF-12.562562079300744
aF-13.360069883778655
aF-14.154157583329491
aF-14.588285724642581
aF-15.0924141272229
aF-15.524067189204228
aF-16.6005803702974
aF-17.389246733509186
aF-17.959000029502647
aF-19.027132967449663
aF-19.170623874182702
aF-20.868234952896568
aF-21.009396695801048
aF-21.150369354277036
aF-21.291151659571604
aF-22.837083027991785
aF-22.97546751248193
aF-23.882555319848443
aF-24.438453915135817
aF-25.821980793894824
aF-27.33155146781337
aF-28.285203200889534
aF-29.097811584622526
aF-29.3005181110899
aF-29.974426577099976
aF-30.30851403262902
aF-30.44252264948219
aF-31.909021250110676
aF-32.24032925488408
aF-34.01441769575783
aF-34.27575195682852
aF-34.92425808788337
aF-35.37596139358339
aF-37.423381336247076
aF-37.48623277745496
aF-37.80256322392934
aF-38.05418903668601
aF-38.494520110713914
aF-38.86855074800968
aF-39.7411216839231
aF-39.864599917871615
aF-40.35633179399961
aF-40.6039880089551
aF-42.60515645953803
aF-42.78437325048323
aF-43.203379530852345
aF-43.32136006134413
aF-43.61903229190265
aF-44.67921261920945
aF-44.73602619247822
aF-45.83868501789593
aF-46.41130645172318
aF-46.583559932344976
aF-47.20545472094692
aF-47.26248450629044
aF-47.54433599996076
aF-47.9349860948731
aF-47.991274298532154
aF-48.04713058104644
aF-48.10255443970981
aF-48.491884961241446
aF-48.54753758720415
aF-48.71333938056873
aF-48.76695503806421
aF-48.878088887393986
aF-49.31663127865916
aF-49.533751609209716
aF-49.64195038896666
aF-49.696425216013196
aF-49.80590081283343
aF-50.02156825870729
aF-50.12989654975436
aF-50.29033324367497
aF-50.34524488504881
aF-50.398897897922666
aF-50.451290940974005
aF-50.66476644099606
aF-50.71936272186435
aF-50.77213311115233
aF-50.824925822564545
aF-51.03812171105232
aF-51.0902495936972
aF-51.091692338936596
aF-51.30144642628546
aF-51.355349552111825
aF-51.40792670174777
aF-51.46003546110923
aF-51.46049847531501
aF-51.481147806762245
aF-51.48260494380355
aF-51.482017598525104
aF-51.42962491015803
aF-51.37710300295418
aF-51.37563564690057
aF-51.324330749332
aF-51.2712636619738
aF-51.217752757031754
aF-51.11211222770188
aF-51.059843135645615
aF-51.00721298049863
aF-50.95303360112622
aF-50.846343304333104
aF-50.740754926985005
aF-50.68689100596582
aF-50.47379390079373
aF-50.25886818293834
aF-49.82671778980503
aF-49.77419550904609
aF-49.55615111995139
aF-49.392944408943215
aF-49.22947828061717
aF-49.17479801658821
aF-48.95566853263581
aF-48.90088287957612
aF-48.34824180373243
aF-47.678162520365795
aF-47.22983291346063
aF-46.94629901150156
aF-46.54851756966632
aF-46.49122019541509
aF-45.16794252516131
aF-44.99361533562976
aF-44.87804213729105
aF-44.46802806450212
aF-44.23238575550949
aF-44.115682451074086
aF-43.93951490294404
aF-43.82067710573294
aF-43.465201297210186
aF-42.98927430256909
aF-42.14880218402727
aF-41.11833634089751
aF-41.056228669455834
aF-40.566405197981915
aF-39.51695824176362
aF-39.33162122300072
aF-38.64494395860994
aF-38.268116287984185
aF-36.6212009075141
aF-36.36681342996955
aF-36.1106439858433
aF-35.85270512738688
aF-35.14376648472288
aF-35.015280625291766
aF-33.64911666286202
aF-33.32012625117169
aF-33.123351414720645
aF-32.66394558790781
aF-31.804101573146106
aF-31.004362726827363
aF-29.86574231710323
aF-29.798878557201117
aF-29.529119413339505
aF-29.46187769674965
aF-28.37919154288827
aF-27.904723528401288
aF-27.83574569144882
aF-27.426879076413346
aF-26.74385554222863
aF-26.12505221598668
aF-25.36677606246106
aF-23.214167910073826
aF-22.86443737896993
aF-19.198950306285564
aF-18.84442791178995
aF-18.700549880665985
aF-17.41797436993152
aF-15.985341297918415
aF-15.121594634044248
aF-14.904463527676382
aF-14.183502924184982
aF-13.38954581811187
aF-12.59216106143347
aF-11.720984535986183
aF-11.06804907200712
aF-10.41324313407762
aF-9.756677382842685
aF-8.662549505144673
aF-7.930232556597186
aF-6.318846361453198
aF-6.246905867250924
aF-3.5299236011344988
aF-3.0882962436833514
aF-3.0159417789692196
aF-2.574052165338853
aF-2.501658365139343
aF-2.0595506839228563
aF-1.987124787557638
aF-1.5448432491547546
aF-1.4723924991531094
aF-1.0299813313491022
aF-0.5150164162686298
aF2.4290464951948197e-11
aF0.5150164163172084
aF1.0299813313976736
aF1.4723924991045498
aF1.5448432492033137
aF1.9871247875090952
aF2.059550683971399
aF2.5016583650907984
aF2.5740521653873727
aF3.0159417789207237
aF3.088296243731845
aF3.5299236010860335
aF6.246905867202703
aF6.318846361501413
aF7.930232556549187
aF8.662549505192564
aF9.756677382794985
aF10.41324313403002
aF11.068049071959676
aF11.720984535938879
aF12.59216106148058
aF13.389545818158783
aF14.183502924231686
aF14.904463527629881
aF15.121594634090691
aF15.985341297872237
aF17.41797436997724
aF18.700549880620724
aF18.844427911744738
aF19.19895030633065
aF22.864437379013467
aF23.21416791003046
aF25.366776062503348
aF26.125052216028553
aF26.74385554227015
aF27.426879076372206
aF27.835745691489706
aF27.904723528360456
aF28.37919154284773
aF29.461877696789497
aF29.5291194132997
aF29.798878557240744
aF29.865742317063635
aF31.00436272686616
aF31.8041015731079
aF32.66394558794537
aF33.12335141468344
aF33.320126251134624
aF33.6491166628988
aF35.015280625256146
aF35.143766484758395
aF35.852705127421764
aF36.11064398587795
aF36.366813430003944
aF36.621200907548264
aF38.26811628795166
aF38.644943958577834
aF39.33162122303209
aF39.516958241732446
aF40.56640519801186
aF41.0562286694265
aF41.118336340868254
aF42.14880218399934
aF42.98927430254234
aF43.46520129718412
aF43.820677105707404
aF43.93951490296938
aF44.11568245104902
aF44.232385755534374
aF44.46802806452663
aF44.87804213731488
aF44.993615335606115
aF45.16794252513797
aF46.49122019543599
aF46.54851756964553
aF46.94629901152154
aF47.22983291344126
aF47.67816252038417
aF48.34824180374916
aF48.900882879560875
aF48.95566853265089
aF49.17479801660265
aF49.229478280602905
aF49.39294440892945
aF49.55615111996462
aF49.77419550905857
aF49.82671778981732
aF50.258868182927735
aF50.47379390078407
aF50.68689100595721
aF50.740754926976685
aF50.846343304340834
aF50.95303360111915
aF51.00721298050535
aF51.059843135639255
aF51.11211222769591
aF51.21775275702665
aF51.271263661978395
aF51.32433074932796
aF51.37563564689716
aF51.37710300295757
aF51.42962491015545
aF51.48201759852373
aF51.4826049438049
aF51.481147806763644
aF51.46049847531305
aF51.460035461111204
aF51.40792670175071
aF51.35534955211549
aF51.301446426281174
aF51.09169233893047
aF51.09024959370333
aF51.03812171104582
aF50.824925822556686
aF50.77213311116048
aF50.71936272187279
aF50.66476644100479
aF50.451290940964235
aF50.39889789791266
aF50.34524488503857
aF50.2903332436645
aF50.12989654974322
aF50.02156825869573
aF49.805900812821065
aF49.69642521602594
aF49.6419503889796
aF49.533751609196415
aF49.316631278645154
aF48.87808888740929
aF48.76695503804859
aF48.7133393805845
aF48.547537587187925
aF48.49188496125782
aF48.10255443969246
aF48.047130581028945
aF47.99127429851452
aF47.93498609485533
aF47.54433599997944
aF47.26248450630975
aF47.2054547209275
aF46.5835599323657
aF46.411306451702124
aF45.83868501787379
aF44.73602619245415
aF44.67921261923362
aF43.61903229192848
aF43.32136006131786
aF43.203379530878784
aF42.784373250456184
aF42.60515645956533
aF40.603988008984985
aF40.35633179396943
aF39.864599917902375
aF39.741121683892196
aF38.86855074804155
aF38.49452011074619
aF38.05418903665328
aF37.80256322396234
aF37.486232777488276
aF37.4233813362137
aF35.3759613936187
aF34.92425808791908
aF34.27575195686478
aF34.01441769572134
aF32.240329254846195
aF31.90902125014881
aF30.442522649443006
aF30.3085140326683
aF29.974426577139482
aF29.30051811112985
aF29.097811584582445
aF28.285203200848937
aF27.331551467772194
aF25.82198079393686
aF24.438453915093056
aF23.882555319891484
aF22.975467512438453
aF22.83708302794822
aF21.29115165961584
aF21.15036935432133
aF21.0093966958454
aF20.86823495294098
aF19.170623874137615
aF19.02713296740452
aF17.95900002954818
aF17.38924673346346
aF16.600580370343387
aF15.52406718925055
aF15.092414127176452
aF14.588285724689172
aF14.154157583282784
aF13.36006988373174
aF12.562562079253633
aF8.632459693342133
aF8.265546714207606
aF7.462479942279303
aF6.583798906688208
aF5.777075446036022
aF4.381952160306213
aF3.868584136256798
aF2.02905159774906
aF1.5143335724999707
aF1.4418815769304583
aF0.9994641151555952
aF0.9269949404051563
aF0.48449471223258783
aF0.41201560515830715
aF-0.0305231397578985
aF-0.10300493130571267
aF-0.5455379394598677
aF-0.6180151673624391
a.