(lp0
F-3.15
aF-3.1470000000000002
aF-3.1440000000000006
aF-3.141000000000001
aF-3.1380000000000012
aF-3.1190000000000033
aF-3.1160000000000037
aF-3.113000000000004
aF-3.1080000000000045
aF-3.0990000000000055
aF-3.0970000000000057
aF-3.0910000000000064
aF-3.078000000000008
aF-3.069000000000009
aF-3.0550000000000104
aF-3.0530000000000106
aF-3.039000000000012
aF-3.0370000000000124
aF-3.032000000000013
aF-3.0280000000000133
aF-3.0250000000000137
aF-3.023000000000014
aF-3.0200000000000142
aF-3.015000000000015
aF-3.0090000000000154
aF-3.0060000000000158
aF-2.9880000000000178
aF-2.9830000000000183
aF-2.9810000000000185
aF-2.958000000000021
aF-2.957000000000021
aF-2.9520000000000217
aF-2.951000000000022
aF-2.948000000000022
aF-2.9470000000000223
aF-2.941000000000023
aF-2.939000000000023
aF-2.9360000000000235
aF-2.9340000000000237
aF-2.932000000000024
aF-2.924000000000025
aF-2.921000000000025
aF-2.9200000000000252
aF-2.9160000000000257
aF-2.915000000000026
aF-2.913000000000026
aF-2.912000000000026
aF-2.9110000000000262
aF-2.9100000000000263
aF-2.9090000000000265
aF-2.9070000000000267
aF-2.903000000000027
aF-2.9020000000000272
aF-2.9000000000000274
aF-2.8970000000000278
aF-2.895000000000028
aF-2.8880000000000288
aF-2.887000000000029
aF-2.886000000000029
aF-2.885000000000029
aF-2.884000000000029
aF-2.8800000000000296
aF-2.87800000000003
aF-2.868000000000031
aF-2.866000000000031
aF-2.860000000000032
aF-2.8550000000000324
aF-2.8540000000000325
aF-2.8520000000000327
aF-2.8520000000000327
aF-2.849000000000033
aF-2.848000000000033
aF-2.8470000000000333
aF-2.8460000000000334
aF-2.8450000000000335
aF-2.8430000000000337
aF-2.842000000000034
aF-2.842000000000034
aF-2.841000000000034
aF-2.840000000000034
aF-2.840000000000034
aF-2.839000000000034
aF-2.839000000000034
aF-2.8380000000000343
aF-2.8380000000000343
aF-2.8370000000000344
aF-2.8370000000000344
aF-2.8370000000000344
aF-2.8370000000000344
aF-2.8370000000000344
aF-2.8370000000000344
aF-2.8370000000000344
aF-2.8370000000000344
aF-0.3040000000002361
aF-0.3040000000002361
aF-0.3040000000002361
aF-0.3030000000002361
aF-0.3030000000002361
aF-0.3020000000002361
aF-0.3020000000002361
aF-0.3010000000002361
aF-0.3000000000002361
aF-0.3000000000002361
aF-0.2990000000002361
aF-0.2980000000002361
aF-0.2970000000002361
aF-0.2960000000002361
aF-0.2950000000002361
aF-0.2940000000002361
aF-0.29300000000023607
aF-0.29200000000023607
aF-0.29000000000023607
aF-0.28800000000023607
aF-0.28500000000023606
aF-0.28300000000023606
aF-0.28200000000023606
aF-0.28000000000023606
aF-0.27900000000023606
aF-0.27800000000023606
aF-0.27700000000023606
aF-0.27200000000023605
aF-0.26800000000023605
aF-0.26600000000023605
aF-0.26200000000023604
aF-0.26100000000023604
aF-0.25900000000023604
aF-0.25800000000023604
aF-0.25300000000023604
aF-0.25000000000023603
aF-0.24900000000023603
aF-0.24500000000023603
aF-0.24100000000023603
aF-0.24000000000023602
aF-0.23500000000023602
aF-0.225000000000236
aF-0.220000000000236
aF-0.203000000000236
aF-0.202000000000236
aF-0.19300000000023598
aF-0.19000000000023598
aF-0.18800000000023598
aF-0.18500000000023598
aF-0.18100000000023597
aF-0.16300000000023596
aF-0.16200000000023596
aF-0.15900000000023595
aF-0.15500000000023595
aF-0.14900000000023594
aF-0.14300000000023594
aF-0.13700000000023593
aF-0.13400000000023593
aF-0.12500000000023592
aF-0.11000000000023591
aF-0.1070000000002359
aF-0.08300000000023589
aF-0.08000000000023588
aF-0.07400000000023588
aF-0.07300000000023588
aF-0.062000000000235866
aF-0.061000000000235866
aF-0.049000000000235855
aF-0.048000000000235854
aF-0.038000000000235845
aF-0.037000000000235844
aF-0.03400000000023584
aF-0.018000000000235827
aF-0.015000000000235825
aF-0.012000000000235822
aF-0.00900000000023582
aF-0.0060000000002358184
aF-0.0030000000002358184
aF-2.3581830932428716e-13
aF0.0029999999997641818
aF0.005999999999764182
aF0.008999999999764183
aF0.011999999999764185
aF0.014999999999764188
aF0.01799999999976419
aF0.033999999999764205
aF0.03699999999976421
aF0.03799999999976421
aF0.04799999999976422
aF0.04899999999976422
aF0.06099999999976423
aF0.06199999999976423
aF0.07299999999976424
aF0.07399999999976424
aF0.07999999999976425
aF0.08299999999976425
aF0.10699999999976427
aF0.10999999999976427
aF0.12499999999976429
aF0.13399999999976428
aF0.13699999999976428
aF0.1429999999997643
aF0.1489999999997643
aF0.1549999999997643
aF0.1589999999997643
aF0.1619999999997643
aF0.1629999999997643
aF0.18099999999976432
aF0.18499999999976433
aF0.18799999999976433
aF0.18999999999976433
aF0.19299999999976433
aF0.20199999999976434
aF0.20299999999976434
aF0.21999999999976436
aF0.22499999999976436
aF0.23499999999976437
aF0.23999999999976437
aF0.24099999999976437
aF0.24499999999976438
aF0.24899999999976438
aF0.24999999999976438
aF0.25299999999976436
aF0.25799999999976436
aF0.25899999999976436
aF0.26099999999976436
aF0.26199999999976437
aF0.26599999999976437
aF0.26799999999976437
aF0.2719999999997644
aF0.2769999999997644
aF0.2779999999997644
aF0.2789999999997644
aF0.2799999999997644
aF0.2819999999997644
aF0.2829999999997644
aF0.2849999999997644
aF0.2879999999997644
aF0.2899999999997644
aF0.2919999999997644
aF0.2929999999997644
aF0.2939999999997644
aF0.2949999999997644
aF0.2959999999997644
aF0.2969999999997644
aF0.2979999999997644
aF0.2989999999997644
aF0.2999999999997644
aF0.2999999999997644
aF0.3009999999997644
aF0.3019999999997644
aF0.3019999999997644
aF0.3029999999997644
aF0.3029999999997644
aF0.3039999999997644
aF0.3039999999997644
aF0.3039999999997644
aF2.8369999999995628
aF2.8369999999995628
aF2.8369999999995628
aF2.8369999999995628
aF2.8369999999995628
aF2.8369999999995628
aF2.8369999999995628
aF2.8369999999995628
aF2.8379999999995627
aF2.8379999999995627
aF2.8389999999995625
aF2.8389999999995625
aF2.8399999999995624
aF2.8399999999995624
aF2.8409999999995623
aF2.841999999999562
aF2.841999999999562
aF2.842999999999562
aF2.844999999999562
aF2.8459999999995618
aF2.8469999999995617
aF2.8479999999995615
aF2.8489999999995614
aF2.851999999999561
aF2.851999999999561
aF2.853999999999561
aF2.854999999999561
aF2.8599999999995602
aF2.8659999999995596
aF2.8679999999995593
aF2.8779999999995582
aF2.879999999999558
aF2.8839999999995576
aF2.8849999999995575
aF2.8859999999995574
aF2.8869999999995573
aF2.887999999999557
aF2.8949999999995564
aF2.896999999999556
aF2.899999999999556
aF2.9019999999995556
aF2.9029999999995555
aF2.906999999999555
aF2.908999999999555
aF2.9099999999995547
aF2.9109999999995546
aF2.9119999999995545
aF2.9129999999995544
aF2.914999999999554
aF2.915999999999554
aF2.9199999999995536
aF2.9209999999995535
aF2.923999999999553
aF2.9319999999995523
aF2.933999999999552
aF2.935999999999552
aF2.9389999999995515
aF2.9409999999995513
aF2.9469999999995506
aF2.9479999999995505
aF2.95099999999955
aF2.95199999999955
aF2.9569999999995495
aF2.9579999999995494
aF2.980999999999547
aF2.9829999999995467
aF2.987999999999546
aF3.005999999999544
aF3.008999999999544
aF3.014999999999543
aF3.0199999999995426
aF3.0229999999995423
aF3.024999999999542
aF3.0279999999995417
aF3.0319999999995413
aF3.0369999999995407
aF3.0389999999995405
aF3.052999999999539
aF3.0549999999995388
aF3.068999999999537
aF3.077999999999536
aF3.090999999999535
aF3.096999999999534
aF3.098999999999534
aF3.107999999999533
aF3.1129999999995324
aF3.115999999999532
aF3.1189999999995317
aF3.1379999999995296
aF3.1409999999995293
aF3.143999999999529
aF3.1469999999995286
aF3.1499999999995283
a.