(lp0
F-3.1483999999999965
aF-3.130699999999959
aF-3.073699999999839
aF-3.0545999999997986
aF-3.0478999999997844
aF-3.0388999999997655
aF-3.0160999999997173
aF-3.0099999999997045
aF-2.9872999999996566
aF-2.9768999999996346
aF-2.9715999999996234
aF-2.9010999999994747
aF-2.895099999999462
aF-2.8905999999994525
aF-2.886099999999443
aF-2.879499999999429
aF-2.858699999999385
aF-2.851099999999369
aF-2.8284999999993214
aF-2.8189999999993014
aF-2.797899999999257
aF-2.794199999999249
aF-2.7901999999992406
aF-2.781399999999222
aF-2.781299999999222
aF-2.7811999999992216
aF-2.7800999999992193
aF-2.779999999999219
aF-2.7668999999991915
aF-2.7530999999991623
aF-2.7232999999990994
aF-2.7109999999990735
aF-2.6923999999990342
aF-2.6712999999989897
aF-2.6707999999989886
aF-2.665699999998978
aF-2.6516999999989483
aF-2.6508999999989467
aF-2.643899999998932
aF-2.636299999998916
aF-2.6307999999989042
aF-2.6086999999988576
aF-2.605499999998851
aF-2.604199999998848
aF-2.6010999999988416
aF-2.5986999999988365
aF-2.5725999999987814
aF-2.5654999999987664
aF-2.5626999999987605
aF-2.552399999998739
aF-2.549199999998732
aF-2.541199999998715
aF-2.5402999999987133
aF-2.5385999999987097
aF-2.5313999999986945
aF-2.5289999999986894
aF-2.5260999999986833
aF-2.523999999998679
aF-2.5229999999986767
aF-2.5214999999986736
aF-2.518399999998667
aF-2.515499999998661
aF-0.6261999999977246
aF-0.6261999999977246
aF-0.6252999999977247
aF-0.6247999999977247
aF-0.6228999999977249
aF-0.622299999997725
aF-0.6178999999977255
aF-0.6160999999977257
aF-0.6156999999977257
aF-0.6121999999977261
aF-0.6076999999977266
aF-0.5918999999977284
aF-0.586499999997729
aF-0.586199999997729
aF-0.5854999999977291
aF-0.5841999999977292
aF-0.5813999999977295
aF-0.57729999999773
aF-0.568199999997731
aF-0.559199999997732
aF-0.5561999999977323
aF-0.5558999999977323
aF-0.5415999999977339
aF-0.5334999999977348
aF-0.5267999999977355
aF-0.512899999997737
aF-0.5091999999977375
aF-0.5022999999977382
aF-0.4989999999977386
aF-0.49119999999773944
aF-0.4578999999977431
aF-0.45019999999774396
aF-0.42109999999774717
aF-0.4142999999977479
aF-0.4107999999977483
aF-0.37929999999775177
aF-0.37399999999775235
aF-0.3615999999977537
aF-0.36149999999775373
aF-0.36139999999775374
aF-0.36039999999775385
aF-0.36029999999775386
aF-0.3601999999977539
aF-0.3442999999977556
aF-0.3091999999977595
aF-0.3071999999977597
aF-0.2928999999977613
aF-0.2792999999977628
aF-0.25679999999776526
aF-0.23209999999776798
aF-0.22259999999776903
aF-0.2110999999977703
aF-0.20969999999777045
aF-0.13999999999777812
aF-0.12819999999777942
aF-0.12149999999777966
aF-0.09879999999777901
aF-0.07429999999777831
aF-0.05129999999777765
aF-0.021799999997777136
aF2.222787681997393e-12
aF0.02180000000222271
aF0.05130000000222323
aF0.07430000000222388
aF0.09880000000222458
aF0.12150000000222523
aF0.12820000000222498
aF0.14000000000222368
aF0.209700000002216
aF0.21110000000221585
aF0.22260000000221458
aF0.23210000000221354
aF0.2568000000022108
aF0.27930000000220834
aF0.29290000000220684
aF0.30720000000220526
aF0.30920000000220504
aF0.3443000000022012
aF0.3602000000021994
aF0.3603000000021994
aF0.3604000000021994
aF0.3614000000021993
aF0.3615000000021993
aF0.3616000000021993
aF0.3740000000021979
aF0.3793000000021973
aF0.41080000000219385
aF0.41430000000219347
aF0.4211000000021927
aF0.4502000000021895
aF0.45790000000218867
aF0.491200000002185
aF0.49900000000218414
aF0.5023000000021838
aF0.509200000002183
aF0.5129000000021826
aF0.5268000000021811
aF0.5335000000021803
aF0.5416000000021794
aF0.5559000000021779
aF0.5562000000021778
aF0.5592000000021775
aF0.5682000000021765
aF0.5773000000021755
aF0.5814000000021751
aF0.5842000000021748
aF0.5855000000021746
aF0.5862000000021745
aF0.5865000000021745
aF0.5919000000021739
aF0.6077000000021722
aF0.6122000000021717
aF0.6157000000021713
aF0.6161000000021712
aF0.617900000002171
aF0.6223000000021706
aF0.6229000000021705
aF0.6248000000021703
aF0.6253000000021702
aF0.6262000000021701
aF0.6262000000021701
aF2.5155000000031067
aF2.518400000003113
aF2.5215000000031194
aF2.5230000000031225
aF2.5240000000031246
aF2.526100000003129
aF2.529000000003135
aF2.5314000000031402
aF2.5386000000031554
aF2.540300000003159
aF2.541200000003161
aF2.549200000003178
aF2.5524000000031846
aF2.5627000000032063
aF2.565500000003212
aF2.572600000003227
aF2.5987000000032823
aF2.6011000000032873
aF2.604200000003294
aF2.6055000000032966
aF2.6087000000033034
aF2.63080000000335
aF2.6363000000033616
aF2.6439000000033777
aF2.6509000000033924
aF2.651700000003394
aF2.6657000000034237
aF2.6708000000034344
aF2.6713000000034355
aF2.69240000000348
aF2.7110000000035193
aF2.723300000003545
aF2.753100000003608
aF2.7669000000036372
aF2.780000000003665
aF2.780100000003665
aF2.7812000000036674
aF2.7813000000036676
aF2.781400000003668
aF2.7902000000036864
aF2.794200000003695
aF2.7979000000037026
aF2.819000000003747
aF2.8285000000037672
aF2.851100000003815
aF2.858700000003831
aF2.879500000003875
aF2.8861000000038888
aF2.8906000000038983
aF2.8951000000039078
aF2.9011000000039204
aF2.971600000004069
aF2.9769000000040804
aF2.9873000000041023
aF3.0100000000041502
aF3.016100000004163
aF3.0389000000042112
aF3.0479000000042302
aF3.0546000000042444
aF3.0737000000042847
aF3.130700000004405
aF3.1484000000044423
a.