(lp0
F0.6180098112386008
aF0.3972996364249979
aF0.17657952914117686
aF-0.04414499262167573
aF-0.264868410762012
aF-0.4855852072058745
aF-0.7062898640448477
aF-0.9269768636740057
aF-3.7217393137777157
aF-3.941631053761351
aF-4.161424253173935
aF-4.381113417196931
aF-5.336640760772209
aF-5.5556793522403884
aF-6.87648520983957
aF-7.389587729722633
aF-8.48483766841194
aF-8.778274779687633
aF-9.435789730199588
aF-9.727868835766122
aF-10.382175053954045
aF-11.110054932609943
aF-11.910320324647072
aF-13.432558730686274
aF-14.154747360783462
aF-15.020442507624525
aF-15.237009056815
aF-17.532105844849383
aF-18.45921492457054
aF-18.530482567538613
aF-19.098430488320417
aF-19.169162901686015
aF-20.86948709034645
aF-21.643270600362474
aF-22.06518112540571
aF-22.976376553242527
aF-23.464448363078915
aF-24.022675456367573
aF-25.476515050562092
aF-26.440508234699898
aF-28.0797511029902
aF-28.147821503846032
aF-28.215779313453375
aF-28.28362425998108
aF-29.772480305163846
aF-30.57794646237741
aF-31.177346321236726
aF-31.710937769412038
aF-32.10749674536699
aF-32.37219954795049
aF-32.438811176515706
aF-32.96595915104681
aF-33.03111742706008
aF-33.228863071239914
aF-33.75289359442576
aF-35.63421563966272
aF-36.148200605414964
aF-36.46902748547245
aF-37.48650841471611
aF-37.99030372665662
aF-38.557202454916855
aF-39.305946740077246
aF-39.43021922606952
aF-40.479450924856884
aF-40.7861494866661
aF-41.21496676981804
aF-41.33672565713122
aF-41.51966992752503
aF-41.57932401365213
aF-41.88157167280245
aF-42.66569682593054
aF-42.72429214524164
aF-42.90466099874184
aF-43.08473697990454
aF-43.14373988878089
aF-43.261624347586874
aF-43.322073543160066
aF-43.61841667021133
aF-43.67783259989427
aF-43.79719493463843
aF-43.85537981310837
aF-43.85649968244897
aF-43.91380495706739
aF-43.97266836538754
aF-44.031857534366814
aF-44.032557774787676
aF-44.090685128850055
aF-44.0911701258634
aF-44.11511787640748
aF-44.11607260265782
aF-44.056856237411196
aF-43.997403189587
aF-43.93835249853276
aF-43.87917806776321
aF-43.821144435765554
aF-43.76214934329336
aF-43.70194902429234
aF-43.64403207108528
aF-43.52499213323621
aF-43.46461870668962
aF-43.40623751616715
aF-43.227789625634905
aF-43.16783287450168
aF-43.107763535074234
aF-42.92955118063202
aF-42.62938382030137
aF-42.329390912188686
aF-42.20964453002691
aF-41.906824978351196
aF-41.664854852834985
aF-41.2401019672212
aF-40.93344293517562
aF-40.07467606862598
aF-39.76551543977878
aF-39.579798537264786
aF-39.39413192260717
aF-38.016927152687224
aF-37.890841512336436
aF-37.194365589666425
aF-36.42936317730883
aF-36.23900305372777
aF-35.46652707129788
aF-35.40314702146888
aF-35.01457710420626
aF-34.94975611495103
aF-34.431078759502846
aF-34.236843890165694
aF-34.040931422328136
aF-33.12423767880826
aF-32.8602652825679
aF-31.869759408562718
aF-30.939156243873114
aF-30.60387593440552
aF-29.7990246646817
aF-29.32670223395705
aF-29.26065194142147
aF-27.01693655265636
aF-26.469299517004824
aF-25.850331555555417
aF-25.50587768915997
aF-25.020519990867694
aF-24.74365896732984
aF-23.28414358502436
aF-23.074027721126217
aF-22.794624028394153
aF-22.164236747320018
aF-21.74295091068091
aF-21.10969761902514
aF-18.98633052746372
aF-18.843028539287815
aF-18.346271772998993
aF-18.201900910044532
aF-17.418001314073084
aF-16.98735749492077
aF-16.70172385231405
aF-16.4152718285803
aF-16.128015459811365
aF-15.83996882151184
aF-15.410280945859386
aF-13.53375277392973
aF-13.172200615418603
aF-12.665656334387297
aF-12.157288220729987
aF-12.01261705997225
aF-10.92164778127075
aF-10.77584346571128
aF-9.245632844989593
aF-8.076923948863275
aF-7.711765480634187
aF-6.4659689705054
aF-5.879921384358508
aF-2.4267510810491184
aF-2.2063304274333024
aF-1.9858546156717138
aF-1.765329157648163
aF-1.5447595664876153
aF-1.3241513564183611
aF-1.1035100426341629
aF-0.8828411411563734
aF-0.6621501686960362
aF-0.44144264251596843
aF-0.22072408029282947
aF2.0820398530241316e-11
aF0.22072408033446977
aF0.4414426425576071
aF0.6621501687376723
aF0.8828411411980059
aF1.1035100426757907
aF1.3241513564599834
aF1.5447595665292302
aF1.7653291576897705
aF1.9858546157133123
aF2.2063304274748914
aF2.4267510810906963
aF5.879921384317238
aF6.465968970546591
aF7.711765480593187
aF8.076923948904213
aF9.245632845030313
aF10.7758434656709
aF10.921647781311098
aF12.012617059932182
aF12.157288220770019
aF12.665656334427187
aF13.17220061545835
aF13.533752773890095
aF15.410280945820366
aF15.839968821550713
aF16.128015459850133
aF16.41527182861896
aF16.7017238523526
aF16.98735749495921
aF17.41800131403482
aF18.201900910082472
aF18.34627177296112
aF18.843028539325477
aF18.986330527426126
aF21.10969761898857
aF21.74295091071716
aF22.16423674735603
aF22.794624028358495
aF23.07402772116172
aF23.284143584988982
aF24.74365896736433
aF25.02051999083339
aF25.505877689193962
aF25.850331555521663
aF26.46929951703815
aF27.01693655262343
aF29.260651941390297
aF29.32670223392591
aF29.799024664712427
aF30.603875934435536
aF30.9391562438434
aF31.869759408533906
aF32.8602652825401
aF33.12423767878074
aF34.040931422301625
aF34.236843890139404
aF34.43107875947678
aF34.94975611492559
aF35.01457710423161
aF35.403147021444006
aF35.46652707132267
aF36.23900305375155
aF36.42936317728531
aF37.19436558968886
aF37.89084151235781
aF38.016927152666064
aF39.39413192258838
aF39.579798537283224
aF39.76551543976069
aF40.07467606864345
aF40.933442935191216
aF41.24010196723606
aF41.664854852848755
aF41.90682497836429
aF42.209644530014714
aF42.32939091220051
aF42.62938382031219
aF42.92955118062231
aF43.10776353506525
aF43.16783287451039
aF43.22778962562646
aF43.40623751615957
aF43.4646187066969
aF43.52499213324317
aF43.64403207109153
aF43.70194902429823
aF43.76214934329884
aF43.821144435760516
aF43.87917806776778
aF43.93835249853678
aF43.9974031895904
aF44.05685623740857
aF44.11607260265632
aF44.115117876409016
aF44.091170125861346
aF44.090685128852115
aF44.032557774784706
aF44.03185753436979
aF43.97266836538387
aF43.913804957063135
aF43.856499682444216
aF43.85537981311313
aF43.79719493464365
aF43.67783259990031
aF43.61841667021774
aF43.32207354315206
aF43.26162434757858
aF43.14373988877208
aF43.08473697991361
aF42.90466099875164
aF42.72429214523116
aF42.665696825941225
aF41.88157167281562
aF41.57932401366612
aF41.51966992753918
aF41.33672565714583
aF41.21496676980313
aF40.78614948668203
aF40.479450924840265
aF39.430219226050795
aF39.3059467400962
aF38.55720245493714
aF37.99030372663542
aF37.48650841469412
aF36.469027485495914
aF36.14820060539106
aF35.63421563963814
aF33.75289359439892
aF33.22886307126733
aF33.031117427032456
aF32.96595915107451
aF32.438811176487455
aF32.372199547978795
aF32.10749674533841
aF31.71093776938307
aF31.177346321266203
aF30.577946462407443
aF29.77248030519459
aF28.283624259949114
aF28.21577931342135
aF28.147821503813955
aF28.079751102958074
aF26.440508234733247
aF25.476515050596095
aF24.02267545633264
aF23.46444836304364
aF22.976376553206972
aF22.065181125369648
aF21.643270600326165
aF20.869487090309757
aF19.169162901723524
aF19.098430488282872
aF18.530482567576406
aF18.459214924532713
aF17.532105844811166
aF15.237009056775918
aF15.020442507663683
aF14.154747360744022
aF13.432558730725939
aF11.910320324687168
aF11.110054932569623
aF10.382175053913572
aF9.727868835806738
aF9.43578973015891
aF8.778274779728442
aF8.484837668371076
aF7.389587729763685
aF6.876485209798438
aF5.555679352281696
aF5.336640760813543
aF4.381113417155497
aF4.161424253132481
aF3.941631053719878
aF3.721739313736224
aF0.926976863715636
aF0.7062898640864819
aF0.48558520724751153
aF0.26486841080365087
aF0.044144992663315286
aF-0.17657952909953764
aF-0.39729963638335997
aF-0.6180098111969653
a.