(lp0
F3.1289999999995306
aF3.1319999999995303
aF3.13499999999953
aF3.1379999999995296
aF3.1409999999995293
aF3.143999999999529
aF3.1469999999995286
aF3.1499999999995283
aF-3.076000000000008
aF-3.0730000000000084
aF-3.0700000000000087
aF-0.202000000000236
aF-3.0380000000000122
aF-0.26200000000023604
aF-3.0180000000000144
aF-0.3010000000002361
aF-0.3330000000002361
aF-2.9900000000000175
aF-2.9790000000000187
aF-0.38300000000023615
aF-2.939000000000023
aF-2.921000000000025
aF-2.9160000000000257
aF-2.896000000000028
aF-2.8790000000000298
aF-0.6350000000002364
aF-2.860000000000032
aF-0.6500000000002364
aF-2.8530000000000326
aF-0.6840000000002364
aF-2.8370000000000344
aF-2.8280000000000354
aF-0.7220000000002365
aF-2.806000000000038
aF-0.7760000000002365
aF-2.7910000000000394
aF-0.8190000000002365
aF-0.8230000000002365
aF-2.7640000000000424
aF-2.7620000000000426
aF-2.742000000000045
aF-2.740000000000045
aF-2.7380000000000453
aF-0.9030000000002366
aF-0.9070000000002366
aF-2.713000000000048
aF-0.9480000000002367
aF-2.6980000000000497
aF-0.9730000000002367
aF-2.687000000000051
aF-0.9940000000002367
aF-2.669000000000053
aF-1.0280000000002336
aF-1.0410000000002322
aF-1.0540000000002308
aF-1.098000000000226
aF-1.134000000000222
aF-2.588000000000062
aF-1.1990000000002148
aF-2.569000000000064
aF-1.2230000000002121
aF-2.5100000000000704
aF-1.3080000000002028
aF-2.4560000000000763
aF-2.4450000000000776
aF-1.4290000000001895
aF-2.42200000000008
aF-2.4180000000000805
aF-1.4590000000001861
aF-1.4650000000001855
aF-2.3930000000000833
aF-1.5030000000001813
aF-1.5160000000001799
aF-2.3660000000000863
aF-1.5500000000001761
aF-2.3260000000000907
aF-1.6090000000001696
aF-1.633000000000167
aF-2.2730000000000965
aF-1.6950000000001602
aF-2.2300000000001012
aF-2.222000000000102
aF-1.7250000000001569
aF-2.205000000000104
aF-2.196000000000105
aF-1.7470000000001544
aF-2.176000000000107
aF-2.1540000000001096
aF-1.797000000000149
aF-2.1280000000001125
aF-1.8270000000001456
aF-1.8440000000001437
aF-2.095000000000116
aF-2.0740000000001184
aF-2.0470000000001214
aF-2.0460000000001215
aF-1.9160000000001358
aF1.9329999999996623
aF2.0299999999996516
aF2.0309999999996515
aF1.8969999999996663
aF2.063999999999648
aF2.0869999999996454
aF2.1059999999996433
aF2.1219999999996415
aF2.13599999999964
aF2.1489999999996385
aF2.171999999999636
aF2.191999999999634
aF1.718999999999686
aF1.698999999999688
aF1.6799999999996902
aF1.6619999999996922
aF1.5599999999997034
aF1.5529999999997042
aF1.545999999999705
aF1.5389999999997057
aF2.3779999999996133
aF1.4799999999997122
aF2.4039999999996104
aF2.4989999999996
aF2.5149999999995982
aF2.517999999999598
aF2.5479999999995946
aF1.2249999999997403
aF1.200999999999743
aF2.599999999999589
aF1.144999999999749
aF1.081999999999756
aF2.6399999999995845
aF1.04699999999976
aF0.9579999999997649
aF2.7099999999995767
aF0.9249999999997649
aF2.7309999999995744
aF2.732999999999574
aF2.77099999999957
aF2.77299999999957
aF0.8009999999997648
aF2.7939999999995675
aF2.808999999999566
aF2.8199999999995646
aF2.8469999999995617
aF2.853999999999561
aF2.86099999999956
aF2.8679999999995593
aF0.6029999999997646
aF2.879999999999558
aF0.5659999999997646
aF2.896999999999556
aF2.9019999999995556
aF2.9119999999995545
aF2.916999999999554
aF0.4999999999997646
aF2.9479999999995505
aF0.4419999999997645
aF2.971999999999548
aF0.3879999999997645
aF0.33799999999976443
aF0.3059999999997644
aF3.0219999999995424
aF0.26699999999976437
aF3.04499999999954
aF0.21399999999976435
aF3.0859999999995353
aF3.088999999999535
aF3.0919999999995347
aF3.0949999999995343
aF0.08399999999976425
aF0.07699999999976424
aF0.06999999999976424
aF0.06299999999976423
aF0.055999999999764224
aF0.04899999999976422
aF0.04199999999976421
aF0.034999999999764206
aF0.0279999999997642
aF0.020999999999764193
aF0.013999999999764187
aF0.006999999999764182
aF-2.3581830932428716e-13
aF-0.0070000000002358185
aF-0.014000000000235824
aF-0.02100000000023583
aF-0.028000000000235836
aF-0.03500000000023584
aF-0.04200000000023585
aF-0.049000000000235855
aF-0.05600000000023586
aF-0.06300000000023587
aF-0.07000000000023587
aF-0.07700000000023588
aF-0.08400000000023589
aF-3.095000000000006
aF-3.0920000000000063
aF-3.0890000000000066
aF-3.086000000000007
aF-0.214000000000236
aF-3.0450000000000115
aF-0.26700000000023605
aF-3.022000000000014
aF-0.3060000000002361
aF-0.3380000000002361
aF-0.38800000000023616
aF-2.9720000000000195
aF-0.4420000000002362
aF-2.948000000000022
aF-0.5000000000002363
aF-2.9170000000000256
aF-2.912000000000026
aF-2.9020000000000272
aF-2.8970000000000278
aF-0.5660000000002363
aF-2.8800000000000296
aF-0.6030000000002363
aF-2.868000000000031
aF-2.8610000000000317
aF-2.8540000000000325
aF-2.8470000000000333
aF-2.8200000000000363
aF-2.8090000000000375
aF-2.794000000000039
aF-0.8010000000002365
aF-2.7730000000000414
aF-2.7710000000000417
aF-2.733000000000046
aF-2.731000000000046
aF-0.9250000000002366
aF-2.7100000000000484
aF-0.9580000000002367
aF-1.0470000000002315
aF-2.640000000000056
aF-1.0820000000002277
aF-1.1450000000002207
aF-2.6000000000000605
aF-1.2010000000002146
aF-1.225000000000212
aF-2.548000000000066
aF-2.5180000000000695
aF-2.51500000000007
aF-2.4990000000000716
aF-2.404000000000082
aF-1.4800000000001838
aF-2.378000000000085
aF-1.5390000000001773
aF-1.5460000000001766
aF-1.5530000000001758
aF-1.560000000000175
aF-1.6620000000001638
aF-1.6800000000001618
aF-1.6990000000001597
aF-1.7190000000001575
aF-2.1920000000001054
aF-2.1720000000001076
aF-2.14900000000011
aF-2.1360000000001116
aF-2.122000000000113
aF-2.106000000000115
aF-2.087000000000117
aF-2.0640000000001195
aF-1.897000000000138
aF-2.031000000000123
aF-2.0300000000001233
aF-1.933000000000134
aF1.9159999999996642
aF2.04599999999965
aF2.0469999999996498
aF2.073999999999647
aF2.0949999999996445
aF1.8439999999996721
aF1.826999999999674
aF2.127999999999641
aF1.7969999999996773
aF2.153999999999638
aF2.1759999999996356
aF1.7469999999996828
aF2.1959999999996334
aF2.2049999999996324
aF1.7249999999996852
aF2.2219999999996305
aF2.2299999999996296
aF1.6949999999996885
aF2.272999999999625
aF1.6329999999996954
aF1.608999999999698
aF2.325999999999619
aF1.5499999999997045
aF2.3659999999996146
aF1.5159999999997082
aF1.5029999999997097
aF2.3929999999996117
aF1.4649999999997139
aF1.4589999999997145
aF2.417999999999609
aF2.4219999999996085
aF1.4289999999997178
aF2.444999999999606
aF2.4559999999996047
aF1.3079999999997312
aF2.5099999999995988
aF1.2229999999997405
aF2.5689999999995923
aF1.1989999999997432
aF2.58799999999959
aF1.1339999999997503
aF1.0979999999997543
aF1.0539999999997591
aF1.0409999999997606
aF1.027999999999762
aF2.6689999999995813
aF0.993999999999765
aF2.6869999999995793
aF0.9729999999997649
aF2.697999999999578
aF0.9479999999997649
aF2.7129999999995764
aF0.9069999999997649
aF0.9029999999997649
aF2.7379999999995737
aF2.7399999999995734
aF2.7419999999995732
aF2.761999999999571
aF2.763999999999571
aF0.8229999999997648
aF0.8189999999997648
aF2.790999999999568
aF0.7759999999997648
aF2.805999999999566
aF0.7219999999997647
aF2.8279999999995638
aF2.8369999999995628
aF0.6839999999997647
aF2.852999999999561
aF0.6499999999997647
aF2.8599999999995602
aF0.6349999999997646
aF2.878999999999558
aF2.8959999999995563
aF2.915999999999554
aF2.9209999999995535
aF2.9389999999995515
aF0.3829999999997645
aF2.978999999999547
aF2.989999999999546
aF0.33299999999976443
aF0.3009999999997644
aF3.017999999999543
aF0.26199999999976437
aF3.0379999999995406
aF0.20199999999976434
aF3.069999999999537
aF3.0729999999995368
aF3.0759999999995364
aF-3.15
aF-3.1470000000000002
aF-3.1440000000000006
aF-3.141000000000001
aF-3.1380000000000012
aF-3.1350000000000016
aF-3.132000000000002
aF-3.1290000000000022
a.