(lp0
F-3.1463999999999923
aF-3.133899999999966
aF-0.1838999999977733
aF-3.0797999999998518
aF-0.25399999999776557
aF-0.27849999999776287
aF-0.340699999997756
aF-3.0473999999997834
aF-0.41959999999774733
aF-0.4481999999977442
aF-0.4627999999977426
aF-2.9635999999996065
aF-2.958699999999596
aF-2.9549999999995884
aF-0.7012999999977163
aF-0.7199999999977142
aF-2.9280999999995316
aF-2.9214999999995177
aF-0.8663999999976981
aF-0.8940999999976951
aF-0.9561999999976882
aF-2.8691999999994073
aF-2.865299999999399
aF-2.8565999999993807
aF-2.8564999999993805
aF-2.8563999999993803
aF-2.855299999999378
aF-2.855199999999378
aF-1.049099999997678
aF-1.0911999999976734
aF-1.1839999999976631
aF-2.7795999999992183
aF-2.7563999999991693
aF-2.7280999999991096
aF-2.727399999999108
aF-1.3731999999976423
aF-2.699499999999049
aF-1.4246999999976366
aF-1.449599999997634
aF-2.6750999999989977
aF-2.6658999999989783
aF-1.5815999999976194
aF-1.594299999997618
aF-1.5994999999976174
aF-1.611999999997616
aF-2.605599999998851
aF-2.544399999998722
aF-2.5247999999986805
aF-2.5165999999986632
aF-1.8363999999975913
aF-2.4721999999985695
aF-2.440599999998503
aF-2.4366999999984946
aF-2.4290999999984786
aF-1.9692999999975767
aF-1.9882999999975746
aF-2.013299999997601
aF-2.0332999999976433
aF-2.3351999999982804
aF-2.0601999999977
aF-2.1019999999977883
aF-2.2175999999980323
aF2.1855000000024103
aF2.208500000002459
aF2.2473000000025407
aF2.132300000002298
aF2.290000000002631
aF2.0885000000022056
aF2.0364000000020956
aF2.354900000002768
aF2.357800000002774
aF1.9851000000020205
aF1.9508000000020242
aF1.8514000000020352
aF2.4927000000030586
aF1.8203000000020386
aF1.816600000002039
aF2.5002000000030744
aF2.509000000003093
aF2.521300000003119
aF1.7315000000020484
aF1.6909000000020529
aF2.576200000003235
aF2.5769000000032363
aF1.616500000002061
aF1.5840000000020646
aF2.637400000003364
aF2.6623000000034165
aF1.4914000000020748
aF1.4662000000020776
aF2.685300000003465
aF2.6975000000034908
aF2.745000000003591
aF2.7551000000036123
aF2.790900000003688
aF1.17140000000211
aF1.1604000000021113
aF1.063100000002122
aF1.0470000000021238
aF1.009600000002128
aF1.009300000002128
aF1.009000000002128
aF1.0060000000021283
aF1.0057000000021283
aF1.0054000000021284
aF0.9580000000021336
aF2.9049000000039285
aF2.9067000000039322
aF0.8080000000021501
aF0.7690000000021544
aF0.7050000000021615
aF0.6354000000021691
aF2.9780000000040827
aF2.987100000004102
aF2.9882000000041042
aF3.041200000004216
aF0.34810000000220076
aF3.054800000004245
aF0.2679000000022096
aF3.0889000000043167
aF0.1389000000022238
aF0.05900000000222345
aF2.222787681997393e-12
aF-0.05899999999777787
aF-0.13889999999777825
aF-3.088899999999871
aF-0.26789999999776404
aF-3.054799999999799
aF-0.3480999999977552
aF-3.0411999999997703
aF-2.9881999999996585
aF-2.987099999999656
aF-2.977999999999637
aF-0.6353999999977236
aF-0.7049999999977159
aF-0.7689999999977088
aF-0.8079999999977046
aF-2.9066999999994865
aF-2.9048999999994827
aF-0.957999999997688
aF-1.0053999999976828
aF-1.0056999999976828
aF-1.0059999999976827
aF-1.0089999999976824
aF-1.0092999999976824
aF-1.0095999999976824
aF-1.0469999999976782
aF-1.0630999999976765
aF-1.1603999999976657
aF-1.1713999999976645
aF-2.790899999999242
aF-2.7550999999991665
aF-2.7449999999991452
aF-2.697499999999045
aF-2.6852999999990192
aF-1.466199999997632
aF-1.4913999999976293
aF-2.6622999999989707
aF-2.637399999998918
aF-1.583999999997619
aF-1.6164999999976155
aF-2.5768999999987905
aF-2.576199999998789
aF-1.6908999999976073
aF-1.7314999999976028
aF-2.521299999998673
aF-2.508999999998647
aF-2.5001999999986286
aF-1.8165999999975935
aF-1.820299999997593
aF-2.492699999998613
aF-1.8513999999975896
aF-1.9507999999975787
aF-1.985099999997575
aF-2.357799999998328
aF-2.354899999998322
aF-2.03639999999765
aF-2.08849999999776
aF-2.289999999998185
aF-2.1322999999978522
aF-2.247299999998095
aF-2.208499999998013
aF-2.1854999999979645
aF2.217600000002478
aF2.102000000002234
aF2.060200000002146
aF2.335200000002726
aF2.033300000002089
aF2.013300000002047
aF1.9883000000020201
aF1.9693000000020222
aF2.4291000000029244
aF2.4367000000029404
aF2.4406000000029486
aF2.4722000000030153
aF1.8364000000020368
aF2.516600000003109
aF2.5248000000031263
aF2.5444000000031677
aF2.605600000003297
aF1.6120000000020616
aF1.599500000002063
aF1.5943000000020635
aF1.581600000002065
aF2.665900000003424
aF2.6751000000034435
aF1.4496000000020794
aF1.4247000000020822
aF2.699500000003495
aF1.3732000000020879
aF2.727400000003554
aF2.7281000000035553
aF2.756400000003615
aF2.779600000003664
aF1.1840000000021087
aF1.091200000002119
aF1.0491000000021236
aF2.8552000000038236
aF2.855300000003824
aF2.856400000003826
aF2.8565000000038263
aF2.8566000000038265
aF2.865300000003845
aF2.869200000003853
aF0.9562000000021338
aF0.8941000000021406
aF0.8664000000021437
aF2.9215000000039635
aF2.9281000000039774
aF0.7200000000021598
aF0.7013000000021619
aF2.955000000004034
aF2.958700000004042
aF2.9636000000040523
aF0.4628000000021881
aF0.44820000000218974
aF0.4196000000021929
aF3.047400000004229
aF0.3407000000022016
aF0.2785000000022084
aF0.2540000000022111
aF3.0798000000042975
aF0.18390000000221884
aF3.1339000000044117
aF3.146400000004438
a.