(lp0
F3.1219999999995314
aF3.1289999999995306
aF3.13599999999953
aF3.142999999999529
aF3.1499999999995283
aF-0.0980000000002359
aF-0.11100000000023591
aF-0.12400000000023592
aF-3.0630000000000095
aF-0.18500000000023598
aF-3.0370000000000124
aF-0.220000000000236
aF-0.27700000000023606
aF-2.9700000000000197
aF-0.37900000000023615
aF-0.38800000000023616
aF-0.4510000000002362
aF-0.4600000000002362
aF-2.87800000000003
aF-0.5010000000002363
aF-2.860000000000032
aF-0.5240000000002363
aF-2.8470000000000333
aF-0.5610000000002363
aF-0.5890000000002363
aF-0.6030000000002363
aF-2.760000000000043
aF-0.7130000000002364
aF-2.740000000000045
aF-2.6710000000000527
aF-0.8430000000002366
aF-2.6520000000000548
aF-0.8740000000002366
aF-2.639000000000056
aF-0.8950000000002366
aF-0.9270000000002366
aF-2.6090000000000595
aF-0.9540000000002367
aF-0.9650000000002367
aF-0.9760000000002367
aF-2.5560000000000653
aF-1.0380000000002325
aF-2.541000000000067
aF-1.0670000000002293
aF-1.0730000000002287
aF-2.51400000000007
aF-2.5100000000000704
aF-2.506000000000071
aF-2.5020000000000713
aF-2.4980000000000717
aF-1.1210000000002234
aF-2.4730000000000745
aF-1.15200000000022
aF-2.460000000000076
aF-1.1840000000002164
aF-1.197000000000215
aF-1.2440000000002098
aF-1.251000000000209
aF-1.2580000000002083
aF-1.2650000000002075
aF-1.2720000000002067
aF-1.3010000000002035
aF-2.3530000000000877
aF-2.294000000000094
aF-2.2810000000000956
aF-1.4660000000001854
aF-1.5160000000001799
aF-2.1900000000001056
aF-2.1720000000001076
aF-1.5490000000001762
aF-2.142000000000111
aF-2.131000000000112
aF-1.6110000000001694
aF-1.6250000000001679
aF-2.095000000000116
aF-1.6720000000001627
aF-2.051000000000121
aF-1.6900000000001607
aF-2.033000000000123
aF-2.013000000000125
aF-1.732000000000156
aF-1.9890000000001278
aF-1.7580000000001532
aF-1.9580000000001312
aF-1.7910000000001496
aF-1.9020000000001374
aF-1.9010000000001375
aF-1.9000000000001376
aF-1.8990000000001377
aF-1.8520000000001429
aF-1.851000000000143
aF-1.850000000000143
aF-1.8490000000001432
aF1.807999999999676
aF1.808999999999676
aF1.9409999999996614
aF1.7699999999996803
aF1.9779999999996574
aF1.7419999999996834
aF2.0039999999996545
aF2.024999999999652
aF1.6979999999996882
aF2.04399999999965
aF1.6789999999996903
aF1.6619999999996922
aF1.645999999999694
aF1.6309999999996956
aF2.1149999999996423
aF1.6029999999996987
aF1.5899999999997
aF2.1479999999996386
aF2.1679999999996364
aF1.5309999999997066
aF2.2119999999996316
aF2.22799999999963
aF1.4699999999997133
aF1.4509999999997154
aF1.4419999999997164
aF1.4329999999997174
aF1.4239999999997184
aF2.3039999999996215
aF2.327999999999619
aF1.3339999999997283
aF1.3039999999997316
aF2.3669999999996145
aF1.281999999999734
aF1.2749999999997348
aF1.2399999999997386
aF2.4219999999996085
aF1.2129999999997416
aF2.444999999999606
aF1.1609999999997473
aF2.4669999999996035
aF2.487999999999601
aF2.527999999999597
aF2.5469999999995947
aF0.9399999999997649
aF2.6109999999995877
aF2.6409999999995843
aF0.8709999999997649
aF2.6569999999995826
aF0.8449999999997648
aF2.67899999999958
aF2.732999999999574
aF2.735999999999574
aF0.7149999999997647
aF2.7559999999995717
aF2.77299999999957
aF0.6379999999997646
aF2.805999999999566
aF2.8139999999995653
aF2.8379999999995627
aF2.8769999999995584
aF0.47099999999976455
aF0.36299999999976446
aF2.95199999999955
aF0.3229999999997644
aF2.9689999999995482
aF0.2699999999997644
aF2.997999999999545
aF0.21299999999976435
aF3.0289999999995416
aF0.1649999999997643
aF3.0549999999995388
aF3.061999999999538
aF0.07799999999976424
aF0.06499999999976423
aF0.05199999999976422
aF0.03899999999976421
aF0.025999999999764198
aF0.012999999999764186
aF-2.3581830932428716e-13
aF-0.013000000000235823
aF-0.026000000000235834
aF-0.039000000000235846
aF-0.05200000000023586
aF-0.06500000000023587
aF-0.07800000000023588
aF-3.0620000000000096
aF-3.0550000000000104
aF-0.16500000000023596
aF-3.0290000000000132
aF-0.213000000000236
aF-2.9980000000000167
aF-0.27000000000023605
aF-2.96900000000002
aF-0.3230000000002361
aF-2.9520000000000217
aF-0.36300000000023613
aF-0.47100000000023623
aF-2.87700000000003
aF-2.8380000000000343
aF-2.814000000000037
aF-2.806000000000038
aF-0.6380000000002364
aF-2.7730000000000414
aF-2.7560000000000433
aF-0.7150000000002364
aF-2.7360000000000455
aF-2.733000000000046
aF-2.679000000000052
aF-0.8450000000002366
aF-2.657000000000054
aF-0.8710000000002366
aF-2.641000000000056
aF-2.6110000000000593
aF-0.9400000000002366
aF-2.5470000000000663
aF-2.5280000000000684
aF-2.488000000000073
aF-2.467000000000075
aF-1.161000000000219
aF-2.4450000000000776
aF-1.2130000000002132
aF-2.42200000000008
aF-1.2400000000002103
aF-1.2750000000002064
aF-1.2820000000002056
aF-2.367000000000086
aF-1.3040000000002032
aF-1.3340000000002
aF-2.3280000000000904
aF-2.304000000000093
aF-1.42400000000019
aF-1.433000000000189
aF-1.442000000000188
aF-1.451000000000187
aF-1.470000000000185
aF-2.2280000000001015
aF-2.212000000000103
aF-1.5310000000001782
aF-2.168000000000108
aF-2.1480000000001103
aF-1.5900000000001717
aF-1.6030000000001703
aF-2.115000000000114
aF-1.6310000000001672
aF-1.6460000000001656
aF-1.6620000000001638
aF-1.679000000000162
aF-2.0440000000001217
aF-1.6980000000001598
aF-2.025000000000124
aF-2.004000000000126
aF-1.742000000000155
aF-1.978000000000129
aF-1.770000000000152
aF-1.941000000000133
aF-1.8090000000001476
aF-1.8080000000001477
aF1.8489999999996716
aF1.8499999999996715
aF1.8509999999996714
aF1.8519999999996712
aF1.898999999999666
aF1.899999999999666
aF1.9009999999996658
aF1.9019999999996657
aF1.790999999999678
aF1.9579999999996596
aF1.7579999999996816
aF1.9889999999996562
aF1.7319999999996845
aF2.0129999999996535
aF2.0329999999996513
aF1.689999999999689
aF2.0509999999996493
aF1.671999999999691
aF2.0949999999996445
aF1.6249999999996962
aF1.6109999999996978
aF2.1309999999996405
aF2.1419999999996393
aF1.5489999999997046
aF2.171999999999636
aF2.189999999999634
aF1.5159999999997082
aF1.4659999999997138
aF2.280999999999624
aF2.2939999999996226
aF2.352999999999616
aF1.300999999999732
aF1.2719999999997351
aF1.264999999999736
aF1.2579999999997367
aF1.2509999999997374
aF1.2439999999997382
aF1.1969999999997434
aF1.1839999999997448
aF2.4599999999996043
aF1.1519999999997483
aF2.472999999999603
aF1.1209999999997518
aF2.4979999999996
aF2.5019999999995997
aF2.505999999999599
aF2.5099999999995988
aF2.5139999999995983
aF1.072999999999757
aF1.0669999999997577
aF2.5409999999995954
aF1.037999999999761
aF2.5559999999995937
aF0.9759999999997649
aF0.9649999999997649
aF0.9539999999997649
aF2.608999999999588
aF0.9269999999997649
aF0.8949999999997649
aF2.6389999999995846
aF0.8739999999997649
aF2.651999999999583
aF0.8429999999997648
aF2.670999999999581
aF2.7399999999995734
aF0.7129999999997647
aF2.7599999999995712
aF0.6029999999997646
aF0.5889999999997646
aF0.5609999999997646
aF2.8469999999995617
aF0.5239999999997645
aF2.8599999999995602
aF0.5009999999997645
aF2.8779999999995582
aF0.45999999999976454
aF0.45099999999976453
aF0.3879999999997645
aF0.37899999999976447
aF2.969999999999548
aF0.2769999999997644
aF0.21999999999976436
aF3.0369999999995407
aF0.18499999999976433
aF3.062999999999538
aF0.12399999999976428
aF0.11099999999976427
aF0.09799999999976426
aF-3.15
aF-3.1430000000000007
aF-3.1360000000000015
aF-3.1290000000000022
aF-3.122000000000003
a.