(lp0
F-3.15
aF-3.148
aF-3.1460000000000004
aF-3.1440000000000006
aF-3.142000000000001
aF-3.140000000000001
aF-3.1380000000000012
aF-3.1360000000000015
aF-3.0980000000000056
aF-3.096000000000006
aF-3.094000000000006
aF-3.084000000000007
aF-3.0730000000000084
aF-3.067000000000009
aF-3.06000000000001
aF-3.0560000000000103
aF-3.0470000000000113
aF-3.042000000000012
aF-3.0350000000000126
aF-3.033000000000013
aF-3.0100000000000153
aF-2.9990000000000165
aF-2.996000000000017
aF-2.984000000000018
aF-2.9740000000000193
aF-2.9640000000000204
aF-2.9630000000000205
aF-2.960000000000021
aF-2.959000000000021
aF-2.951000000000022
aF-2.950000000000022
aF-2.9450000000000225
aF-2.941000000000023
aF-2.933000000000024
aF-2.9270000000000245
aF-2.9250000000000247
aF-2.9160000000000257
aF-2.915000000000026
aF-2.9110000000000262
aF-2.9100000000000263
aF-2.9000000000000274
aF-2.8990000000000276
aF-2.8980000000000277
aF-2.895000000000028
aF-2.894000000000028
aF-2.886000000000029
aF-2.884000000000029
aF-2.8790000000000298
aF-2.87800000000003
aF-2.8740000000000303
aF-2.8730000000000304
aF-2.866000000000031
aF-2.8650000000000313
aF-2.8620000000000316
aF-2.859000000000032
aF-2.849000000000033
aF-2.841000000000034
aF-2.833000000000035
aF-2.8270000000000355
aF-2.8260000000000356
aF-2.822000000000036
aF-2.806000000000038
aF-2.805000000000038
aF-2.7900000000000396
aF-2.78700000000004
aF-2.7830000000000403
aF-2.7810000000000406
aF-2.7800000000000407
aF-2.778000000000041
aF-2.777000000000041
aF-2.7740000000000413
aF-2.7710000000000417
aF-2.769000000000042
aF-2.768000000000042
aF-2.7640000000000424
aF-2.760000000000043
aF-2.7560000000000433
aF-2.7530000000000436
aF-2.751000000000044
aF-2.7460000000000444
aF-2.7450000000000445
aF-2.7440000000000446
aF-2.7430000000000447
aF-2.742000000000045
aF-2.741000000000045
aF-2.741000000000045
aF-2.739000000000045
aF-2.7370000000000454
aF-2.7370000000000454
aF-2.7350000000000456
aF-2.7350000000000456
aF-2.7340000000000457
aF-2.733000000000046
aF-2.732000000000046
aF-2.731000000000046
aF-2.731000000000046
aF-2.731000000000046
aF-0.4110000000002362
aF-0.4110000000002362
aF-0.4110000000002362
aF-0.4100000000002362
aF-0.4100000000002362
aF-0.4090000000002362
aF-0.4080000000002362
aF-0.4070000000002362
aF-0.40600000000023617
aF-0.40500000000023617
aF-0.40300000000023617
aF-0.40100000000023617
aF-0.39800000000023616
aF-0.39600000000023616
aF-0.39400000000023616
aF-0.39200000000023616
aF-0.37900000000023615
aF-0.37800000000023615
aF-0.37700000000023615
aF-0.37600000000023615
aF-0.37100000000023614
aF-0.36700000000023614
aF-0.36500000000023614
aF-0.3390000000002361
aF-0.3340000000002361
aF-0.3330000000002361
aF-0.3230000000002361
aF-0.3200000000002361
aF-0.3150000000002361
aF-0.3040000000002361
aF-0.3030000000002361
aF-0.28900000000023607
aF-0.28800000000023607
aF-0.28100000000023606
aF-0.26000000000023604
aF-0.25700000000023604
aF-0.25200000000023604
aF-0.24700000000023603
aF-0.24600000000023603
aF-0.227000000000236
aF-0.226000000000236
aF-0.221000000000236
aF-0.215000000000236
aF-0.207000000000236
aF-0.201000000000236
aF-0.18600000000023598
aF-0.18200000000023597
aF-0.17800000000023597
aF-0.17400000000023597
aF-0.16900000000023596
aF-0.16700000000023596
aF-0.15900000000023595
aF-0.15700000000023595
aF-0.15400000000023595
aF-0.14800000000023594
aF-0.14500000000023594
aF-0.14100000000023594
aF-0.12600000000023592
aF-0.12500000000023592
aF-0.11100000000023591
aF-0.11000000000023591
aF-0.0960000000002359
aF-0.08700000000023589
aF-0.07900000000023588
aF-0.07600000000023588
aF-0.06400000000023587
aF-0.061000000000235866
aF-0.037000000000235844
aF-0.03500000000023584
aF-0.03300000000023584
aF-0.03100000000023584
aF-0.024000000000235833
aF-0.02200000000023583
aF-0.02000000000023583
aF-0.018000000000235827
aF-0.016000000000235826
aF-0.014000000000235824
aF-0.012000000000235822
aF-0.01000000000023582
aF-0.008000000000235818
aF-0.0060000000002358184
aF-0.004000000000235818
aF-0.0020000000002358184
aF-2.3581830932428716e-13
aF0.0019999999997641817
aF0.003999999999764182
aF0.005999999999764182
aF0.007999999999764182
aF0.009999999999764184
aF0.011999999999764185
aF0.013999999999764187
aF0.01599999999976419
aF0.01799999999976419
aF0.019999999999764193
aF0.021999999999764194
aF0.023999999999764196
aF0.030999999999764202
aF0.032999999999764204
aF0.034999999999764206
aF0.03699999999976421
aF0.06099999999976423
aF0.06399999999976423
aF0.07599999999976424
aF0.07899999999976424
aF0.08699999999976425
aF0.09599999999976426
aF0.10999999999976427
aF0.11099999999976427
aF0.12499999999976429
aF0.12599999999976427
aF0.14099999999976429
aF0.1449999999997643
aF0.1479999999997643
aF0.1539999999997643
aF0.1569999999997643
aF0.1589999999997643
aF0.1669999999997643
aF0.1689999999997643
aF0.17399999999976432
aF0.17799999999976432
aF0.18199999999976432
aF0.18599999999976433
aF0.20099999999976434
aF0.20699999999976434
aF0.21499999999976435
aF0.22099999999976436
aF0.22599999999976436
aF0.22699999999976436
aF0.24599999999976438
aF0.24699999999976438
aF0.25199999999976436
aF0.25699999999976436
aF0.25999999999976436
aF0.2809999999997644
aF0.2879999999997644
aF0.2889999999997644
aF0.3029999999997644
aF0.3039999999997644
aF0.3149999999997644
aF0.3199999999997644
aF0.3229999999997644
aF0.33299999999976443
aF0.33399999999976443
aF0.33899999999976443
aF0.36499999999976446
aF0.36699999999976446
aF0.37099999999976446
aF0.37599999999976447
aF0.37699999999976447
aF0.37799999999976447
aF0.37899999999976447
aF0.3919999999997645
aF0.3939999999997645
aF0.3959999999997645
aF0.3979999999997645
aF0.4009999999997645
aF0.4029999999997645
aF0.4049999999997645
aF0.4059999999997645
aF0.4069999999997645
aF0.4079999999997645
aF0.4089999999997645
aF0.4099999999997645
aF0.4099999999997645
aF0.4109999999997645
aF0.4109999999997645
aF0.4109999999997645
aF2.7309999999995744
aF2.7309999999995744
aF2.7309999999995744
aF2.7319999999995743
aF2.732999999999574
aF2.733999999999574
aF2.734999999999574
aF2.734999999999574
aF2.7369999999995738
aF2.7369999999995738
aF2.7389999999995736
aF2.7409999999995733
aF2.7409999999995733
aF2.7419999999995732
aF2.742999999999573
aF2.743999999999573
aF2.744999999999573
aF2.745999999999573
aF2.7509999999995722
aF2.752999999999572
aF2.7559999999995717
aF2.7599999999995712
aF2.763999999999571
aF2.7679999999995704
aF2.7689999999995702
aF2.77099999999957
aF2.7739999999995697
aF2.7769999999995694
aF2.7779999999995693
aF2.779999999999569
aF2.780999999999569
aF2.7829999999995687
aF2.7869999999995683
aF2.789999999999568
aF2.8049999999995663
aF2.805999999999566
aF2.8219999999995644
aF2.825999999999564
aF2.826999999999564
aF2.832999999999563
aF2.8409999999995623
aF2.8489999999995614
aF2.8589999999995603
aF2.86199999999956
aF2.8649999999995597
aF2.8659999999995596
aF2.872999999999559
aF2.8739999999995587
aF2.8779999999995582
aF2.878999999999558
aF2.8839999999995576
aF2.8859999999995574
aF2.8939999999995565
aF2.8949999999995564
aF2.897999999999556
aF2.898999999999556
aF2.899999999999556
aF2.9099999999995547
aF2.9109999999995546
aF2.914999999999554
aF2.915999999999554
aF2.924999999999553
aF2.926999999999553
aF2.932999999999552
aF2.9409999999995513
aF2.944999999999551
aF2.9499999999995503
aF2.95099999999955
aF2.9589999999995493
aF2.959999999999549
aF2.962999999999549
aF2.9639999999995488
aF2.9739999999995477
aF2.9839999999995466
aF2.9959999999995452
aF2.998999999999545
aF3.0099999999995437
aF3.032999999999541
aF3.034999999999541
aF3.04199999999954
aF3.0469999999995396
aF3.0559999999995386
aF3.059999999999538
aF3.0669999999995374
aF3.0729999999995368
aF3.0839999999995356
aF3.0939999999995345
aF3.0959999999995342
aF3.097999999999534
aF3.13599999999953
aF3.1379999999995296
aF3.1399999999995294
aF3.141999999999529
aF3.143999999999529
aF3.1459999999995287
aF3.1479999999995285
aF3.1499999999995283
a.