(lp0
F3.1299999999995305
aF0.012999999999764186
aF-3.1260000000000026
aF-0.048000000000235854
aF-0.09000000000023589
aF-0.13200000000023593
aF-0.15500000000023595
aF-3.0550000000000104
aF-0.201000000000236
aF-0.25100000000023603
aF-0.27800000000023606
aF-3.005000000000016
aF-0.3090000000002361
aF-2.9900000000000175
aF-2.9730000000000194
aF-0.38300000000023615
aF-2.9520000000000217
aF-0.4420000000002362
aF-2.9190000000000254
aF-2.8730000000000304
aF-2.8710000000000306
aF-0.5740000000002363
aF-2.823000000000036
aF-0.6850000000002364
aF-2.797000000000039
aF-2.78600000000004
aF-0.7270000000002365
aF-0.7440000000002365
aF-2.768000000000042
aF-2.7520000000000437
aF-2.7450000000000445
aF-0.8790000000002366
aF-0.8880000000002366
aF-0.9060000000002366
aF-2.6740000000000523
aF-2.6610000000000538
aF-0.9610000000002367
aF-0.9750000000002367
aF-1.0810000000002278
aF-1.0860000000002272
aF-1.0910000000002267
aF-1.0960000000002261
aF-2.5520000000000658
aF-2.5260000000000686
aF-2.477000000000074
aF-1.2730000000002066
aF-2.4620000000000757
aF-2.42200000000008
aF-1.3450000000001987
aF-2.396000000000083
aF-1.4810000000001837
aF-1.5040000000001812
aF-1.5280000000001785
aF-2.261000000000098
aF-2.2400000000001
aF-2.225000000000102
aF-1.6380000000001664
aF-2.1920000000001054
aF-2.1830000000001064
aF-1.6830000000001615
aF-2.131000000000112
aF-1.7220000000001572
aF-2.105000000000115
aF-2.0740000000001184
aF-2.033000000000123
aF-1.832000000000145
aF-2.0030000000001262
aF-1.8640000000001415
aF1.881999999999668
aF2.0219999999996525
aF1.816999999999675
aF1.7949999999996775
aF2.0839999999996457
aF2.125999999999641
aF2.1489999999996385
aF1.6879999999996893
aF1.6759999999996906
aF2.2139999999996314
aF1.6019999999996988
aF2.236999999999629
aF2.2649999999996258
aF1.5479999999997047
aF2.2779999999996243
aF2.324999999999619
aF2.3409999999996174
aF2.370999999999614
aF2.3849999999996125
aF1.3859999999997226
aF1.372999999999724
aF2.415999999999609
aF1.3289999999997288
aF1.2869999999997335
aF2.4679999999996034
aF2.527999999999597
aF1.164999999999747
aF2.5569999999995936
aF2.6049999999995883
aF1.0339999999997613
aF2.6219999999995864
aF1.009999999999764
aF0.990999999999765
aF2.643999999999584
aF2.651999999999583
aF0.9489999999997649
aF2.672999999999581
aF0.8629999999997648
aF2.7369999999995738
aF2.7509999999995722
aF0.7499999999997647
aF0.7329999999997647
aF2.8199999999995646
aF2.8369999999995628
aF0.5959999999997646
aF2.86399999999956
aF2.9279999999995527
aF0.4159999999997645
aF2.9569999999995495
aF0.3299999999997644
aF2.9929999999995456
aF3.007999999999544
aF0.26799999999976437
aF3.0209999999995425
aF0.24099999999976437
aF3.033999999999541
aF3.077999999999536
aF0.10299999999976427
aF0.06099999999976423
aF3.117999999999532
aF-2.3581830932428716e-13
aF-3.1180000000000034
aF-0.061000000000235866
aF-0.1030000000002359
aF-3.078000000000008
aF-3.0340000000000127
aF-0.24100000000023603
aF-3.021000000000014
aF-0.26800000000023605
aF-3.0080000000000156
aF-2.993000000000017
aF-0.3300000000002361
aF-2.957000000000021
aF-0.4160000000002362
aF-2.9280000000000244
aF-2.8640000000000314
aF-0.5960000000002363
aF-2.8370000000000344
aF-2.8200000000000363
aF-0.7330000000002365
aF-0.7500000000002365
aF-2.751000000000044
aF-2.7370000000000454
aF-0.8630000000002366
aF-2.6730000000000524
aF-0.9490000000002367
aF-2.6520000000000548
aF-2.6440000000000556
aF-0.9910000000002367
aF-1.0100000000002356
aF-2.622000000000058
aF-1.034000000000233
aF-2.60500000000006
aF-2.557000000000065
aF-1.1650000000002185
aF-2.5280000000000684
aF-2.468000000000075
aF-1.287000000000205
aF-1.3290000000002005
aF-2.4160000000000807
aF-1.3730000000001956
aF-1.3860000000001942
aF-2.385000000000084
aF-2.3710000000000857
aF-2.341000000000089
aF-2.3250000000000908
aF-2.278000000000096
aF-1.5480000000001763
aF-2.2650000000000974
aF-2.2370000000001005
aF-1.6020000000001704
aF-2.214000000000103
aF-1.6760000000001622
aF-1.688000000000161
aF-2.14900000000011
aF-2.1260000000001127
aF-2.0840000000001173
aF-1.7950000000001491
aF-1.8170000000001467
aF-2.022000000000124
aF-1.8820000000001396
aF1.86399999999967
aF2.0029999999996546
aF1.8319999999996734
aF2.0329999999996513
aF2.073999999999647
aF2.1049999999996434
aF1.7219999999996856
aF2.1309999999996405
aF1.6829999999996899
aF2.182999999999635
aF2.191999999999634
aF1.6379999999996948
aF2.22499999999963
aF2.2399999999996285
aF2.260999999999626
aF1.527999999999707
aF1.5039999999997096
aF1.480999999999712
aF2.3959999999996113
aF1.344999999999727
aF2.4219999999996085
aF2.461999999999604
aF1.272999999999735
aF2.4769999999996024
aF2.525999999999597
aF2.551999999999594
aF1.0959999999997545
aF1.090999999999755
aF1.0859999999997556
aF1.0809999999997562
aF0.9749999999997649
aF0.9609999999997649
aF2.660999999999582
aF2.6739999999995807
aF0.9059999999997649
aF0.8879999999997649
aF0.8789999999997649
aF2.744999999999573
aF2.751999999999572
aF2.7679999999995704
aF0.7439999999997647
aF0.7269999999997647
aF2.7859999999995684
aF2.796999999999567
aF0.6849999999997647
aF2.8229999999995643
aF0.5739999999997646
aF2.870999999999559
aF2.872999999999559
aF2.9189999999995537
aF0.4419999999997645
aF2.95199999999955
aF0.3829999999997645
aF2.972999999999548
aF2.989999999999546
aF0.3089999999997644
aF3.0049999999995443
aF0.2779999999997644
aF0.25099999999976436
aF0.20099999999976434
aF3.0549999999995388
aF0.1549999999997643
aF0.13199999999976428
aF0.08999999999976425
aF0.04799999999976422
aF3.125999999999531
aF-0.013000000000235823
aF-3.130000000000002
a.