(lp0
F3.1369999999995297
aF-3.142000000000001
aF-0.014000000000235824
aF-3.1190000000000033
aF-0.08100000000023588
aF-0.14200000000023594
aF-3.078000000000008
aF-0.197000000000236
aF-0.24600000000023603
aF-3.0450000000000115
aF-0.28900000000023607
aF-0.39400000000023616
aF-2.987000000000018
aF-0.4500000000002362
aF-0.47500000000023623
aF-2.9610000000000207
aF-0.5410000000002363
aF-2.9460000000000224
aF-2.9260000000000246
aF-0.6140000000002364
aF-2.9200000000000252
aF-2.914000000000026
aF-0.6460000000002364
aF-2.8550000000000324
aF-0.8190000000002365
aF-0.8290000000002365
aF-2.831000000000035
aF-0.8760000000002366
aF-2.8200000000000363
aF-2.806000000000038
aF-0.9650000000002367
aF-1.0140000000002352
aF-2.7250000000000467
aF-2.7200000000000473
aF-2.687000000000051
aF-1.2010000000002146
aF-1.2280000000002116
aF-2.623000000000058
aF-1.324000000000201
aF-2.6080000000000596
aF-1.4090000000001917
aF-1.4630000000001857
aF-1.4910000000001826
aF-2.5250000000000687
aF-1.51500000000018
aF-2.5080000000000706
aF-2.4900000000000726
aF-1.5650000000001745
aF-2.4540000000000766
aF-2.4470000000000773
aF-1.6350000000001668
aF-1.6640000000001636
aF-1.670000000000163
aF-1.6760000000001622
aF-2.396000000000083
aF-1.7760000000001512
aF-1.7990000000001487
aF-1.8070000000001478
aF-2.279000000000096
aF-2.2630000000000976
aF-2.2450000000000996
aF-1.9260000000001347
aF-2.213000000000103
aF-1.9710000000001298
aF-2.1100000000001145
aF-2.1090000000001146
aF-2.0530000000001207
aF2.026999999999652
aF2.13499999999964
aF2.1789999999996352
aF1.9609999999996592
aF2.207999999999632
aF2.2199999999996307
aF2.2309999999996295
aF1.8949999999996665
aF2.3109999999996207
aF2.334999999999618
aF1.7789999999996793
aF2.345999999999617
aF1.7499999999996825
aF1.7429999999996832
aF1.6969999999996883
aF2.40699999999961
aF2.426999999999608
aF1.6149999999996973
aF1.5879999999997003
aF1.5169999999997081
aF1.4929999999997108
aF2.552999999999594
aF1.4419999999997164
aF1.4329999999997174
aF1.3889999999997222
aF1.2929999999997328
aF1.2889999999997332
aF1.264999999999736
aF1.2609999999997363
aF2.6659999999995816
aF1.217999999999741
aF2.67899999999958
aF2.696999999999578
aF2.7209999999995755
aF2.725999999999575
aF2.7469999999995727
aF1.0509999999997595
aF2.7579999999995715
aF0.9559999999997649
aF2.8039999999995664
aF0.8739999999997649
aF2.86099999999956
aF0.7739999999997648
aF2.869999999999559
aF2.9049999999995553
aF2.941999999999551
aF2.9489999999995504
aF0.46999999999976455
aF0.4169999999997645
aF3.0009999999995447
aF0.35499999999976445
aF3.050999999999539
aF0.23499999999976437
aF0.12799999999976427
aF3.105999999999533
aF0.06699999999976423
aF3.1279999999995307
aF-2.3581830932428716e-13
aF-3.1280000000000023
aF-0.06700000000023587
aF-3.1060000000000048
aF-0.12800000000023593
aF-0.23500000000023602
aF-3.051000000000011
aF-0.3550000000002361
aF-3.0010000000000163
aF-0.4170000000002362
aF-0.47000000000023623
aF-2.949000000000022
aF-2.942000000000023
aF-2.905000000000027
aF-2.8700000000000307
aF-0.7740000000002365
aF-2.8610000000000317
aF-0.8740000000002366
aF-2.804000000000038
aF-0.9560000000002367
aF-2.758000000000043
aF-1.051000000000231
aF-2.7470000000000443
aF-2.7260000000000466
aF-2.721000000000047
aF-2.69700000000005
aF-2.679000000000052
aF-1.2180000000002127
aF-2.666000000000053
aF-1.261000000000208
aF-1.2650000000002075
aF-1.2890000000002049
aF-1.2930000000002044
aF-1.3890000000001939
aF-1.433000000000189
aF-1.442000000000188
aF-2.5530000000000657
aF-1.4930000000001824
aF-1.5170000000001798
aF-1.588000000000172
aF-1.615000000000169
aF-2.4270000000000795
aF-2.4070000000000817
aF-1.69700000000016
aF-1.7430000000001549
aF-1.750000000000154
aF-2.3460000000000885
aF-1.779000000000151
aF-2.3350000000000897
aF-2.3110000000000923
aF-1.8950000000001381
aF-2.231000000000101
aF-2.2200000000001023
aF-2.2080000000001037
aF-1.9610000000001309
aF-2.179000000000107
aF-2.1350000000001117
aF-2.0270000000001236
aF2.052999999999649
aF2.108999999999643
aF2.109999999999643
aF1.9709999999996581
aF2.2129999999996315
aF1.925999999999663
aF2.244999999999628
aF2.262999999999626
aF2.278999999999624
aF1.8069999999996762
aF1.798999999999677
aF1.7759999999996796
aF2.3959999999996113
aF1.6759999999996906
aF1.6699999999996913
aF1.663999999999692
aF1.6349999999996951
aF2.4469999999996057
aF2.453999999999605
aF1.5649999999997029
aF2.489999999999601
aF2.507999999999599
aF1.5149999999997084
aF2.524999999999597
aF1.490999999999711
aF1.462999999999714
aF1.40899999999972
aF2.607999999999588
aF1.3239999999997294
aF2.6229999999995863
aF1.22799999999974
aF1.200999999999743
aF2.6869999999995793
aF2.7199999999995756
aF2.724999999999575
aF1.0139999999997635
aF0.9649999999997649
aF2.805999999999566
aF2.8199999999995646
aF0.8759999999997649
aF2.8309999999995634
aF0.8289999999997648
aF0.8189999999997648
aF2.854999999999561
aF0.6459999999997647
aF2.9139999999995543
aF2.9199999999995536
aF0.6139999999997646
aF2.925999999999553
aF2.9459999999995508
aF0.5409999999997646
aF2.960999999999549
aF0.47499999999976456
aF0.44999999999976453
aF2.9869999999995462
aF0.3939999999997645
aF0.2889999999997644
aF3.04499999999954
aF0.24599999999976438
aF0.19699999999976434
aF3.077999999999536
aF0.1419999999997643
aF0.08099999999976425
aF3.1189999999995317
aF0.013999999999764187
aF3.141999999999529
aF-3.1370000000000013
a.