(lp0
F3.1379999999995296
aF0.01799999999976419
aF3.1409999999995293
aF0.0009999999997641817
aF3.143999999999529
aF-0.016000000000235826
aF3.1469999999995286
aF-0.03300000000023584
aF3.1499999999995283
aF-0.050000000000235856
aF-0.06700000000023587
aF-3.1190000000000033
aF-3.1160000000000037
aF-0.19100000000023598
aF-3.103000000000005
aF-0.24700000000023603
aF-3.093000000000006
aF-0.28600000000023607
aF-0.4180000000002362
aF-0.4450000000002362
aF-0.47200000000023623
aF-3.0540000000000105
aF-0.5040000000002363
aF-3.048000000000011
aF-3.041000000000012
aF-0.5830000000002363
aF-3.032000000000013
aF-0.6400000000002364
aF-0.6450000000002364
aF-3.012000000000015
aF-3.011000000000015
aF-3.0100000000000153
aF-3.0090000000000154
aF-0.7750000000002365
aF-0.7800000000002365
aF-2.9900000000000175
aF-0.8330000000002366
aF-2.975000000000019
aF-0.9400000000002366
aF-0.9760000000002367
aF-1.007000000000236
aF-2.9460000000000224
aF-2.940000000000023
aF-2.9370000000000234
aF-1.0590000000002302
aF-2.922000000000025
aF-1.1300000000002224
aF-1.2020000000002145
aF-2.8980000000000277
aF-2.8910000000000284
aF-2.886000000000029
aF-1.3470000000001985
aF-2.8610000000000317
aF-2.857000000000032
aF-1.3750000000001954
aF-2.848000000000033
aF-2.8430000000000337
aF-1.452000000000187
aF-2.8290000000000353
aF-1.4810000000001837
aF-2.8180000000000365
aF-2.78500000000004
aF-1.6010000000001705
aF-2.7740000000000413
aF-1.6290000000001674
aF-2.766000000000042
aF-2.7440000000000446
aF-1.706000000000159
aF-1.770000000000152
aF-1.805000000000148
aF-2.69700000000005
aF-1.8560000000001424
aF-2.677000000000052
aF-2.668000000000053
aF-1.906000000000137
aF-1.9100000000001365
aF-1.914000000000136
aF-1.9180000000001356
aF-2.6340000000000567
aF-1.951000000000132
aF-2.6250000000000577
aF-1.96800000000013
aF-2.6180000000000585
aF-2.013000000000125
aF-2.032000000000123
aF-2.5810000000000626
aF-2.578000000000063
aF-2.0570000000001203
aF-2.078000000000118
aF-2.0890000000001168
aF-2.106000000000115
aF-2.1120000000001142
aF-2.1180000000001136
aF-2.124000000000113
aF-2.5110000000000703
aF-2.506000000000071
aF-2.5010000000000714
aF-2.1710000000001077
aF-2.203000000000104
aF-2.4650000000000754
aF-2.212000000000103
aF-2.2540000000000986
aF-2.4190000000000804
aF-2.405000000000082
aF-2.386000000000084
aF-2.305000000000093
aF2.31699999999962
aF2.31799999999962
aF2.3739999999996138
aF2.397999999999611
aF2.2739999999996248
aF2.4139999999996093
aF2.425999999999608
aF2.2469999999996277
aF2.445999999999606
aF2.461999999999604
aF2.4689999999996033
aF2.197999999999633
aF2.481999999999602
aF2.173999999999636
aF2.5039999999995994
aF2.508999999999599
aF2.526999999999597
aF2.542999999999595
aF2.0589999999996484
aF2.053999999999649
aF2.033999999999651
aF2.5939999999995895
aF2.6019999999995886
aF2.000999999999655
aF1.9829999999996568
aF2.616999999999587
aF1.935999999999662
aF1.8879999999996673
aF2.6779999999995803
aF1.8389999999996727
aF2.697999999999578
aF1.8099999999996759
aF2.732999999999574
aF2.7369999999995738
aF1.7139999999996864
aF1.690999999999689
aF1.6779999999996904
aF2.7559999999995717
aF1.6619999999996922
aF2.761999999999571
aF2.7689999999995702
aF2.7779999999995693
aF2.7929999999995676
aF2.8099999999995657
aF2.8109999999995656
aF1.490999999999711
aF2.833999999999563
aF1.4329999999997174
aF2.8459999999995618
aF2.850999999999561
aF1.3119999999997307
aF1.300999999999732
aF1.2899999999997331
aF1.2789999999997343
aF1.2489999999997377
aF2.889999999999557
aF1.1869999999997445
aF2.907999999999555
aF2.9099999999995547
aF1.1469999999997489
aF2.9229999999995533
aF1.0809999999997562
aF2.9409999999995513
aF1.0339999999997613
aF2.943999999999551
aF1.0209999999997628
aF2.95399999999955
aF2.9579999999995494
aF0.9589999999997649
aF2.961999999999549
aF0.9179999999997649
aF0.8949999999997649
aF0.8669999999997648
aF2.9949999999995454
aF0.7759999999997648
aF0.6459999999997647
aF3.025999999999542
aF3.026999999999542
aF0.5839999999997646
aF3.04499999999954
aF0.5049999999997645
aF3.051999999999539
aF0.47299999999976455
aF0.44599999999976453
aF0.4189999999997645
aF3.071999999999537
aF3.0759999999995364
aF3.079999999999536
aF3.0839999999995356
aF0.2869999999997644
aF3.0949999999995343
aF0.20899999999976435
aF3.1049999999995332
aF3.1209999999995315
aF0.10199999999976427
aF3.123999999999531
aF0.08499999999976425
aF3.126999999999531
aF0.06799999999976424
aF3.1299999999995305
aF0.05099999999976422
aF3.13299999999953
aF0.033999999999764205
aF0.01699999999976419
aF-2.3581830932428716e-13
aF-0.017000000000235826
aF-0.03400000000023584
aF-3.133000000000002
aF-0.05100000000023586
aF-3.130000000000002
aF-0.06800000000023587
aF-3.1270000000000024
aF-0.08500000000023589
aF-3.1240000000000028
aF-0.1020000000002359
aF-3.121000000000003
aF-3.105000000000005
aF-0.209000000000236
aF-3.095000000000006
aF-0.28700000000023607
aF-3.084000000000007
aF-3.0800000000000076
aF-3.076000000000008
aF-3.0720000000000085
aF-0.4190000000002362
aF-0.4460000000002362
aF-0.47300000000023623
aF-3.0520000000000107
aF-0.5050000000002363
aF-3.0450000000000115
aF-0.5840000000002363
aF-3.0270000000000135
aF-3.0260000000000136
aF-0.6460000000002364
aF-0.7760000000002365
aF-2.995000000000017
aF-0.8670000000002366
aF-0.8950000000002366
aF-0.9180000000002366
aF-2.9620000000000206
aF-0.9590000000002367
aF-2.958000000000021
aF-2.9540000000000215
aF-1.0210000000002344
aF-2.9440000000000226
aF-1.034000000000233
aF-2.941000000000023
aF-1.0810000000002278
aF-2.923000000000025
aF-1.1470000000002205
aF-2.9100000000000263
aF-2.9080000000000266
aF-1.187000000000216
aF-2.8900000000000285
aF-1.2490000000002093
aF-1.279000000000206
aF-1.2900000000002048
aF-1.3010000000002035
aF-1.3120000000002023
aF-2.851000000000033
aF-2.8460000000000334
aF-1.433000000000189
aF-2.8340000000000347
aF-1.4910000000001826
aF-2.8110000000000372
aF-2.8100000000000374
aF-2.7930000000000392
aF-2.778000000000041
aF-2.769000000000042
aF-2.7620000000000426
aF-1.6620000000001638
aF-2.7560000000000433
aF-1.678000000000162
aF-1.6910000000001606
aF-1.714000000000158
aF-2.7370000000000454
aF-2.733000000000046
aF-1.8100000000001475
aF-2.6980000000000497
aF-1.8390000000001443
aF-2.678000000000052
aF-1.888000000000139
aF-1.9360000000001336
aF-2.6170000000000586
aF-1.9830000000001284
aF-2.0010000000001265
aF-2.6020000000000603
aF-2.594000000000061
aF-2.034000000000123
aF-2.0540000000001206
aF-2.05900000000012
aF-2.5430000000000668
aF-2.5270000000000685
aF-2.5090000000000705
aF-2.504000000000071
aF-2.1740000000001074
aF-2.4820000000000735
aF-2.1980000000001048
aF-2.469000000000075
aF-2.4620000000000757
aF-2.4460000000000774
aF-2.2470000000000994
aF-2.4260000000000796
aF-2.414000000000081
aF-2.2740000000000964
aF-2.3980000000000827
aF-2.3740000000000854
aF-2.3180000000000915
aF-2.3170000000000917
aF2.3049999999996214
aF2.3859999999996124
aF2.4049999999996103
aF2.418999999999609
aF2.253999999999627
aF2.2119999999996316
aF2.4649999999996037
aF2.2029999999996326
aF2.170999999999636
aF2.5009999999995998
aF2.505999999999599
aF2.5109999999995987
aF2.1239999999996413
aF2.117999999999642
aF2.1119999999996426
aF2.1059999999996433
aF2.088999999999645
aF2.0779999999996464
aF2.0569999999996487
aF2.5779999999995913
aF2.580999999999591
aF2.0319999999996514
aF2.0129999999996535
aF2.617999999999587
aF1.9679999999996585
aF2.624999999999586
aF1.9509999999996603
aF2.633999999999585
aF1.917999999999664
aF1.9139999999996644
aF1.9099999999996649
aF1.9059999999996653
aF2.6679999999995814
aF2.6769999999995804
aF1.8559999999996708
aF2.696999999999578
aF1.8049999999996764
aF1.7699999999996803
aF1.7059999999996873
aF2.743999999999573
aF2.7659999999995706
aF1.6289999999996958
aF2.7739999999995697
aF1.6009999999996989
aF2.7849999999995685
aF2.817999999999565
aF1.480999999999712
aF2.8289999999995636
aF1.4519999999997153
aF2.842999999999562
aF2.8479999999995615
aF1.3749999999997238
aF2.8569999999995606
aF2.86099999999956
aF1.3469999999997269
aF2.8859999999995574
aF2.890999999999557
aF2.897999999999556
aF1.2019999999997428
aF1.1299999999997508
aF2.9219999999995534
aF1.0589999999997586
aF2.9369999999995517
aF2.9399999999995514
aF2.9459999999995508
aF1.0069999999997643
aF0.9759999999997649
aF0.9399999999997649
aF2.9749999999995476
aF0.8329999999997648
aF2.989999999999546
aF0.7799999999997648
aF0.7749999999997648
aF3.008999999999544
aF3.0099999999995437
aF3.0109999999995436
aF3.0119999999995435
aF0.6449999999997647
aF0.6399999999997646
aF3.0319999999995413
aF0.5829999999997646
aF3.0409999999995403
aF3.0479999999995395
aF0.5039999999997645
aF3.053999999999539
aF0.47199999999976455
aF0.44499999999976453
aF0.4179999999997645
aF0.2859999999997644
aF3.0929999999995346
aF0.24699999999976438
aF3.1029999999995335
aF0.19099999999976433
aF3.115999999999532
aF3.1189999999995317
aF0.06699999999976423
aF0.04999999999976422
aF-3.15
aF0.032999999999764204
aF-3.1470000000000002
aF0.01599999999976419
aF-3.1440000000000006
aF-0.0010000000002358183
aF-3.141000000000001
aF-0.018000000000235827
aF-3.1380000000000012
a.