(lp0
F0.3899999999999774
aF0.39999999999997743
aF0.7299999999999777
aF-2.3800000000000163
aF-2.3600000000000168
aF0.41999999999997745
aF0.5299999999999775
aF0.5899999999999775
aF0.6399999999999776
aF0.7799999999999777
aF-2.7600000000000082
aF-2.6900000000000097
aF-2.3700000000000165
aF-2.340000000000017
aF0.3799999999999774
aF0.3899999999999774
aF-2.7600000000000082
aF-2.3300000000000174
aF0.4999999999999775
aF0.7299999999999777
aF-2.400000000000016
aF-2.340000000000017
aF0.7199999999999777
aF-2.7500000000000084
aF-2.6500000000000106
aF-2.580000000000012
aF-2.4700000000000144
aF0.3499999999999774
aF0.7099999999999776
aF0.5399999999999775
aF0.5699999999999775
aF0.6899999999999776
aF0.7199999999999777
aF-2.7400000000000087
aF-2.640000000000011
aF-2.3800000000000163
aF-2.7100000000000093
aF-2.5600000000000125
aF-2.480000000000014
aF-2.340000000000017
aF-2.3300000000000174
aF-2.2900000000000182
aF-2.7100000000000093
aF-2.5500000000000127
aF-2.390000000000016
aF0.32999999999997737
aF0.6399999999999776
aF0.6599999999999776
aF0.3599999999999774
aF0.3799999999999774
aF0.41999999999997745
aF-2.3200000000000176
aF-2.2900000000000182
aF-2.260000000000019
aF-2.4700000000000144
aF0.31999999999997736
aF0.5999999999999776
aF-2.450000000000015
aF0.2799999999999773
aF-2.5500000000000127
aF-2.5200000000000133
aF-2.400000000000016
aF0.28999999999997733
aF0.3499999999999774
aF0.4699999999999775
aF-2.6900000000000097
aF-2.620000000000011
aF-2.4600000000000146
aF-2.4200000000000155
aF-2.3700000000000165
aF0.29999999999997734
aF0.5399999999999775
aF-2.6500000000000106
aF-2.540000000000013
aF-2.4200000000000155
aF-2.310000000000018
aF-2.2700000000000187
aF0.3399999999999774
aF0.3599999999999774
aF0.5399999999999775
aF-2.68000000000001
aF-2.5700000000000123
aF0.06999999999997722
aF0.06999999999997722
aF0.28999999999997733
aF-2.6100000000000114
aF-2.530000000000013
aF-2.2400000000000193
aF-2.2200000000000197
aF-2.2200000000000197
aF0.19999999999997725
aF0.4799999999999775
aF0.4999999999999775
aF0.5099999999999775
aF-2.67000000000001
aF-2.3300000000000174
aF0.04999999999997722
aF0.06999999999997722
aF0.18999999999997724
aF0.4599999999999775
aF-2.6600000000000104
aF-2.2200000000000197
aF0.059999999999977224
aF0.2799999999999773
aF0.42999999999997746
aF0.19999999999997725
aF0.40999999999997744
aF-2.5200000000000133
aF-2.20000000000002
aF-0.010000000000022784
aF0.16999999999997722
aF-2.480000000000014
aF0.2599999999999773
aF0.2799999999999773
aF-2.480000000000014
aF-2.3800000000000163
aF-2.1900000000000204
aF0.1199999999999772
aF0.3499999999999774
aF-2.630000000000011
aF-2.390000000000016
aF-2.3600000000000168
aF-2.2900000000000182
aF-2.1800000000000206
aF-2.170000000000021
aF-2.170000000000021
aF-0.0700000000000228
aF-0.04000000000002279
aF-2.5200000000000133
aF-2.20000000000002
aF-2.1900000000000204
aF-0.09000000000002278
aF-2.250000000000019
aF-2.21000000000002
aF-0.08000000000002279
aF0.06999999999997722
aF0.1399999999999772
aF0.31999999999997736
aF-2.3800000000000163
aF-2.340000000000017
aF-2.5100000000000136
aF-2.4200000000000155
aF-2.260000000000019
aF-2.160000000000021
aF-2.1500000000000212
aF-0.13000000000002276
aF0.04999999999997722
aF0.32999999999997737
aF-2.6100000000000114
aF-2.5600000000000125
aF-2.2700000000000187
aF-2.20000000000002
aF-2.1400000000000214
aF-0.13000000000002276
aF0.08999999999997721
aF-2.6000000000000116
aF-2.490000000000014
aF-2.3200000000000176
aF-2.2900000000000182
aF-2.2400000000000193
aF-2.170000000000021
aF-2.1400000000000214
aF-2.1300000000000217
aF-0.0700000000000228
aF0.2599999999999773
aF0.2699999999999773
aF0.04999999999997722
aF-2.5500000000000127
aF-2.5100000000000136
aF-2.3700000000000165
aF-2.2400000000000193
aF-0.12000000000002277
aF-0.10000000000002278
aF-0.010000000000022784
aF0.07999999999997721
aF0.18999999999997724
aF-2.590000000000012
aF-2.5700000000000123
aF-2.2800000000000185
aF-2.110000000000022
aF-0.21000000000002284
aF0.1399999999999772
aF-2.580000000000012
aF-2.540000000000013
aF-2.4200000000000155
aF-2.120000000000022
aF0.08999999999997721
aF-2.580000000000012
aF-2.530000000000013
aF-0.2600000000000229
aF-0.020000000000022784
aF-0.19000000000002282
aF-0.1800000000000228
aF0.1399999999999772
aF0.1499999999999772
aF0.17999999999997723
aF-2.2300000000000195
aF-0.3100000000000229
aF-0.25000000000002287
aF0.03999999999997722
aF-2.5600000000000125
aF-2.450000000000015
aF-2.2800000000000185
aF0.07999999999997721
aF0.1499999999999772
aF0.15999999999997722
aF-2.300000000000018
aF-0.21000000000002284
aF-0.1600000000000228
aF-2.4700000000000144
aF-2.390000000000016
aF-2.3300000000000174
aF-2.170000000000021
aF-0.1800000000000228
aF-0.10000000000002278
aF0.009999999999977216
aF0.059999999999977224
aF-2.120000000000022
aF-2.0400000000000236
aF-0.3000000000000229
aF-0.25000000000002287
aF-0.04000000000002279
aF-0.21000000000002284
aF-0.1600000000000228
aF0.07999999999997721
aF0.0999999999999772
aF-2.3600000000000168
aF-2.20000000000002
aF-0.420000000000023
aF-0.370000000000023
aF-0.3000000000000229
aF-0.2700000000000229
aF0.07999999999997721
aF-2.5200000000000133
aF-2.440000000000015
aF-2.4300000000000153
aF-2.1800000000000206
aF-0.010000000000022784
aF0.06999999999997722
aF-2.1400000000000214
aF-2.0500000000000234
aF-0.43000000000002303
aF-0.030000000000022786
aF-0.47000000000002307
aF-0.46000000000002306
aF-0.0700000000000228
aF0.009999999999977216
aF-2.3300000000000174
aF-2.030000000000024
aF-0.1700000000000228
aF-0.010000000000022784
aF-2.5100000000000136
aF-2.440000000000015
aF-2.4200000000000155
aF-2.3200000000000176
aF-1.9800000000000244
aF-0.46000000000002306
aF-2.400000000000016
aF-2.340000000000017
aF-2.3300000000000174
aF-2.2900000000000182
aF-1.9900000000000244
aF-1.9800000000000244
aF-1.9700000000000244
aF-0.5200000000000231
aF-0.3100000000000229
aF-0.1700000000000228
aF-0.14000000000002277
aF-2.2783858133479384e-14
aF-2.490000000000014
aF-2.1900000000000204
aF-1.9800000000000244
aF-1.9700000000000244
aF-0.5400000000000231
aF-0.4900000000000231
aF-1.9500000000000244
aF-0.030000000000022786
aF-2.20000000000002
aF-2.070000000000023
aF-1.9500000000000244
aF-0.43000000000002303
aF-0.05000000000002279
aF-2.480000000000014
aF-2.3600000000000168
aF-2.340000000000017
aF-2.2300000000000195
aF-2.110000000000022
aF-0.5600000000000231
aF-2.400000000000016
aF-2.3600000000000168
aF-1.9300000000000244
aF-0.22000000000002284
aF-2.3300000000000174
aF-0.6000000000000232
aF-0.5200000000000231
aF-0.21000000000002284
aF-0.1700000000000228
aF-2.450000000000015
aF-2.4100000000000157
aF-2.020000000000024
aF-2.010000000000024
aF-0.6800000000000233
aF-0.3100000000000229
aF-2.350000000000017
aF-0.5500000000000231
aF-0.420000000000023
aF-0.12000000000002277
aF-0.12000000000002277
aF-2.4600000000000146
aF-2.390000000000016
aF-2.3200000000000176
aF-2.0500000000000234
aF-1.9500000000000244
aF-1.8900000000000243
aF-0.7100000000000233
aF-0.6900000000000233
aF-0.6500000000000232
aF-0.34000000000002295
aF-2.450000000000015
aF-2.1300000000000217
aF-2.0400000000000236
aF-1.9500000000000244
aF-1.9000000000000243
aF-1.8600000000000243
aF-0.44000000000002304
aF-0.35000000000002296
aF-0.21000000000002284
aF-2.310000000000018
aF-1.9400000000000244
aF-1.9000000000000243
aF-0.36000000000002297
aF-2.3700000000000165
aF-2.310000000000018
aF-2.20000000000002
aF-2.120000000000022
aF-1.9700000000000244
aF-0.36000000000002297
aF-2.0400000000000236
aF-1.9000000000000243
aF-1.8400000000000243
aF-0.7600000000000233
aF-0.7000000000000233
aF-0.3100000000000229
aF-0.23000000000002285
aF-2.4300000000000153
aF-2.4100000000000157
aF-2.2800000000000185
aF-1.9200000000000244
aF-0.7000000000000233
aF-0.5200000000000231
aF-0.44000000000002304
aF-2.4200000000000155
aF-2.3300000000000174
aF-2.1400000000000214
aF-1.8000000000000242
aF-0.8700000000000234
aF-0.8600000000000234
aF-0.7400000000000233
aF-0.43000000000002303
aF-0.3000000000000229
aF-0.2800000000000229
aF-0.25000000000002287
aF-0.24000000000002286
aF-2.4200000000000155
aF-2.0000000000000244
aF-1.8500000000000243
aF-1.8200000000000243
aF-1.7900000000000242
aF-1.7700000000000242
aF-0.7400000000000233
aF-2.4100000000000157
aF-1.8400000000000243
aF-1.7600000000000242
aF-0.9200000000000235
aF-0.9000000000000234
aF-0.8000000000000234
aF-0.7000000000000233
aF-0.380000000000023
aF-0.32000000000002293
aF-0.3100000000000229
aF-2.2300000000000195
aF-1.9400000000000244
aF-0.9400000000000235
aF-0.9200000000000235
aF-0.8800000000000234
aF-0.6300000000000232
aF-0.2800000000000229
aF-2.400000000000016
aF-2.340000000000017
aF-2.21000000000002
aF-2.1900000000000204
aF-1.9700000000000244
aF-1.9400000000000244
aF-1.8900000000000243
aF-1.8700000000000243
aF-1.7700000000000242
aF-0.45000000000002305
aF-2.3600000000000168
aF-2.310000000000018
aF-2.2700000000000187
aF-2.160000000000021
aF-2.020000000000024
aF-1.8100000000000243
aF-1.7300000000000242
aF-1.0100000000000235
aF-0.9200000000000235
aF-0.34000000000002295
aF-0.3100000000000229
aF-2.3700000000000165
aF-2.3200000000000176
aF-2.1000000000000223
aF-1.9300000000000244
aF-1.7100000000000242
aF-1.0400000000000236
aF-1.9700000000000244
aF-1.8500000000000243
aF-1.8100000000000243
aF-1.8000000000000242
aF-1.7300000000000242
aF-1.6500000000000241
aF-1.0600000000000236
aF-1.0300000000000236
aF-0.9400000000000235
aF-0.8900000000000234
aF-0.6700000000000232
aF-0.34000000000002295
aF-2.3200000000000176
aF-2.2300000000000195
aF-1.7200000000000242
aF-1.6700000000000241
aF-1.610000000000024
aF-1.0900000000000236
aF-0.9700000000000235
aF-0.9400000000000235
aF-0.8800000000000234
aF-0.6400000000000232
aF-0.5700000000000232
aF-0.5000000000000231
aF-0.43000000000002303
aF-0.36000000000002297
aF-2.1800000000000206
aF-1.9700000000000244
aF-1.7100000000000242
aF-1.580000000000024
aF-1.1700000000000237
aF-1.1500000000000237
aF-0.8600000000000234
aF-0.5400000000000231
aF-0.47000000000002307
aF-2.3700000000000165
aF-2.21000000000002
aF-2.060000000000023
aF-1.640000000000024
aF-1.610000000000024
aF-1.540000000000024
aF-1.2300000000000237
aF-1.2000000000000237
aF-0.8700000000000234
aF-0.6000000000000232
aF-2.300000000000018
aF-2.2700000000000187
aF-2.110000000000022
aF-2.1000000000000223
aF-1.8100000000000243
aF-1.3500000000000238
aF-1.3500000000000238
aF-1.3300000000000238
aF-1.2700000000000238
aF-0.9300000000000235
aF-0.7100000000000233
aF-0.6100000000000232
aF-0.46000000000002306
aF-2.350000000000017
aF-1.8600000000000243
aF-1.7900000000000242
aF-1.7100000000000242
aF-1.560000000000024
aF-1.510000000000024
aF-1.2100000000000237
aF-1.0800000000000236
aF-1.0600000000000236
aF-1.0000000000000235
aF-0.8900000000000234
aF-2.2900000000000182
aF-2.1800000000000206
aF-1.9500000000000244
aF-1.8600000000000243
aF-1.460000000000024
aF-1.3000000000000238
aF-1.2900000000000238
aF-1.2000000000000237
aF-0.9800000000000235
aF-0.9300000000000235
aF-0.8900000000000234
aF-0.7500000000000233
aF-0.4800000000000231
aF-0.44000000000002304
aF-2.340000000000017
aF-1.6500000000000241
aF-1.600000000000024
aF-1.500000000000024
aF-1.3400000000000238
aF-1.1900000000000237
aF-0.9300000000000235
aF-0.6300000000000232
aF-0.5300000000000231
aF-0.4900000000000231
aF-0.45000000000002305
aF-0.45000000000002305
aF-2.2800000000000185
aF-1.9500000000000244
aF-1.6600000000000241
aF-1.620000000000024
aF-1.410000000000024
aF-1.2900000000000238
aF-0.4800000000000231
aF-2.3300000000000174
aF-2.160000000000021
aF-1.9600000000000244
aF-1.9300000000000244
aF-1.7200000000000242
aF-1.630000000000024
aF-1.470000000000024
aF-0.7800000000000233
aF-2.2800000000000185
aF-1.7700000000000242
aF-1.500000000000024
aF-1.0500000000000236
aF-0.8500000000000234
aF-2.3200000000000176
aF-2.1400000000000214
aF-1.430000000000024
aF-1.1500000000000237
aF-0.6100000000000232
aF-2.300000000000018
aF-2.1900000000000204
aF-1.9500000000000244
aF-1.8900000000000243
aF-1.6500000000000241
aF-1.2700000000000238
aF-1.2400000000000237
aF-1.1500000000000237
aF-1.0600000000000236
aF-0.9500000000000235
aF-0.9000000000000234
aF-0.5400000000000231
aF-2.2300000000000195
aF-2.1000000000000223
aF-2.0500000000000234
aF-2.020000000000024
aF-1.8300000000000243
aF-1.6700000000000241
aF-1.420000000000024
aF-1.2500000000000238
aF-1.2400000000000237
aF-1.1700000000000237
aF-0.8900000000000234
aF-0.6500000000000232
aF-2.300000000000018
aF-2.010000000000024
aF-1.8200000000000243
aF-1.6900000000000241
aF-1.470000000000024
aF-1.3400000000000238
aF-1.2100000000000237
aF-1.2000000000000237
aF-1.0400000000000236
aF-0.7000000000000233
aF-0.5700000000000232
aF-2.1500000000000212
aF-2.0800000000000227
aF-2.070000000000023
aF-2.0400000000000236
aF-1.8600000000000243
aF-1.7400000000000242
aF-1.6600000000000241
aF-1.610000000000024
aF-1.600000000000024
aF-1.540000000000024
aF-1.2900000000000238
aF-2.21000000000002
aF-1.7000000000000242
aF-1.2600000000000238
aF-1.2200000000000237
aF-0.9300000000000235
aF-0.7100000000000233
aF-0.6000000000000232
aF-2.2300000000000195
aF-1.7800000000000242
aF-1.0200000000000236
aF-0.7600000000000233
aF-0.7100000000000233
aF-0.6900000000000233
aF-2.20000000000002
aF-2.0400000000000236
aF-2.020000000000024
aF-1.640000000000024
aF-1.570000000000024
aF-1.500000000000024
aF-0.8700000000000234
aF-0.6600000000000232
aF-1.9400000000000244
aF-1.7900000000000242
aF-1.510000000000024
aF-1.1200000000000236
aF-0.9900000000000235
aF-2.120000000000022
aF-1.8600000000000243
aF-1.590000000000024
aF-1.3200000000000238
aF-1.2600000000000238
aF-0.9600000000000235
aF-0.6800000000000233
aF-0.6700000000000232
aF-2.250000000000019
aF-2.1400000000000214
aF-1.580000000000024
aF-1.3200000000000238
aF-1.2700000000000238
aF-0.7700000000000233
aF-0.6900000000000233
aF-2.2400000000000193
aF-2.1500000000000212
aF-2.110000000000022
aF-1.7400000000000242
aF-1.640000000000024
aF-1.510000000000024
aF-1.2700000000000238
aF-2.20000000000002
aF-1.8300000000000243
aF-1.3200000000000238
aF-1.2400000000000237
aF-0.7600000000000233
aF-2.110000000000022
aF-1.7600000000000242
aF-1.580000000000024
aF-1.510000000000024
aF-1.3300000000000238
aF-1.2800000000000238
aF-1.2400000000000237
aF-0.7900000000000234
aF-0.7700000000000233
aF-0.7400000000000233
aF-1.9400000000000244
aF-1.8700000000000243
aF-1.2400000000000237
aF-0.7700000000000233
aF-2.21000000000002
aF-2.170000000000021
aF-1.570000000000024
aF-1.420000000000024
aF-1.0900000000000236
aF-1.0800000000000236
aF-0.7800000000000233
aF-2.20000000000002
aF-2.0000000000000244
aF-1.6600000000000241
aF-1.590000000000024
aF-1.440000000000024
aF-1.3500000000000238
aF-0.8100000000000234
aF-2.170000000000021
aF-2.160000000000021
aF-2.1500000000000212
aF-1.9100000000000243
aF-1.580000000000024
aF-1.550000000000024
aF-1.3200000000000238
aF-1.2500000000000238
aF-1.2400000000000237
aF-1.0000000000000235
aF-2.170000000000021
aF-2.1300000000000217
aF-2.010000000000024
aF-1.7300000000000242
aF-1.0700000000000236
aF-1.0600000000000236
aF-0.9300000000000235
aF-1.600000000000024
aF-1.430000000000024
aF-1.1700000000000237
aF-0.9500000000000235
aF-1.8800000000000243
aF-1.490000000000024
aF-1.480000000000024
aF-1.420000000000024
aF-1.0400000000000236
aF-0.8700000000000234
aF-2.030000000000024
aF-1.7500000000000242
aF-1.7300000000000242
aF-0.8900000000000234
aF-1.9300000000000244
aF-1.7300000000000242
aF-1.630000000000024
aF-1.610000000000024
aF-1.9100000000000243
aF-1.7600000000000242
aF-1.440000000000024
aF-0.9400000000000235
aF-1.7500000000000242
aF-1.620000000000024
aF-1.3700000000000239
aF-2.0800000000000227
aF-2.010000000000024
aF-1.6900000000000241
aF-1.520000000000024
aF-1.490000000000024
aF-1.8000000000000242
aF-1.480000000000024
aF-1.420000000000024
aF-1.3800000000000239
aF-1.3400000000000238
aF-1.1800000000000237
aF-1.1200000000000236
aF-1.0100000000000235
aF-1.0100000000000235
aF-2.060000000000023
aF-2.0000000000000244
aF-1.9400000000000244
aF-1.8600000000000243
aF-1.7900000000000242
aF-2.070000000000023
aF-1.7800000000000242
aF-1.7300000000000242
aF-1.580000000000024
aF-2.060000000000023
aF-2.060000000000023
aF-2.0500000000000234
aF-2.0400000000000236
aF-1.8000000000000242
aF-1.6800000000000241
aF-1.1200000000000236
aF-1.9700000000000244
aF-1.6900000000000241
aF-2.030000000000024
aF-1.7100000000000242
aF-1.630000000000024
aF-1.480000000000024
aF-1.2000000000000237
aF-1.1700000000000237
aF-1.1400000000000237
aF-2.020000000000024
aF-2.020000000000024
aF-2.010000000000024
aF-1.2600000000000238
aF-1.2200000000000237
aF-1.1800000000000237
aF-1.1500000000000237
aF-2.0000000000000244
aF-1.8400000000000243
aF-1.6600000000000241
aF-1.540000000000024
aF-1.3900000000000239
aF-1.9900000000000244
aF-1.9900000000000244
aF-1.9700000000000244
aF-1.2200000000000237
aF-1.430000000000024
aF-1.2800000000000238
aF-1.7000000000000242
aF-1.430000000000024
aF-1.2800000000000238
aF-1.2500000000000238
aF-1.2500000000000238
aF-1.2500000000000238
aF-1.9300000000000244
aF-1.9200000000000244
aF-1.9000000000000243
aF-1.8600000000000243
aF-1.7300000000000242
aF-1.630000000000024
aF-1.550000000000024
aF-1.2900000000000238
aF-1.2800000000000238
aF-1.9100000000000243
aF-1.9000000000000243
aF-1.7000000000000242
aF-1.560000000000024
aF-1.510000000000024
aF-1.440000000000024
aF-1.3200000000000238
aF-1.3500000000000238
aF-1.8600000000000243
aF-1.8500000000000243
aF-1.8200000000000243
aF-1.6900000000000241
aF-1.610000000000024
aF-1.510000000000024
aF-1.3800000000000239
aF-1.3800000000000239
aF-1.3800000000000239
aF-1.570000000000024
aF-1.470000000000024
aF-1.450000000000024
aF-1.440000000000024
aF-1.7700000000000242
aF-1.7600000000000242
aF-1.550000000000024
aF-1.530000000000024
aF-1.7400000000000242
aF-1.7400000000000242
aF-1.7300000000000242
aF-1.7200000000000242
aF-1.580000000000024
a.