(lp0
F0.5299999999999775
aF0.7799999999999777
aF0.4999999999999775
aF0.7299999999999777
aF0.7199999999999777
aF0.7099999999999776
aF0.5399999999999775
aF0.5699999999999775
aF0.6899999999999776
aF0.7199999999999777
aF0.6399999999999776
aF0.6599999999999776
aF0.3599999999999774
aF0.31999999999997736
aF0.5999999999999776
aF0.2799999999999773
aF0.3499999999999774
aF0.4699999999999775
aF0.29999999999997734
aF0.5399999999999775
aF0.3399999999999774
aF0.3599999999999774
aF0.5399999999999775
aF0.28999999999997733
aF0.4799999999999775
aF0.4999999999999775
aF0.5099999999999775
aF0.2599999999999773
aF0.1199999999999772
aF0.3499999999999774
aF0.06999999999997722
aF0.32999999999997737
aF0.08999999999997721
aF0.2599999999999773
aF-0.12000000000002277
aF-0.10000000000002278
aF-0.010000000000022784
aF0.07999999999997721
aF0.18999999999997724
aF0.1399999999999772
aF0.08999999999997721
aF-0.020000000000022784
aF-0.19000000000002282
aF-0.1800000000000228
aF0.1399999999999772
aF0.17999999999997723
aF0.15999999999997722
aF-0.10000000000002278
aF0.059999999999977224
aF-0.25000000000002287
aF-0.04000000000002279
aF-0.21000000000002284
aF0.0999999999999772
aF-0.3000000000000229
aF0.07999999999997721
aF-0.010000000000022784
aF0.06999999999997722
aF-0.030000000000022786
aF-0.010000000000022784
aF-0.46000000000002306
aF-0.3100000000000229
aF-0.14000000000002277
aF-2.2783858133479384e-14
aF-0.4900000000000231
aF-0.030000000000022786
aF-0.05000000000002279
aF-0.5600000000000231
aF-0.1700000000000228
aF-0.3100000000000229
aF-0.12000000000002277
aF-0.12000000000002277
aF-0.44000000000002304
aF-0.21000000000002284
aF-0.36000000000002297
aF-0.7600000000000233
aF-0.7000000000000233
aF-0.5200000000000231
aF-0.44000000000002304
aF-0.7400000000000233
aF-0.2800000000000229
aF-0.25000000000002287
aF-0.24000000000002286
aF-0.7400000000000233
aF-0.7000000000000233
aF-0.380000000000023
aF-0.32000000000002293
aF-0.45000000000002305
aF-0.6700000000000232
aF-0.6400000000000232
aF-0.5700000000000232
aF-0.5000000000000231
aF-0.43000000000002303
aF-0.36000000000002297
aF-0.5400000000000231
aF-0.6000000000000232
aF-0.7100000000000233
aF-0.7500000000000233
aF-0.4900000000000231
aF-0.45000000000002305
aF-0.6100000000000232
aF-0.6500000000000232
aF-0.7000000000000233
aF-0.5700000000000232
aF-0.6600000000000232
aF-0.6800000000000233
aF-0.7700000000000233
a.