(lp0
F0.005
aF0.005
aF0.015
aF0.015
aF0.02
aF0.025
aF0.030000000000000002
aF0.030000000000000002
aF0.030000000000000002
aF0.030000000000000002
aF0.049999999999999996
aF0.049999999999999996
aF0.05499999999999999
aF0.06999999999999999
aF0.06999999999999999
aF0.075
aF0.08
aF0.08
aF0.085
aF0.085
aF0.09000000000000001
aF0.09000000000000001
aF0.09000000000000001
aF0.09500000000000001
aF0.10000000000000002
aF0.10000000000000002
aF0.10000000000000002
aF0.12500000000000003
aF0.13500000000000004
aF0.13500000000000004
aF0.15000000000000005
aF0.16000000000000006
aF0.16500000000000006
aF0.17000000000000007
aF0.18000000000000008
aF0.18000000000000008
aF0.18000000000000008
aF0.18000000000000008
aF0.18000000000000008
aF0.18500000000000008
aF0.19000000000000009
aF0.1950000000000001
aF0.2000000000000001
aF0.2000000000000001
aF0.2000000000000001
aF0.2000000000000001
aF0.2150000000000001
aF0.22500000000000012
aF0.22500000000000012
aF0.23000000000000012
aF0.23000000000000012
aF0.23500000000000013
aF0.23500000000000013
aF0.24000000000000013
aF0.24000000000000013
aF0.24500000000000013
aF0.24500000000000013
aF0.2500000000000001
aF0.2600000000000001
aF0.2650000000000001
aF0.27000000000000013
aF0.27000000000000013
aF0.27000000000000013
aF0.27500000000000013
aF0.28000000000000014
aF0.28500000000000014
aF0.29000000000000015
aF0.30000000000000016
aF0.30500000000000016
aF0.31000000000000016
aF0.31000000000000016
aF0.3200000000000002
aF0.3200000000000002
aF0.3300000000000002
aF0.3350000000000002
aF0.3400000000000002
aF0.3400000000000002
aF0.3400000000000002
aF0.3450000000000002
aF0.3450000000000002
aF0.3450000000000002
aF0.3450000000000002
aF0.3500000000000002
aF0.3550000000000002
aF0.3550000000000002
aF0.3550000000000002
aF0.3650000000000002
aF0.3800000000000002
aF0.38500000000000023
aF0.38500000000000023
aF0.38500000000000023
aF0.38500000000000023
aF0.38500000000000023
aF0.39000000000000024
aF0.39500000000000024
aF0.40000000000000024
aF0.41000000000000025
aF0.41500000000000026
aF0.41500000000000026
aF0.4350000000000003
aF0.4450000000000003
aF0.4500000000000003
aF0.4500000000000003
aF0.4700000000000003
aF0.4800000000000003
aF0.5050000000000003
a.