(lp0
F3.1189999999995317
aF3.1199999999995316
aF3.1209999999995315
aF3.1219999999995314
aF3.1229999999995313
aF-0.018000000000235827
aF-0.02100000000023583
aF-0.024000000000235833
aF-0.027000000000235835
aF-0.030000000000235838
aF-3.1090000000000044
aF-3.1080000000000045
aF-3.1070000000000046
aF-3.1060000000000048
aF-3.105000000000005
aF-3.104000000000005
aF-3.103000000000005
aF-3.102000000000005
aF-3.1010000000000053
aF-3.1000000000000054
aF-3.0990000000000055
aF-3.0700000000000087
aF-3.069000000000009
aF-3.068000000000009
aF-3.067000000000009
aF-3.066000000000009
aF-3.0650000000000093
aF-3.0640000000000094
aF-3.0630000000000095
aF-3.0620000000000096
aF-0.39600000000023616
aF-0.39900000000023617
aF-0.40200000000023617
aF-3.023000000000014
aF-3.022000000000014
aF-3.021000000000014
aF-0.46900000000023623
aF-3.0010000000000163
aF-0.5180000000002363
aF-2.985000000000018
aF-0.5580000000002363
aF-2.9720000000000195
aF-0.5890000000002363
aF-2.9610000000000207
aF-0.6200000000002364
aF-2.951000000000022
aF-0.6450000000002364
aF-2.942000000000023
aF-0.7110000000002364
aF-0.7300000000002365
aF-2.905000000000027
aF-2.8990000000000276
aF-2.893000000000028
aF-0.8100000000002365
aF-2.8820000000000294
aF-0.8230000000002365
aF-0.8620000000002366
aF-2.8620000000000316
aF-0.9080000000002366
aF-2.8440000000000336
aF-2.824000000000036
aF-0.9680000000002367
aF-2.813000000000037
aF-0.9950000000002367
aF-1.0120000000002354
aF-2.7990000000000386
aF-1.0360000000002327
aF-2.78600000000004
aF-2.759000000000043
aF-1.1270000000002227
aF-2.748000000000044
aF-1.15200000000022
aF-2.732000000000046
aF-1.1810000000002168
aF-2.7270000000000465
aF-1.1920000000002156
aF-2.722000000000047
aF-1.2030000000002143
aF-2.7170000000000476
aF-1.2140000000002131
aF-1.2590000000002082
aF-1.278000000000206
aF-2.676000000000052
aF-1.305000000000203
aF-1.3090000000002027
aF-1.3890000000001939
aF-2.624000000000058
aF-1.4180000000001907
aF-2.613000000000059
aF-1.4350000000001888
aF-2.5830000000000624
aF-1.496000000000182
aF-2.558000000000065
aF-1.5280000000001785
aF-2.550000000000066
aF-1.542000000000177
aF-2.542000000000067
aF-2.5280000000000684
aF-2.5250000000000687
aF-1.5950000000001712
aF-1.6000000000001706
aF-2.504000000000071
aF-2.5010000000000714
aF-1.6360000000001667
aF-2.488000000000073
aF-2.478000000000074
aF-2.4640000000000755
aF-2.4530000000000767
aF-1.7020000000001594
aF-1.7380000000001554
aF-2.4080000000000816
aF-2.3990000000000826
aF-2.394000000000083
aF-1.7900000000001497
aF-1.797000000000149
aF-1.8040000000001482
aF-2.3740000000000854
aF-1.8260000000001457
aF-2.352000000000088
aF-2.3460000000000885
aF-2.340000000000089
aF-2.3270000000000906
aF-2.3200000000000913
aF-1.8830000000001395
aF-2.313000000000092
aF-2.2980000000000937
aF-2.2810000000000956
aF-2.2620000000000977
aF-2.251000000000099
aF-1.96800000000013
aF-1.9820000000001285
aF-2.2260000000001017
aF-1.997000000000127
aF-2.2110000000001033
aF-2.014000000000125
aF-2.1930000000001053
aF-2.0350000000001227
aF-2.168000000000108
aF-2.167000000000108
aF-2.0620000000001197
aF-2.06100000000012
aF2.04399999999965
aF2.04499999999965
aF2.1199999999996417
aF2.1209999999996416
aF2.0119999999996536
aF2.1509999999996383
aF2.171999999999636
aF1.9709999999996581
aF2.1879999999996342
aF2.2019999999996327
aF1.9409999999996614
aF2.2139999999996314
aF1.9279999999996629
aF2.22499999999963
aF1.9159999999996642
aF2.234999999999629
aF1.8829999999996678
aF2.261999999999626
aF1.872999999999669
aF2.269999999999625
aF1.8199999999996748
aF2.3109999999996207
aF1.8119999999996756
aF2.31699999999962
aF2.3229999999996194
aF1.7889999999996782
aF2.333999999999618
aF1.7399999999996836
aF2.3689999999996143
aF1.726999999999685
aF2.3869999999996123
aF1.707999999999687
aF1.6659999999996917
aF2.418999999999609
aF1.6489999999996936
aF2.4299999999996076
aF1.6379999999996948
aF1.626999999999696
aF2.463999999999604
aF1.5899999999997
aF1.5399999999997056
aF2.4969999999996
aF2.4999999999996
aF1.5159999999997082
aF2.5109999999995987
aF1.5019999999997098
aF2.526999999999597
aF1.4789999999997123
aF1.4519999999997153
aF2.551999999999594
aF1.4299999999997177
aF2.5589999999995934
aF1.4169999999997192
aF2.5659999999995926
aF1.382999999999723
aF2.5839999999995906
aF2.596999999999589
aF1.353999999999726
aF2.598999999999589
aF1.281999999999734
aF1.2779999999997345
aF2.636999999999585
aF2.6389999999995846
aF2.651999999999583
aF1.22799999999974
aF2.660999999999582
aF1.182999999999745
aF2.68199999999958
aF1.1719999999997461
aF1.1499999999997486
aF1.1389999999997498
aF2.7019999999995776
aF1.1209999999997518
aF1.1029999999997537
aF2.717999999999576
aF2.7319999999995743
aF1.063999999999758
aF2.734999999999574
aF1.0569999999997588
aF1.0499999999997596
aF1.0429999999997603
aF1.0359999999997611
aF2.7469999999995727
aF2.7499999999995723
aF0.997999999999765
aF2.762999999999571
aF2.77299999999957
aF2.779999999999569
aF0.9469999999997649
aF2.7949999999995674
aF0.9099999999997649
aF2.798999999999567
aF0.8999999999997649
aF2.8029999999995665
aF2.806999999999566
aF0.8569999999997648
aF2.8289999999995636
aF0.8209999999997648
aF0.8079999999997648
aF0.7949999999997648
aF2.8489999999995614
aF2.8599999999995602
aF2.8659999999995596
aF2.871999999999559
aF0.7019999999997647
aF0.6829999999997647
aF0.6639999999997647
aF2.899999999999556
aF0.6419999999997646
aF0.6199999999997646
aF0.5949999999997646
aF2.926999999999553
aF0.5669999999997646
aF0.5359999999997646
aF2.9389999999995515
aF2.95099999999955
aF0.4989999999997646
aF2.9669999999995484
aF0.45299999999976454
aF2.9869999999995462
aF2.987999999999546
aF0.3919999999997645
aF0.3889999999997645
aF3.023999999999542
aF3.024999999999542
aF3.025999999999542
aF3.026999999999542
aF3.0279999999995417
aF0.2739999999997644
aF3.0289999999995416
aF0.2709999999997644
aF0.26799999999976437
aF0.26499999999976437
aF0.26199999999976437
aF0.25899999999976436
aF0.25599999999976436
aF0.25299999999976436
aF0.24999999999976438
aF0.1629999999997643
aF0.1599999999997643
aF0.1569999999997643
aF0.1539999999997643
aF0.1509999999997643
aF0.1479999999997643
aF0.1449999999997643
aF0.1419999999997643
aF0.13899999999976428
aF0.13599999999976428
aF0.13299999999976428
aF3.0759999999995364
aF3.0769999999995363
aF3.077999999999536
aF3.078999999999536
aF3.079999999999536
aF3.080999999999536
aF3.0819999999995358
aF3.0829999999995357
aF-3.15
aF-3.149
aF-3.148
aF-3.1470000000000002
aF-0.05800000000023586
aF-0.061000000000235866
aF-0.06400000000023587
aF-0.06700000000023587
aF-0.07000000000023587
aF3.143999999999529
aF3.144999999999529
aF3.1459999999995287
aF3.1469999999995286
aF3.1479999999995285
aF-0.37300000000023614
aF-0.37600000000023615
aF-0.37900000000023615
aF-3.0350000000000126
aF-3.0340000000000127
aF-3.033000000000013
aF-0.4550000000002362
aF-0.4580000000002362
aF-3.0090000000000154
aF-3.0080000000000156
aF-0.5070000000002363
aF-0.5100000000002363
aF-2.9910000000000174
aF-0.5500000000002363
aF-2.977000000000019
aF-0.5840000000002363
aF-2.9650000000000203
aF-0.6120000000002364
aF-2.9550000000000214
aF-0.6400000000002364
aF-2.9450000000000225
aF-0.7060000000002364
aF-2.921000000000025
aF-0.7250000000002365
aF-2.914000000000026
aF-0.7440000000002365
aF-0.7600000000002365
aF-0.7760000000002365
aF-0.7920000000002365
aF-2.884000000000029
aF-0.8210000000002365
aF-0.8340000000002366
aF-0.8470000000002366
aF-0.8600000000002366
aF-2.859000000000032
aF-0.8830000000002366
aF-2.850000000000033
aF-0.9060000000002366
aF-0.9160000000002366
aF-0.9660000000002367
aF-2.8180000000000365
aF-0.9930000000002367
aF-1.0100000000002356
aF-2.797000000000039
aF-1.034000000000233
aF-2.78400000000004
aF-2.7810000000000406
aF-1.0720000000002288
aF-1.079000000000228
aF-1.0860000000002272
aF-1.0930000000002265
aF-2.766000000000042
aF-2.7630000000000425
aF-1.1320000000002222
aF-2.749000000000044
aF-2.741000000000045
aF-2.7280000000000464
aF-2.723000000000047
aF-2.7180000000000475
aF-1.2230000000002121
aF-2.706000000000049
aF-1.2530000000002088
aF-2.6900000000000506
aF-1.2720000000002067
aF-2.679000000000052
aF-1.2950000000002042
aF-2.658000000000054
aF-2.6560000000000543
aF-2.6540000000000545
aF-2.6520000000000548
aF-1.3460000000001986
aF-2.650000000000055
aF-1.3500000000001982
aF-2.648000000000055
aF-1.3540000000001977
aF-2.6460000000000554
aF-2.6440000000000556
aF-2.642000000000056
aF-1.4030000000001923
aF-1.42400000000019
aF-1.4410000000001881
aF-2.594000000000061
aF-2.5820000000000625
aF-1.4800000000001838
aF-1.4890000000001828
aF-1.5070000000001809
aF-2.5620000000000647
aF-1.5160000000001799
aF-2.549000000000066
aF-2.5380000000000673
aF-1.5580000000001752
aF-2.521000000000069
aF-2.5180000000000695
aF-2.51500000000007
aF-2.51200000000007
aF-2.5090000000000705
aF-2.4900000000000726
aF-2.4800000000000737
aF-1.6540000000001647
aF-1.6650000000001635
aF-1.6760000000001622
aF-2.459000000000076
aF-2.440000000000078
aF-2.4360000000000785
aF-2.432000000000079
aF-2.415000000000081
aF-1.7530000000001538
aF-1.7660000000001523
aF-2.397000000000083
aF-1.7860000000001501
aF-1.8070000000001478
aF-2.3720000000000856
aF-1.814000000000147
aF-2.361000000000087
aF-1.8290000000001454
aF-2.33100000000009
aF-1.87800000000014
aF-1.887000000000139
aF-2.3100000000000924
aF-1.896000000000138
aF-2.286000000000095
aF-1.9260000000001347
aF-1.9370000000001335
aF-2.268000000000097
aF-2.234000000000101
aF-1.9880000000001279
aF-2.2200000000001023
aF-2.004000000000126
aF-2.204000000000104
aF-2.022000000000124
aF-2.1840000000001063
aF-2.0450000000001216
aF-2.0440000000001217
aF-2.1530000000001097
aF-2.15200000000011
aF-2.078000000000118
aF-2.077000000000118
aF2.0289999999996517
aF2.13499999999964
aF2.0019999999996547
aF2.1599999999996373
aF1.981999999999657
aF2.1939999999996336
aF2.206999999999632
aF1.9229999999996634
aF1.9109999999996647
aF2.2389999999996286
aF1.899999999999666
aF1.8889999999996672
aF2.2569999999996266
aF1.8789999999996683
aF1.8689999999996694
aF2.272999999999625
aF1.8419999999996723
aF2.300999999999622
aF1.8249999999996742
aF1.8009999999996769
aF1.7859999999996785
aF1.7439999999996831
aF2.370999999999614
aF2.379999999999613
aF1.717999999999686
aF2.396999999999611
aF2.400999999999611
aF2.4049999999996103
aF2.40899999999961
aF2.4129999999996095
aF1.6579999999996926
aF2.427999999999608
aF2.434999999999607
aF2.4419999999996063
aF1.6139999999996975
aF2.461999999999604
aF1.5929999999996998
aF1.5379999999997058
aF2.5009999999995998
aF1.49999999999971
aF2.527999999999597
aF1.4679999999997135
aF2.5479999999995946
aF1.436999999999717
aF2.5599999999995933
aF2.5669999999995925
aF1.4109999999997198
aF1.3939999999997217
aF2.5849999999995905
aF1.372999999999724
aF2.6019999999995886
aF1.335999999999728
aF1.3319999999997285
aF1.327999999999729
aF1.3079999999997312
aF1.3039999999997316
aF1.299999999999732
aF1.2959999999997325
aF2.633999999999585
aF1.2569999999997368
aF2.6489999999995835
aF2.6599999999995823
aF1.1889999999997443
aF2.68099999999958
aF2.705999999999577
aF2.7139999999995763
aF1.0979999999997543
aF2.7279999999995748
aF2.751999999999572
aF2.754999999999572
aF1.0069999999997643
aF2.7649999999995707
aF0.9489999999997649
aF2.7859999999995684
aF0.9119999999997649
aF0.9019999999997649
aF0.8919999999997649
aF2.817999999999565
aF0.8589999999997648
aF2.826999999999564
aF0.8359999999997648
aF0.7839999999997648
aF2.851999999999561
aF0.7549999999997647
aF0.7229999999997647
aF2.8759999999995585
aF0.7069999999997647
aF0.6879999999997647
aF0.6689999999997647
aF2.896999999999556
aF0.6469999999997647
aF2.9049999999995553
aF0.6249999999997646
aF2.9139999999995543
aF0.5999999999997646
aF2.9229999999995533
aF0.5719999999997646
aF2.933999999999552
aF0.5409999999997646
aF2.9459999999995508
aF0.5069999999997645
aF2.959999999999549
aF0.46399999999976455
aF2.9779999999995472
aF2.978999999999547
aF0.4089999999997645
aF0.4059999999997645
aF3.0039999999995444
aF3.0049999999995443
aF3.005999999999544
aF3.006999999999544
aF0.3149999999997644
aF0.3119999999997644
aF0.3089999999997644
aF0.3059999999997644
aF0.09299999999976426
aF0.08999999999976425
aF0.08699999999976425
aF0.08399999999976425
aF0.08099999999976425
aF0.07799999999976424
aF3.107999999999533
aF3.108999999999533
aF3.1099999999995327
aF3.1109999999995326
aF3.1119999999995325
a.