(lp0
S'Matrix([\n[-0.571428571428571*sin(theta_b(t) + theta_c(t)) - 0.75*sin(theta_b(t))],\n[ 0.571428571428571*cos(theta_b(t) + theta_c(t)) + 0.75*cos(theta_b(t))],\n[                                                                     0]])'
p1
aS'[theta_b(t), theta_c(t)]'
p2
a.