(lp0
S'Matrix([\n[3*l_1*m_2*2_comx(t)*omega1(t)**2*cos(theta1(t)) + 2*l_1*m_2*2_comx(t)*omega1(t)*omega2(t)*cos(theta1(t)) + 3*l_1*m_2*2_comxdot(t)*omega1(t)*sin(theta1(t)) + 3*l_1*m_2*2_comxdot(t)*omega2(t)*sin(theta1(t)) + 3*l_1*m_2*2_comy(t)*omega1(t)**2*sin(theta1(t)) + 2*l_1*m_2*2_comy(t)*omega1(t)*omega2(t)*sin(theta1(t)) - 3*l_1*m_2*2_comydot(t)*omega1(t)*cos(theta1(t)) - 3*l_1*m_2*2_comydot(t)*omega2(t)*cos(theta1(t)) - 9.81*l_1*m_2*sin(theta1(t)) - 3*m_1*1_comx(t)*1_comxdot(t)*omega1(t) + 9.81*m_1*1_comx(t) - 3*m_1*1_comy(t)*1_comydot(t)*omega1(t) - 3*m_2*2_comx(t)*2_comxdot(t)*omega1(t) - 3*m_2*2_comx(t)*2_comxdot(t)*omega2(t) + 9.81*m_2*2_comx(t) - 3*m_2*2_comy(t)*2_comydot(t)*omega1(t) - 3*m_2*2_comy(t)*2_comydot(t)*omega2(t) + (m_2*(-l_1*(2_comx(t)*sin(theta1(t)) - 2_comy(t)*cos(theta1(t))) + 2_comx(t)**2 + 2_comy(t)**2) + m_2*(l_1**2 + l_1*(-2_comx(t)*sin(theta1(t)) + 2_comy(t)*cos(theta1(t))) - l_1*2_comx(t)*sin(theta1(t)) + l_1*2_comy(t)*cos(theta1(t)) + 2_comx(t)**2 + 2_comy(t)**2))*a_2(t) + (2*m_1*(1_comx(t)**2 + 1_comy(t)**2) + m_2*(l_1**2 + l_1*(-2_comx(t)*sin(theta1(t)) + 2_comy(t)*cos(theta1(t))) - l_1*2_comx(t)*sin(theta1(t)) + l_1*2_comy(t)*cos(theta1(t)) + 2_comx(t)**2 + 2_comy(t)**2) + m_2*(l_1**2 - l_1*(2_comx(t)*sin(theta1(t)) - 2_comy(t)*cos(theta1(t))) - l_1*2_comx(t)*sin(theta1(t)) + l_1*2_comy(t)*cos(theta1(t)) + 2_comx(t)**2 + 2_comy(t)**2))*a_1(t)],\n[                                                                                                                                                                                                                                                                                                                                                                                                                                                                                         m_2*(l_1*(2_comx(t)*cos(theta1(t)) + 2_comy(t)*sin(theta1(t)))*omega1(t)**2 + 2*(omega1(t) + omega2(t))*(l_1*2_comx(t)*omega1(t)*cos(theta1(t)) + l_1*2_comxdot(t)*sin(theta1(t)) + l_1*2_comy(t)*omega1(t)*sin(theta1(t)) - l_1*2_comydot(t)*cos(theta1(t)) - 2_comx(t)*2_comxdot(t) - 2_comy(t)*2_comydot(t)) - (omega1(t) + omega2(t))*2_comx(t)*2_comxdot(t) - (omega1(t) + omega2(t))*2_comy(t)*2_comydot(t)) + 9.81*m_2*2_comx(t) + (m_2*(2_comx(t)**2 + 2_comy(t)**2) + m_2*(l_1**2 + l_1*(-2_comx(t)*sin(theta1(t)) + 2_comy(t)*cos(theta1(t))) - l_1*2_comx(t)*sin(theta1(t)) + l_1*2_comy(t)*cos(theta1(t)) + 2_comx(t)**2 + 2_comy(t)**2))*a_2(t) + (m_2*(-l_1*2_comx(t)*sin(theta1(t)) + l_1*2_comy(t)*cos(theta1(t)) + 2_comx(t)**2 + 2_comy(t)**2) + m_2*(l_1**2 + l_1*(-2_comx(t)*sin(theta1(t)) + 2_comy(t)*cos(theta1(t))) - l_1*2_comx(t)*sin(theta1(t)) + l_1*2_comy(t)*cos(theta1(t)) + 2_comx(t)**2 + 2_comy(t)**2))*a_1(t)]])'
p1
aS'[l_1, 1_comx(t), 1_comy(t), 2_comx(t), 2_comy(t), 1_comxdot(t), 1_comydot(t), 2_comxdot(t), 2_comydot(t), m_1, m_2, theta1(t), theta2(t), omega1(t), omega2(t), a_1(t), a_2(t)]'
p2
a.