(lp0
S'-((l_1*m_1*sin(theta1(t)) + l_1*m_2*sin(theta1(t)) + l_2*m_2*sin(theta1(t) + theta2(t)))*(l_1*m_1*omega1(t)**2*sin(theta1(t)) + l_1*m_2*omega1(t)**2*sin(theta1(t)) + l_2*m_2*omega1(t)**2*sin(theta1(t) + theta2(t)) + 2*l_2*m_2*omega1(t)*omega2(t)*sin(theta1(t) + theta2(t)) + l_2*m_2*omega2(t)**2*sin(theta1(t) + theta2(t)) - m_1*c_x(t) - m_2*c_x(t)) + (l_1*m_1*cos(theta1(t)) + l_1*m_2*cos(theta1(t)) + l_2*m_2*cos(theta1(t) + theta2(t)))*(l_1*m_1*omega1(t)**2*cos(theta1(t)) + l_1*m_2*omega1(t)**2*cos(theta1(t)) + l_2*m_2*omega1(t)**2*cos(theta1(t) + theta2(t)) + 2*l_2*m_2*omega1(t)*omega2(t)*cos(theta1(t) + theta2(t)) + l_2*m_2*omega2(t)**2*cos(theta1(t) + theta2(t)) + m_1*c_y(t) + m_2*c_y(t)))/(l_1*l_2*m_2*(m_1 + m_2)*sin(theta2(t)))'
p1
aS'[l_1, l_2, m_1, m_2, theta1(t), theta2(t), omega1(t), omega2(t), c_x(t), c_y(t)]'
p2
a.