(lp0
F0.060000000000001205
aF0.09000000000000119
aF0.12000000000000118
aF0.1600000000000012
aF0.18000000000000121
aF0.19000000000000122
aF0.20000000000000123
aF0.22000000000000125
aF0.2500000000000013
aF0.2500000000000013
aF0.2600000000000013
aF0.2600000000000013
aF0.2700000000000013
aF0.2900000000000013
aF0.31000000000000133
aF0.34000000000000136
aF0.3600000000000014
aF0.3700000000000014
aF0.3900000000000014
aF0.3900000000000014
aF0.3900000000000014
aF0.4900000000000015
aF0.0400000000000012
aF0.0400000000000012
aF0.0400000000000012
aF0.09000000000000119
aF0.10000000000000119
aF0.14000000000000118
aF0.1500000000000012
aF0.1500000000000012
aF0.1700000000000012
aF0.19000000000000122
aF0.2600000000000013
aF0.2800000000000013
aF0.2800000000000013
aF0.31000000000000133
aF0.35000000000000137
aF0.3900000000000014
aF0.4100000000000014
aF0.4100000000000014
aF0.43000000000000144
aF0.45000000000000145
aF0.4900000000000015
aF0.5000000000000014
aF0.020000000000001197
aF0.0500000000000012
aF0.060000000000001205
aF0.09000000000000119
aF0.09000000000000119
aF0.13000000000000117
aF0.14000000000000118
aF0.23000000000000126
aF0.2500000000000013
aF0.2700000000000013
aF0.2800000000000013
aF0.31000000000000133
aF0.35000000000000137
aF0.35000000000000137
aF0.3700000000000014
aF0.4000000000000014
aF0.4100000000000014
aF0.4200000000000014
aF0.43000000000000144
aF0.44000000000000145
aF0.4900000000000015
aF0.010000000000001197
aF0.0300000000000012
aF0.060000000000001205
aF0.0800000000000012
aF0.11000000000000118
aF0.1600000000000012
aF0.1600000000000012
aF0.18000000000000121
aF0.18000000000000121
aF0.22000000000000125
aF0.23000000000000126
aF0.2500000000000013
aF0.2800000000000013
aF0.3000000000000013
aF0.3000000000000013
aF0.33000000000000135
aF0.3700000000000014
aF0.4100000000000014
aF0.010000000000001197
aF0.0300000000000012
aF0.0800000000000012
aF0.09000000000000119
aF0.11000000000000118
aF0.1500000000000012
aF0.1600000000000012
aF0.20000000000000123
aF0.22000000000000125
aF0.22000000000000125
aF0.23000000000000126
aF0.24000000000000127
aF0.2500000000000013
aF0.2600000000000013
aF0.31000000000000133
aF0.34000000000000136
aF0.010000000000001197
aF0.010000000000001197
aF0.0300000000000012
aF0.0400000000000012
aF0.14000000000000118
aF0.1500000000000012
aF0.22000000000000125
aF0.2500000000000013
aF0.2500000000000013
aF0.31000000000000133
aF0.3600000000000014
aF0.010000000000001197
aF0.0700000000000012
aF0.0800000000000012
aF0.11000000000000118
aF0.14000000000000118
aF0.1500000000000012
aF0.19000000000000122
aF0.20000000000000123
aF0.21000000000000124
aF0.22000000000000125
aF0.23000000000000126
aF0.23000000000000126
aF0.2600000000000013
aF0.2800000000000013
aF0.3700000000000014
aF0.3700000000000014
aF0.020000000000001197
aF0.0300000000000012
aF0.0400000000000012
aF0.0700000000000012
aF0.0800000000000012
aF0.13000000000000117
aF0.13000000000000117
aF0.14000000000000118
aF0.1700000000000012
aF0.18000000000000121
aF0.19000000000000122
aF0.19000000000000122
aF0.21000000000000124
aF0.22000000000000125
aF0.24000000000000127
aF0.2800000000000013
aF0.2900000000000013
aF0.3000000000000013
aF0.0400000000000012
aF0.0400000000000012
aF0.0800000000000012
aF0.0800000000000012
aF0.11000000000000118
aF0.12000000000000118
aF0.14000000000000118
aF0.1500000000000012
aF0.20000000000000123
aF0.21000000000000124
aF0.22000000000000125
aF0.22000000000000125
aF0.23000000000000126
aF1.1969591984239969e-15
aF0.020000000000001197
aF0.020000000000001197
aF0.0300000000000012
aF0.0400000000000012
aF0.0500000000000012
aF0.09000000000000119
aF0.10000000000000119
aF0.12000000000000118
aF0.14000000000000118
aF0.1600000000000012
aF0.21000000000000124
aF0.21000000000000124
aF0.24000000000000127
aF1.1969591984239969e-15
aF0.0500000000000012
aF0.0700000000000012
aF0.0800000000000012
aF0.0800000000000012
aF0.10000000000000119
aF0.1500000000000012
aF0.060000000000001205
aF0.09000000000000119
aF0.14000000000000118
aF0.1500000000000012
aF0.1500000000000012
aF0.1500000000000012
aF0.1600000000000012
aF0.1700000000000012
aF0.21000000000000124
aF0.020000000000001197
aF0.0500000000000012
aF0.0800000000000012
aF0.09000000000000119
aF0.13000000000000117
aF1.1969591984239969e-15
aF0.0300000000000012
aF0.10000000000000119
a.