(lp0
(lp1
F0.00415144913478116
aF-138.4785666001332
aF23.941001788081717
aa(lp2
F-0.009927101199366462
aF-134.4028704982078
aF23.192425818782205
aa(lp3
F-0.002052979486052209
aF-148.42196600676445
aF43.00891855942649
aa(lp4
F0.00272479005252535
aF-150.3669079464854
aF44.958638268686016
aa(lp5
F0.0007683571412258061
aF-136.447540869361
aF33.42772921837991
aa(lp6
F-0.005502197640197437
aF-150.3669079464854
aF53.4950098866315
aa(lp7
F0.0035292061562444133
aF-123.98205193048953
aF28.379579100610496
aa(lp8
F0.007202028142629047
aF-140.4957445896438
aF48.73498026262944
aa(lp9
F0.0060468087498151135
aF-126.0918519529268
aF36.934719703672755
aa(lp10
F0.007695428402556104
aF-128.18904289524497
aF40.34939262493658
aa(lp11
F0.009333120912941695
aF-128.18904289524497
aF43.00891855942649
aa(lp12
F0.003001956860501309
aF-134.4028704982078
aF50.558204094414236
aa(lp13
F0.0017952879960176915
aF-138.4785666001332
aF54.63269352747518
aa(lp14
F0.0058574096229477846
aF-126.09185195292683
aF44.958638268686016
aa(lp15
F0.0023568098877575494
aF-134.4028704982078
aF54.63269352747518
aa(lp16
F7.838260497332868
aF-126.0918519529268
aF14.050240922458961
aa(lp17
F7.84802412281455
aF-123.98205193048953
aF14.050240922458961
aa(lp18
F7.853058713039246
aF-130.27341504009743
aF24.687183677153193
aa(lp19
F7.855366464302506
aF-132.34475995200677
aF31.28286006021777
aa(lp20
F7.839460973540156
aF-126.0918519529268
aF26.172066991211384
aa(lp21
F7.8536000023992045
aF-130.27341504009743
aF32.71602057464472
aa(lp22
F7.850656902007046
aF-144.48775188534236
aF48.117410542875334
aa(lp23
F7.847040880485338
aF-150.3669079464854
aF55.19336881884842
aa(lp24
F7.838943323332785
aF-121.85985380617724
aF29.109838439531153
aa(lp25
F7.849715860957957
aF-144.48775188534236
aF51.748509056321446
aa(lp26
F7.843944880743891
aF-136.447540869361
aF49.95543806078028
aa(lp27
F7.842034400879697
aF-128.18904289524497
aF46.86789823812078
aa(lp28
F7.838514701794665
aF-132.34475995200677
aF52.335928955090445
aa(lp29
F7.839188325058487
aF-140.4957445896438
aF60.48758721599131
aa(lp30
F7.855776783350493
aF-138.4785666001332
aF63.83684881587025
aa(lp31
F7.837938129940596
aF-138.4785666001332
aF65.17743363621003
aa(lp32
F7.84839934011498
aF-119.7254697980339
aF50.558204094414236
aa(lp33
F15.69786970512115
aF-138.4785666001332
aF49.95543806078028
aa(lp34
F15.697927757759558
aF-138.4785666001332
aF51.15591434977044
aa(lp35
F15.70118045092272
aF-132.34475995200677
aF46.23608060330956
aa(lp36
F15.690664191972957
aF-111.0703614892173
aF26.17206699121139
aa(lp37
F15.704536326599253
aF-119.72546979803387
aF34.84104743465425
aa(lp38
F15.704311623217862
aF-140.4957445896438
aF56.84205744456901
aa(lp39
F15.6884642547964
aF-126.0918519529268
aF43.663213078195525
aa(lp40
F15.699788126160797
aF-126.0918519529268
aF48.73498026262944
aa(lp41
F15.701360080937803
aF-130.27341504009743
aF52.918115304577064
aa(lp42
F15.703264644345523
aF-119.72546979803387
aF44.958638268686016
aa(lp43
F15.690140074156645
aF-119.72546979803387
aF52.918115304577064
aa(lp44
F15.688430324570248
aF-117.57911334268162
aF53.4950098866315
aa(lp45
F15.704880573340503
aF-113.25134280154953
aF50.558204094414236
aa(lp46
F23.54763139630751
aF-115.42099907397733
aF14.050240922458961
aa(lp47
F23.54430142474051
aF-123.98205193048953
aF27.646481827429326
aa(lp48
F23.53341186458958
aF-111.0703614892173
aF17.89167604704186
aa(lp49
F23.541898862567393
aF-106.67529724078001
aF17.891676047041862
aa(lp50
F23.53189652612413
aF-132.34475995200677
aF48.117410542875334
aa(lp51
F23.53165485988947
aF-132.34475995200677
aF54.0665550122763
aa(lp52
F23.54690834627256
aF-117.57911334268161
aF43.00891855942649
aa(lp53
F23.530638305468713
aF-108.87827323329455
aF35.54251567654954
aa(lp54
F23.530793764794694
aF-111.0703614892173
aF38.99515321797672
aa(lp55
F23.538116985248735
aF-130.27341504009743
aF59.475484336021545
aa(lp56
F23.53511609533811
aF-102.23756429576478
aF32.71602057464473
aa(lp57
F23.53273496537136
aF-121.85985380617724
aF52.335928955090445
aa(lp58
F23.546742244215608
aF-104.46165380743723
aF36.240429696495845
aa(lp59
F23.536529537445034
aF-117.57911334268161
aF49.34767652496965
aa(lp60
F23.534439244001533
aF-123.98205193048953
aF55.74852481933408
aa(lp61
F23.548773721995246
aF-121.85985380617724
aF62.91113296055903
aa(lp62
F23.545315524547306
aF-104.46165380743724
aF46.86789823812078
aa(lp63
F23.544492728943993
aF-117.57911334268162
aF59.984534977761854
aa(lp64
F23.54402277651768
aF-115.42099907397736
aF64.73703078280175
aa(lp65
F31.376810453872395
aF-113.2513428015495
aF21.688391299311917
aa(lp66
F31.37763486241255
aF-123.98205193048953
aF33.42772921837991
aa(lp67
F31.377407492715335
aF-102.23756429576476
aF20.17568171249661
aa(lp68
F31.37690399505665
aF-113.25134280154948
aF33.42772921837991
aa(lp69
F31.37376866921163
aF-108.87827323329454
aF34.84104743465425
aa(lp70
F31.384380598142656
aF-123.98205193048953
aF49.95543806078028
aa(lp71
F31.374457032723228
aF-123.98205193048953
aF52.335928955090445
aa(lp72
F31.37499225533577
aF-106.67529724078001
aF36.24042969649584
aa(lp73
F31.384942074441
aF-108.87827323329454
aF39.674256617756654
aa(lp74
F31.381038026580242
aF-119.72546979803387
aF51.748509056321446
aa(lp75
F31.384013645055674
aF-95.50484845119739
aF31.28286006021778
aa(lp76
F31.383096742982644
aF-111.0703614892173
aF48.117410542875334
aa(lp77
F31.38962787411819
aF-117.57911334268161
aF54.63269352747518
aa(lp78
F31.383608416544845
aF-121.85985380617724
aF61.475495867565094
aa(lp79
F31.386832820144022
aF-115.42099907397734
aF58.96048619541038
aa(lp80
F31.38242947582667
aF-117.57911334268161
aF62.43881514045421
aa(lp81
F31.381847763317126
aF-108.87827323329456
aF60.48758721599131
aa(lp82
F31.392891074829137
aF-93.24120880895623
aF46.23608060330956
aa(lp83
F31.38912720434277
aF-106.67529724078005
aF62.43881514045421
aa(lp84
F31.37715648703373
aF-90.96824512353489
aF48.117410542875334
aa(lp85
F31.389542642783454
aF-106.67529724078007
aF63.83684881587025
aa(lp86
F31.388360722122613
aF-108.87827323329456
aF66.03864288772391
aa(lp87
F31.384633370868556
aF-81.78770934753561
aF40.349392624936584
aa(lp88
F31.386332651436902
aF-86.39525571071671
aF44.958638268686016
aa(lp89
F31.38465665454646
aF-95.50484845119742
aF54.0665550122763
aa(lp90
F39.23326376524285
aF-104.46165380743723
aF14.05024092245896
aa(lp91
F39.232542133313515
aF-108.87827323329455
aF23.192425818782198
aa(lp92
F39.23106519038841
aF-97.75893768818054
aF14.050240922458961
aa(lp93
F39.225751332439
aF-108.87827323329455
aF26.172066991211384
aa(lp94
F39.226979075189575
aF-115.42099907397733
aF32.71602057464473
aa(lp95
F39.2243091992335
aF-97.75893768818052
aF22.441530626227763
aa(lp96
F39.225648825479055
aF-100.00325111286041
aF24.687183677153193
aa(lp97
F39.2147718945256
aF-102.23756429576476
aF26.91061992910409
aa(lp98
F39.232888872549225
aF-100.00325111286041
aF26.91061992910409
aa(lp99
F39.22104363451257
aF-117.57911334268161
aF45.59963939896795
aa(lp100
F39.21607738197949
aF-97.75893768818052
aF26.910619929104094
aa(lp101
F39.23253143794851
aF-90.96824512353483
aF22.441530626227767
aa(lp102
F39.23036532689761
aF-108.87827323329454
aF40.34939262493658
aa(lp103
F39.233193816525244
aF-106.67529724078001
aF41.68749281283118
aa(lp104
F39.221193776695586
aF-90.96824512353484
aF28.37957910061049
aa(lp105
F39.2202053558311
aF-95.50484845119738
aF34.13609511704961
aa(lp106
F39.22437734977025
aF-97.75893768818054
aF37.625316269658114
aa(lp107
F39.21470579762757
aF-108.87827323329454
aF48.73498026262944
aa(lp108
F39.22365203882572
aF-86.39525571071668
aF31.28286006021778
aa(lp109
F39.22207040685704
aF-104.46165380743723
aF49.34767652496965
aa(lp110
F39.21542766094741
aF-90.96824512353486
aF41.02049372647839
aa(lp111
F39.22942375981829
aF-90.96824512353486
aF42.350323184642164
aa(lp112
F39.21579934994787
aF-111.07036148921732
aF62.43881514045421
aa(lp113
F39.21769563271475
aF-90.96824512353486
aF43.663213078195525
aa(lp114
F39.222317183995884
aF-108.87827323329456
aF62.91113296055903
aa(lp115
F39.217163081465955
aF-79.47155271384236
aF34.841047434654264
aa(lp116
F39.22041646725904
aF-102.2375642957648
aF58.96048619541038
aa(lp117
F39.22336548379586
aF-93.24120880895623
aF54.0665550122763
aa(lp118
F39.23160514272348
aF-79.47155271384236
aF41.68749281283118
aa(lp119
F39.22645794028139
aF-93.24120880895623
aF56.84205744456901
aa(lp120
F39.221816162500446
aF-77.14744899110376
aF44.958638268686016
aa(lp121
F47.054487448404984
aF-93.24120880895619
aF12.503292855086302
aa(lp122
F47.05101777974197
aF-102.23756429576478
aF22.441530626227767
aa(lp123
F47.059550020279445
aF-111.07036148921732
aF31.28286006021778
aa(lp124
F47.05399659491759
aF-93.24120880895617
aF16.35993293992217
aa(lp125
F47.058039586772395
aF-108.87827323329455
aF32.00104035611534
aa(lp126
F47.053974903632295
aF-102.23756429576477
aF28.379579100610485
aa(lp127
F47.058866266564394
aF-111.0703614892173
aF40.34939262493658
aa(lp128
F47.06862002628429
aF-117.57911334268161
aF46.86789823812078
aa(lp129
F47.05584551255478
aF-113.25134280154948
aF46.86789823812078
aa(lp130
F47.06914720880121
aF-93.24120880895616
aF29.109838439531142
aa(lp131
F47.052310978471425
aF-106.67529724078001
aF43.663213078195525
aa(lp132
F47.05885967208782
aF-90.96824512353481
aF29.109838439531142
aa(lp133
F47.059852971300316
aF-108.87827323329454
aF49.34767652496965
aa(lp134
F47.050415893359286
aF-88.68618468940777
aF32.71602057464472
aa(lp135
F47.060422079404844
aF-108.87827323329454
aF52.918115304577064
aa(lp136
F47.059840670865896
aF-97.75893768818054
aF43.00891855942649
aa(lp137
F47.0673246260198
aF-102.23756429576477
aF47.49502912216463
aa(lp138
F47.05482291591173
aF-84.0956872784503
aF30.56155150438316
aa(lp139
F47.056234709778025
aF-88.68618468940777
aF37.625316269658114
aa(lp140
F47.052830434134506
aF-84.09568727845031
aF35.54251567654954
aa(lp141
F47.060203457271484
aF-86.39525571071668
aF41.68749281283118
aa(lp142
F47.063569044893185
aF-74.81563058775542
aF32.71602057464473
aa(lp143
F47.05172938696225
aF-86.39525571071668
aF45.59963939896795
aa(lp144
F47.06496118739133
aF-81.78770934753561
aF43.663213078195525
aa(lp145
F47.06147686173786
aF-88.6861846894078
aF50.558204094414236
aa(lp146
F47.06493372250104
aF-95.50484845119739
aF57.38032471696701
aa(lp147
F47.05170674409908
aF-72.47633068369443
aF48.117410542875334
aa(lp148
F54.8833919172759
aF-90.96824512353484
aF17.1266608193869
aa(lp149
F54.9000301347629
aF-93.24120880895619
aF19.416262722295237
aa(lp150
F54.893792099774814
aF-100.00325111286043
aF26.17206699121139
aa(lp151
F54.88306677703139
aF-86.39525571071665
aF16.359932939922167
aa(lp152
F54.887106980419915
aF-88.68618468940775
aF18.654902122001793
aa(lp153
F54.883227575630784
aF-90.96824512353483
aF20.93308315133974
aa(lp154
F54.88529149282968
aF-106.67529724078003
aF37.625316269658114
aa(lp155
F54.89206709985187
aF-106.67529724078003
aF41.68749281283118
aa(lp156
F54.88206998507276
aF-86.39525571071664
aF22.44153062622776
aa(lp157
F54.88785777326244
aF-100.0032511128604
aF40.34939262493657
aa(lp158
F54.90082051348094
aF-79.47155271384229
aF20.93308315133974
aa(lp159
F54.8814033780788
aF-106.67529724078001
aF48.11741054287532
aa(lp160
F54.89402847294282
aF-93.24120880895615
aF36.934719703672734
aa(lp161
F54.88374093622943
aF-90.96824512353481
aF36.93471970367274
aa(lp162
F54.88316654175463
aF-74.8156305877554
aF29.109838439531153
aa(lp163
F54.89793985166999
aF-70.12978320696179
aF26.9106199291041
aa(lp164
F54.88598011218119
aF-79.47155271384233
aF36.24042969649584
aa(lp165
F54.8986615264312
aF-81.7877093475356
aF42.350323184642164
aa(lp166
F54.88245644445806
aF-93.2412088089562
aF58.96048619541038
aa(lp167
F54.89661383196038
aF-93.2412088089562
aF64.29015428026253
aa(lp168
F54.89882101347891
aF-72.47633068369443
aF46.23608060330956
aa(lp169
F54.89170154491018
aF-88.68618468940781
aF62.43881514045421
aa(lp170
F54.889268227278016
aF-88.68618468940781
aF65.17743363621003
aa(lp171
F54.89778767729564
aF-72.47633068369443
aF51.748509056321446
aa(lp172
F54.895156706461485
aF-72.47633068369443
aF57.38032471696701
aa(lp173
F54.89732361190285
aF-65.41588484793671
aF51.74850905632144
aa(lp174
F62.71568107985395
aF-93.24120880895619
aF29.109838439531153
aa(lp175
F62.726410769733135
aF-84.09568727845028
aF20.93308315133974
aa(lp176
F62.718201894665214
aF-102.23756429576477
aF41.02049372647839
aa(lp177
F62.71657323660472
aF-86.39525571071665
aF26.172066991211384
aa(lp178
F62.707896067563496
aF-74.81563058775536
aF15.591569080796685
aa(lp179
F62.71939732578946
aF-72.47633068369436
aF16.359932939922167
aa(lp180
F62.708597380681084
aF-90.96824512353481
aF34.84104743465425
aa(lp181
F62.71664537477332
aF-79.47155271384227
aF27.646481827429323
aa(lp182
F62.72576959131696
aF-70.12978320696176
aF19.41626272229523
aa(lp183
F62.709100375773374
aF-95.50484845119736
aF55.19336881884841
aa(lp184
F62.70804780589623
aF-74.81563058775538
aF36.934719703672734
aa(lp185
F62.714579605405106
aF-63.04900535155191
aF27.64648182742933
aa(lp186
F62.72614664454372
aF-84.0956872784503
aF49.955438060780274
aa(lp187
F62.72367503955097
aF-63.049005351551926
aF32.71602057464473
aa(lp188
F62.71404036808789
aF-60.67582100717264
aF35.54251567654954
aa(lp189
F62.71214461567106
aF-84.09568727845031
aF58.96048619541038
aa(lp190
F62.709755824066455
aF-74.81563058775541
aF52.33592895509044
aa(lp191
F62.71052480848365
aF-67.77622281034978
aF49.34767652496964
aa(lp192
F62.72185521588653
aF-81.7877093475356
aF64.73703078280175
aa(lp193
F62.726066156937115
aF-77.14744899110379
aF61.4754958675651
aa(lp194
F62.72154596610232
aF-79.47155271384236
aF65.17743363621003
aa(lp195
F62.72304021708926
aF-55.91148764700585
aF43.00891855942649
aa(lp196
F62.718653382689176
aF-51.12479043725681
aF41.0204937264784
aa(lp197
F62.72507047681882
aF-70.12978320696182
aF64.29015428026254
aa(lp198
F62.72086765559701
aF-48.72365337748963
aF44.31314131204263
aa(lp199
F70.54056234399556
aF-93.24120880895617
aF36.93471970367275
aa(lp200
F70.5393450325362
aF-72.47633068369437
aF17.1266608193869
aa(lp201
F70.5271422170265
aF-81.78770934753558
aF28.379579100610485
aa(lp202
F70.53792574474967
aF-88.68618468940775
aF38.312150335370845
aa(lp203
F70.54657104101186
aF-65.41588484793668
aF17.1266608193869
aa(lp204
F70.53215430974049
aF-84.09568727845026
aF38.99515321797671
aa(lp205
F70.5422624196103
aF-77.14744899110373
aF37.62531626965811
aa(lp206
F70.53703766846006
aF-86.39525571071663
aF46.86789823812077
aa(lp207
F70.54457462928899
aF-67.77622281034974
aF30.56155150438315
aa(lp208
F70.53145689492607
aF-84.09568727845027
aF46.86789823812077
aa(lp209
F70.53312616095359
aF-63.0490053515519
aF30.561551504383157
aa(lp210
F70.53007006873285
aF-65.4158848479367
aF34.13609511704961
aa(lp211
F70.5448811627938
aF-72.47633068369439
aF43.66321307819552
aa(lp212
F70.53950981303514
aF-65.41588484793671
aF40.34939262493657
aa(lp213
F70.53576719354405
aF-72.4763306836944
aF49.955438060780274
aa(lp214
F70.54190435282959
aF-77.14744899110376
aF54.63269352747518
aa(lp215
F70.5408665445049
aF-58.29656913125564
aF39.67425661775664
aa(lp216
F70.53706818542052
aF-77.14744899110377
aF63.83684881587024
aa(lp217
F70.5423827477723
aF-63.049005351551926
aF55.19336881884842
aa(lp218
F70.54141691832203
aF-46.31764399298766
aF46.86789823812078
aa(lp219
F70.5369026248811
aF-53.5208150605841
aF54.0665550122763
aa(lp220
F70.5417375351141
aF-63.049005351551926
aF66.45936316562201
aa(lp221
F70.52961731332323
aF-46.317643992987634
aF51.155914349770434
aa(lp222
F78.34972505309861
aF-58.2965691312556
aF11.727904636528345
aa(lp223
F78.35596496454244
aF-67.77622281034974
aF23.192425818782198
aa(lp224
F78.34244896795173
aF-81.78770934753557
aF42.350323184642164
aa(lp225
F78.35027563236633
aF-63.049005351551884
aF24.68718367715319
aa(lp226
F78.35364631261866
aF-81.78770934753555
aF45.59963939896795
aa(lp227
F78.35586742609438
aF-51.12479043725677
aF19.416262722295237
aa(lp228
F78.3424289428091
aF-65.41588484793668
aF34.84104743465425
aa(lp229
F78.34666501131933
aF-53.52081506058407
aF27.64648182742933
aa(lp230
F78.35433810301856
aF-58.29656913125562
aF34.84104743465425
aa(lp231
F78.34677830131281
aF-67.77622281034975
aF44.313141312042625
aa(lp232
F78.35100368961257
aF-53.52081506058408
aF31.28286006021777
aa(lp233
F78.35643437887668
aF-60.67582100717262
aF39.67425661775664
aa(lp234
F78.34997885539096
aF-77.14744899110374
aF57.380324716967
aa(lp235
F78.34887128825312
aF-74.81563058775538
aF56.29810601379476
aa(lp236
F78.3404589544133
aF-51.1247904372568
aF38.99515321797671
aa(lp237
F78.35319796195981
aF-70.1297832069618
aF61.96025349086751
aa(lp238
F78.34185657195368
aF-51.124790437256785
aF59.47548433602154
aa(lp239
F78.3435050168811
aF-58.29656913125562
aF68.0753747446186
aa(lp240
F78.34759544326168
aF-53.52081506058407
aF64.73703078280174
aa(lp241
F86.16296272374194
aF-48.72365337748962
aF10.951343637279956
aa(lp242
F86.15121256294049
aF-79.4715527138423
aF41.68749281283118
aa(lp243
F86.1567751202878
aF-67.77622281034974
aF32.00104035611534
aa(lp244
F86.14710260145199
aF-51.12479043725677
aF16.359932939922167
aa(lp245
F86.15394785016545
aF-55.9114876470058
aF32.001040356115325
aa(lp246
F86.16321290138546
aF-58.2965691312556
aF35.542515676549534
aa(lp247
F86.14921828611583
aF-60.67582100717261
aF46.236080603309546
aa(lp248
F86.14601291582139
aF-60.67582100717262
aF49.955438060780274
aa(lp249
F86.15331946575228
aF-63.0490053515519
aF52.33592895509043
aa(lp250
F86.15579916362242
aF-51.124790437256785
aF48.11741054287531
aa(lp251
F86.16117892722534
aF-58.29656913125562
aF61.9602534908675
aa(lp252
F86.14693029976448
aF-46.317643992987634
aF54.06655501227629
aa(lp253
F86.15002275625
aF-46.317643992987634
aF56.842057444568994
aa(lp254
F86.1471969074539
aF-51.124790437256785
aF67.28082467152176
aa(lp255
F93.95108370251465
aF-41.49197110868163
aF12.503292855086299
aa(lp256
F93.95804385205895
aF-58.296569131255616
aF35.54251567654954
aa(lp257
F93.95202058101815
aF-60.675821007172594
aF38.99515321797671
aa(lp258
F93.94424590566524
aF-70.12978320696176
aF51.748509056321446
aa(lp259
F93.95595566625238
aF-36.64970198915107
aF21.68839129931191
aa(lp260
F93.95132316620374
aF-60.675821007172594
aF46.86789823812076
aa(lp261
F93.95462456009233
aF-43.90700288268425
aF34.84104743465424
aa(lp262
F93.9542232669165
aF-63.049005351551884
aF55.19336881884841
aa(lp263
F93.9455713147479
aF-46.317643992987634
aF39.67425661775663
aa(lp264
F93.95459425058391
aF-53.52081506058407
aF48.11741054287531
aa(lp265
F93.94396459391326
aF-53.52081506058407
aF49.347676524969636
aa(lp266
F93.95412453884332
aF-55.91148764700582
aF51.74850905632144
aa(lp267
F93.9523325627791
aF-58.29656913125562
aF57.912854004710084
aa(lp268
F93.95898443989269
aF-58.29656913125562
aF60.487587215991304
aa(lp269
F93.94247700362406
aF-46.317643992987634
aF60.487587215991304
aa(lp270
F93.96001336368978
aF-48.72365337748963
aF62.91113296055902
aa(lp271
F93.95792263580631
aF-39.07279017214469
aF54.632693527475176
aa(lp272
F93.95787182888307
aF-31.792773477481028
aF48.734980262629435
aa(lp273
F93.94863052700522
aF-34.22294886649986
aF51.15591434977042
aa(lp274
F93.94898996242954
aF-46.317643992987634
aF66.03864288772388
aa(lp275
F93.94616585742266
aF-41.49197110868164
aF66.87343756258618
aa(lp276
F101.73215585415949
aF-65.41588484793667
aF46.23608060330956
aa(lp277
F101.74016450699577
aF-39.072790172144686
aF20.93308315133974
aa(lp278
F101.73950702244868
aF-34.22294886649986
aF17.1266608193869
aa(lp279
F101.73159093977486
aF-31.792773477481028
aF17.89167604704186
aa(lp280
F101.72907615930033
aF-51.12479043725677
aF38.31215033537083
aa(lp281
F101.74075897171517
aF-55.9114876470058
aF48.734980262629435
aa(lp282
F101.73645523555041
aF-60.675821007172594
aF53.49500988663148
aa(lp283
F101.73345999683615
aF-53.52081506058405
aF47.495029122164624
aa(lp284
F101.73342547029401
aF-48.72365337748962
aF46.236080603309546
aa(lp285
F101.7417858885917
aF-55.911487647005806
aF54.632693527475176
aa(lp286
F101.73222284545199
aF-39.07279017214469
aF38.9951532179767
aa(lp287
F101.72829640994189
aF-46.317643992987634
aF46.236080603309546
aa(lp288
F101.72821821766738
aF-51.124790437256785
aF53.49500988663148
aa(lp289
F101.72937870712849
aF-48.72365337748963
aF52.33592895509043
aa(lp290
F101.732445794472
aF-34.22294886649986
aF40.34939262493656
aa(lp291
F101.73097777396558
aF-48.72365337748963
aF59.98453497776183
aa(lp292
F101.73776296159853
aF-41.49197110868164
aF54.06655501227629
aa(lp293
F101.74180737508644
aF-34.22294886649986
aF48.11741054287531
aa(lp294
F101.73509031703573
aF-29.359418837608338
aF49.955438060780274
aa(lp295
F101.73285226908658
aF-36.649701989151076
aF59.98453497776183
aa(lp296
F101.74568983189769
aF-31.792773477481028
aF57.912854004710084
aa(lp297
F101.73025276873398
aF-39.07279017214469
aF65.17743363621003
aa(lp298
F109.51160897252893
aF-26.92312828031799
aF18.654902122001797
aa(lp299
F109.50971224230452
aF-36.649701989151076
aF28.379579100610478
aa(lp300
F109.51076810680468
aF-29.35941883760834
aF25.430896868429528
aa(lp301
F109.50560866147714
aF-36.64970198915107
aF32.716020574644716
aa(lp302
F109.52125149650217
aF-24.484145432635465
aF23.941001788081714
aa(lp303
F109.5187328017035
aF-39.07279017214468
aF39.67425661775663
aa(lp304
F109.50450821817319
aF-26.923128280317982
aF29.837186818865966
aa(lp305
F109.51866275813825
aF-41.49197110868164
aF45.59963939896794
aa(lp306
F109.51755089788472
aF-43.90700288268425
aF54.06655501227629
aa(lp307
F109.50612518458054
aF-26.923128280317982
aF38.31215033537082
aa(lp308
F109.51134523383465
aF-34.22294886649986
aF46.86789823812076
aa(lp309
F109.50923806463649
aF-46.317643992987634
aF58.960486195410375
aa(lp310
F109.51450414129845
aF-36.649701989151076
aF50.55820409441422
aa(lp311
F109.51637876355382
aF-31.792773477481028
aF62.91113296055902
aa(lp312
F109.51304584651616
aF-31.792773477481028
aF64.29015428026253
aa(lp313
F117.28219878369444
aF-51.12479043725677
aF47.495029122164624
aa(lp314
F117.27388084082753
aF-17.153483309530785
aF15.59156908079668
aa(lp315
F117.27911537151957
aF-43.907002882684246
aF42.350323184642164
aa(lp316
F117.26992171358187
aF-31.792773477481028
aF31.28286006021777
aa(lp317
F117.28870032332115
aF-19.59907869594048
aF20.175681712496605
aa(lp318
F117.28644872105153
aF-14.70617258908467
aF16.35993293992217
aa(lp319
F117.2779236499739
aF-24.48414543263548
aF30.56155150438315
aa(lp320
F117.27736197778752
aF-26.923128280317997
aF34.13609511704961
aa(lp321
F117.27000567884625
aF-19.59907869594046
aF29.10983843953114
aa(lp322
F117.28143406856643
aF-31.792773477481028
aF43.66321307819551
aa(lp323
F117.27713371877476
aF-41.49197110868164
aF55.74852481933407
aa(lp324
F117.27614052318906
aF-34.22294886649986
aF54.632693527475176
aa(lp325
F117.2690900260906
aF-39.07279017214469
aF59.47548433602154
aa(lp326
F117.27330300527154
aF-34.22294886649986
aF58.43959205531324
aa(lp327
F117.27744724790745
aF-12.257391263634712
aF41.687492812831174
aa(lp328
F117.27425497384586
aF-12.257391263634712
aF43.008918559426476
aa(lp329
F117.27637693272868
aF-24.484145432635465
aF57.912854004710084
aa(lp330
F117.28851721725741
aF-19.59907869594046
aF55.74852481933407
aa(lp331
F125.02676795822407
aF-7.356396424662945
aF12.503292855086302
aa(lp332
F125.0347147790848
aF-17.153483309530795
aF27.646481827429326
aa(lp333
F125.02349459212411
aF-36.649701989151076
aF49.34767652496964
aa(lp334
F125.02916810066567
aF-19.599078695940474
aF33.42772921837991
aa(lp335
F125.02852248096158
aF-24.48414543263548
aF38.31215033537083
aa(lp336
F125.03945419306727
aF-12.257391263634727
aF28.379579100610474
aa(lp337
F125.02652693068563
aF-4.904673006540786
aF26.91061992910409
aa(lp338
F125.02772305863094
aF-8.440748100468909e-13
aF26.910619929104094
aa(lp339
F125.03610358523176
aF-12.257391263634712
aF41.687492812831174
aa(lp340
F125.02319833724448
aF-12.257391263634712
aF48.11741054287531
aa(lp341
F125.0333188719009
aF-22.04271419081307
aF57.912854004710084
aa(lp342
F132.78414936731554
aF-12.25739126363474
aF32.71602057464472
aa(lp343
F132.78427677303912
aF-17.15348330953078
aF41.020493726478385
aa(lp344
F132.76917783715152
aF-19.59907869594046
aF49.347676524969636
aa(lp345
F132.7656137103279
aF-7.35639642466291
aF38.31215033537082
aa(lp346
F132.77378703296452
aF-17.15348330953077
aF48.11741054287531
aa(lp347
F132.76898519809373
aF-19.59907869594046
aF50.55820409441422
aa(lp348
F132.78315190541775
aF-17.15348330953077
aF49.347676524969636
aa(lp349
F132.7654760971227
aF-4.904673006540786
aF38.31215033537082
aa(lp350
F132.76923672208335
aF-14.706172589084643
aF48.11741054287531
aa(lp351
F132.78092071450288
aF-22.04271419081307
aF60.487587215991304
aa(lp352
F140.4962194625482
aF-24.484145432635483
aF49.34767652496965
aa(lp353
F140.51163930819214
aF-7.356396424662938
aF35.54251567654954
aa(lp354
F140.4987633091902
aF-17.15348330953078
aF48.73498026262944
aa(lp355
F140.49609619440554
aF-19.599078695940474
aF52.33592895509044
aa(lp356
F140.49979022606675
aF-17.15348330953077
aF54.632693527475176
aa(lp357
F140.50274862131934
aF2.4524591252035326
aF36.24042969649583
aa(lp358
F140.49283178104125
aF12.257391263633028
aF27.646481827429326
aa(lp359
F140.5031014713276
aF4.904673006539098
aF36.24042969649583
aa(lp360
F140.5029466177856
aF-8.440748100468909e-13
aF48.734980262629435
aa(lp361
F140.49516583742763
aF-12.257391263634712
aF60.98459074590533
aa(lp362
F140.49402446599748
aF-7.35639642466291
aF57.380324716966996
aa(lp363
F148.2078728153481
aF9.807384209271158
aF21.688391299311917
aa(lp364
F148.20887368719934
aF-4.904673006540813
aF39.674256617756654
aa(lp365
F148.20724219781223
aF14.706172589082945
aF26.910619929104094
aa(lp366
F148.21284621799202
aF2.452459125203519
aF40.34939262493657
aa.