(lp0
F-0.6800000000000455
aF-0.5450000000000453
aF-0.4850000000000453
aF-0.46000000000004526
aF-0.3950000000000452
aF-0.31000000000004513
aF1.364999999999948
aF1.2849999999999497
aF1.1999999999999515
aF0.8499999999999557
aF0.6849999999999555
aF0.29999999999995525
aF-0.46500000000004527
aF-0.44000000000004524
aF1.1949999999999517
aF0.6449999999999555
aF0.41499999999995535
aF0.5099999999999554
aF-0.6750000000000455
aF-0.44500000000004525
aF-0.2500000000000451
aF1.0249999999999553
aF0.7549999999999556
aF0.2749999999999552
aF0.3649999999999553
aF0.5849999999999554
aF-0.5450000000000453
aF-0.45000000000004525
aF-0.42500000000004523
aF1.5599999999999439
aF1.4349999999999465
aF1.1199999999999533
aF0.00999999999995508
aF1.0149999999999555
aF0.06499999999995507
aF0.12999999999995512
aF0.7899999999999556
aF0.6399999999999555
aF-0.5600000000000454
aF-0.45500000000004526
aF-0.20500000000004504
aF1.3799999999999477
aF0.12999999999995512
aF0.8749999999999557
aF0.4499999999999554
aF0.5549999999999554
aF-0.4950000000000453
aF-0.21500000000004504
aF-0.13000000000004497
aF0.2049999999999552
aF0.7999999999999556
aF0.30999999999995526
aF1.1649999999999523
aF0.044999999999955076
aF1.0599999999999545
aF0.0999999999999551
aF0.16499999999995515
aF0.8349999999999557
aF0.29999999999995525
aF0.6899999999999555
aF-0.7850000000000456
aF-0.6250000000000454
aF-0.3050000000000451
aF1.554999999999944
aF1.5299999999999445
aF1.0499999999999547
aF1.0099999999999556
aF0.19999999999995519
aF0.8699999999999557
aF0.6199999999999555
aF-0.165000000000045
aF1.4499999999999462
aF1.3099999999999492
aF1.2799999999999498
aF1.1849999999999519
aF0.3399999999999553
aF0.6899999999999555
aF-0.43000000000004523
aF-0.3050000000000451
aF-0.2500000000000451
aF0.029999999999955083
aF0.9849999999999558
aF0.8849999999999557
aF0.7449999999999556
aF-0.5250000000000453
aF-0.35000000000004516
aF-0.2850000000000451
aF-0.21500000000004504
aF-0.20000000000004503
aF-0.18500000000004502
aF-0.030000000000044925
aF-0.010000000000044921
aF0.19499999999995518
aF0.9199999999999557
aF0.6899999999999555
aF-0.5500000000000453
aF-0.45000000000004525
aF-0.2650000000000451
aF1.414999999999947
aF-0.04500000000004492
aF0.9549999999999558
aF0.3649999999999553
aF-0.7850000000000456
aF-0.6900000000000455
aF-0.46500000000004527
aF-0.11000000000004495
aF1.4949999999999453
aF1.4399999999999464
aF1.2599999999999503
aF0.08499999999995508
aF0.8049999999999556
aF0.5249999999999554
aF0.6849999999999555
aF-0.7550000000000455
aF-0.3650000000000452
aF-0.2650000000000451
aF-0.10500000000004495
aF1.5199999999999447
aF1.1849999999999519
aF0.39999999999995534
aF0.4799999999999554
aF-0.7250000000000455
aF-0.5150000000000453
aF-0.24500000000004507
aF-0.19000000000004502
aF0.08999999999995509
aF1.0549999999999546
aF0.8949999999999557
aF0.5849999999999554
aF0.5899999999999554
aF0.6749999999999555
aF-0.6950000000000455
aF-0.22500000000004505
aF-0.11000000000004495
aF0.00999999999995508
aF0.16499999999995515
aF1.129999999999953
aF0.43499999999995537
aF0.7699999999999556
aF-0.7800000000000455
aF-0.6550000000000454
aF-0.2950000000000451
aF-0.2700000000000451
aF-0.20500000000004504
aF0.09499999999995509
aF0.41999999999995535
aF0.4899999999999554
aF-0.6150000000000454
aF-0.3700000000000452
aF-0.22500000000004505
aF-0.18500000000004502
aF1.4249999999999468
aF0.11999999999995511
aF0.7799999999999556
aF-0.5750000000000454
aF-0.20500000000004504
aF-0.165000000000045
aF0.07999999999995508
aF0.14499999999995514
aF0.31499999999995526
aF0.9299999999999558
aF0.5249999999999554
aF-0.5250000000000453
aF-0.4200000000000452
aF-0.32000000000004514
aF-0.2850000000000451
aF0.12499999999995512
aF0.19499999999995518
aF1.129999999999953
aF0.4999999999999554
aF0.7899999999999556
aF-0.4850000000000453
aF-0.3900000000000452
aF-0.33500000000004515
aF1.5599999999999439
aF1.0699999999999543
aF1.0149999999999555
aF0.9499999999999558
aF-0.7500000000000455
aF-0.44500000000004525
aF-0.3600000000000452
aF-0.030000000000044925
aF1.1949999999999517
aF0.9199999999999557
aF0.7999999999999556
aF-0.2850000000000451
aF-0.12500000000004496
aF0.40999999999995534
aF0.8799999999999557
aF-0.3750000000000452
aF-0.170000000000045
aF-0.10500000000004495
aF1.0749999999999542
aF1.0149999999999555
aF0.6849999999999555
aF0.8099999999999556
aF-0.34500000000004516
aF-0.2800000000000451
aF-0.175000000000045
aF0.08499999999995508
aF1.549999999999944
aF1.459999999999946
aF0.24999999999995523
aF0.4849999999999554
aF0.9899999999999558
aF0.6249999999999555
aF-0.7350000000000455
aF-0.6350000000000454
aF-0.6250000000000454
aF-0.31500000000004513
aF-0.21500000000004504
aF1.1499999999999526
aF0.7249999999999556
aF0.8149999999999556
aF-0.5650000000000454
aF0.044999999999955076
aF0.2299999999999552
aF0.3299999999999553
aF1.1849999999999519
aF1.134999999999953
aF0.9149999999999557
aF-0.7200000000000455
aF-0.7100000000000455
aF-0.7000000000000455
aF-0.6900000000000455
aF-0.5250000000000453
aF-0.2650000000000451
aF-0.21000000000004504
aF-0.14000000000004498
aF0.01999999999995508
aF0.03499999999995508
aF0.7749999999999556
aF0.7799999999999556
aF0.7849999999999556
aF0.7899999999999556
aF0.7949999999999556
aF0.7999999999999556
aF0.8049999999999556
aF0.8099999999999556
aF0.8149999999999556
aF-0.12000000000004496
aF-0.07000000000004492
aF0.17499999999995516
aF0.23499999999995522
aF0.27999999999995523
aF1.3349999999999487
aF0.5999999999999555
aF-0.10000000000004494
aF1.4699999999999458
aF0.30499999999995525
aF0.3299999999999553
aF1.364999999999948
aF0.3849999999999553
aF0.5299999999999554
aF-0.7600000000000455
aF-0.6700000000000454
aF-0.5750000000000454
aF-0.5000000000000453
aF-0.42500000000004523
aF-0.055000000000044916
aF0.024999999999955082
aF0.11499999999995511
aF1.3949999999999474
aF1.229999999999951
aF1.179999999999952
aF0.7199999999999556
aF-0.7650000000000455
aF-0.6850000000000455
aF-0.5900000000000454
aF-0.5250000000000453
aF-0.3950000000000452
aF0.05999999999995507
aF0.1049999999999551
aF0.24499999999995523
aF1.5249999999999446
aF1.2649999999999502
aF0.5149999999999554
aF1.0999999999999537
aF-0.7800000000000455
aF-0.6800000000000455
aF-0.5950000000000454
aF-0.43000000000004523
aF0.9699999999999558
aF-0.6550000000000454
aF-0.5900000000000454
aF-0.44500000000004525
aF-0.09000000000004493
aF-0.055000000000044916
aF1.1849999999999519
aF0.6399999999999555
aF-0.3600000000000452
aF-0.12500000000004496
aF0.09499999999995509
aF1.509999999999945
aF1.4399999999999464
aF1.27499999999995
aF0.7849999999999556
aF0.9849999999999558
aF-0.6700000000000454
aF-0.5250000000000453
aF-0.2650000000000451
aF0.29999999999995525
aF1.5699999999999437
aF0.6149999999999555
aF-0.6900000000000455
aF-0.5450000000000453
aF-0.09500000000004494
aF-0.04000000000004492
aF0.28499999999995523
aF0.3449999999999553
aF1.5649999999999438
aF1.4249999999999468
aF1.3849999999999476
aF0.5649999999999554
aF1.2449999999999506
aF0.6549999999999555
aF0.8199999999999557
aF0.9999999999999558
aF-0.6350000000000454
aF-0.4950000000000453
aF-0.3750000000000452
aF-0.3050000000000451
aF-0.2600000000000451
aF-0.19500000000004503
aF-0.08500000000004493
aF0.14499999999995514
aF0.2049999999999552
aF0.28999999999995524
aF1.3749999999999478
aF0.7749999999999556
aF-0.14500000000004498
aF-0.08500000000004493
aF0.12499999999995512
aF0.2599999999999552
aF0.29499999999995524
aF0.39499999999995533
aF0.4949999999999554
aF0.5249999999999554
aF0.6349999999999555
aF0.6849999999999555
aF0.8599999999999557
aF-0.7650000000000455
aF-0.7550000000000455
aF-0.7450000000000455
aF-0.7350000000000455
aF-0.6600000000000454
aF-0.5050000000000453
aF-0.3050000000000451
aF-0.19000000000004502
aF-4.492066441041942e-14
aF0.11999999999995511
aF0.5899999999999554
aF0.7299999999999556
aF-0.6750000000000455
aF-0.4800000000000453
aF0.00999999999995508
aF0.05499999999995507
aF1.504999999999945
aF1.3849999999999476
aF0.6649999999999555
aF0.7149999999999556
aF0.7799999999999556
aF1.0199999999999554
aF-0.5350000000000453
aF-0.31000000000004513
aF-0.23500000000004506
aF0.0999999999999551
aF0.14999999999995514
aF0.18999999999995518
aF0.5249999999999554
aF0.5849999999999554
aF1.1999999999999515
aF-0.7100000000000455
aF-0.6300000000000454
aF-0.5800000000000454
aF-0.3900000000000452
aF-0.33500000000004515
aF-0.2950000000000451
aF-0.170000000000045
aF-0.07000000000004492
aF0.18499999999995517
aF0.4999999999999554
aF1.4049999999999472
aF1.2449999999999506
aF0.9599999999999558
aF0.9649999999999558
aF0.9699999999999558
aF1.0049999999999557
aF1.0099999999999556
aF-0.7200000000000455
aF-0.6400000000000454
aF-0.6150000000000454
aF-0.46500000000004527
aF-0.35000000000004516
aF-0.165000000000045
aF0.08499999999995508
aF0.6149999999999555
aF0.6499999999999555
aF1.1199999999999533
aF-0.6650000000000454
aF-0.6150000000000454
aF-0.5750000000000454
aF-0.2950000000000451
aF0.18999999999995518
aF0.7799999999999556
aF0.8499999999999557
aF-0.6050000000000454
aF-0.44000000000004524
aF-0.34500000000004516
aF-0.22500000000004505
aF-0.09500000000004494
aF-0.06000000000004491
aF-0.005000000000044921
aF0.08499999999995508
aF0.13999999999995513
aF0.17499999999995516
aF0.2249999999999552
aF0.3399999999999553
aF0.3899999999999553
aF0.5099999999999554
aF1.3599999999999481
aF0.9249999999999557
aF-0.6650000000000454
aF-0.4050000000000452
aF-0.3050000000000451
aF-0.020000000000044923
aF0.3799999999999553
aF0.6149999999999555
aF1.3949999999999474
aF-0.7250000000000455
aF-0.6900000000000455
aF-0.6650000000000454
aF-0.6100000000000454
aF-0.5950000000000454
aF-0.5800000000000454
aF-0.42500000000004523
aF-0.20000000000004503
aF-0.18500000000004502
aF-0.170000000000045
aF-0.05000000000004492
aF0.5899999999999554
aF1.554999999999944
aF0.9749999999999558
aF0.0999999999999551
aF0.1099999999999551
aF0.11999999999995511
aF0.19499999999995518
aF0.2299999999999552
aF0.27999999999995523
aF0.7499999999999556
aF0.7949999999999556
aF0.8499999999999557
aF0.9299999999999558
aF-0.4750000000000453
aF-0.3600000000000452
aF-0.180000000000045
aF0.2649999999999552
aF0.28999999999995524
aF0.3299999999999553
aF0.4899999999999554
aF1.4899999999999454
aF0.9049999999999557
aF1.0449999999999549
aF1.0499999999999547
aF1.0999999999999537
aF1.1049999999999536
aF-0.7100000000000455
aF-0.6200000000000454
aF-0.43500000000004524
aF-0.3800000000000452
aF-0.2550000000000451
aF-0.155000000000045
aF-0.12000000000004496
aF-0.030000000000044925
aF0.06999999999995507
aF0.14499999999995514
aF0.15499999999995515
aF0.16499999999995515
aF1.5199999999999447
aF0.7849999999999556
aF1.369999999999948
aF-0.7800000000000455
aF-0.7700000000000455
aF-0.7100000000000455
aF-0.6650000000000454
aF-0.5850000000000454
aF-0.5300000000000453
aF-0.2650000000000451
aF-0.13000000000004497
aF0.04999999999995507
aF0.2299999999999552
aF0.2749999999999552
aF0.3499999999999553
aF0.9499999999999558
aF-0.7800000000000455
aF-0.7200000000000455
aF-0.7050000000000455
aF-0.6700000000000454
aF-0.6250000000000454
aF-0.5950000000000454
aF-0.5100000000000453
aF-0.34000000000004515
aF-0.2950000000000451
aF-0.22500000000004505
aF0.024999999999955082
aF0.06499999999995507
aF0.12499999999995512
aF0.4949999999999554
aF0.5899999999999554
aF0.6599999999999555
aF0.7149999999999556
aF1.5349999999999444
aF1.4899999999999454
aF1.4399999999999464
aF0.8699999999999557
aF1.3099999999999492
aF1.1949999999999517
aF-0.7150000000000455
aF-0.6650000000000454
aF-0.6250000000000454
aF-0.35000000000004516
aF-0.22000000000004505
aF-0.025000000000044924
aF0.1049999999999551
aF0.18499999999995517
aF0.30999999999995526
aF0.6649999999999555
aF0.8199999999999557
aF-0.5750000000000454
aF-0.5500000000000453
aF-0.5200000000000453
aF-0.4900000000000453
aF-0.45500000000004526
aF-0.4100000000000452
aF-0.34000000000004515
aF-0.24500000000004507
aF-0.14000000000004498
aF0.04999999999995507
aF0.06499999999995507
aF0.29999999999995525
aF0.3699999999999553
aF0.5649999999999554
aF0.6249999999999555
aF-0.44000000000004524
aF-0.42500000000004523
aF-0.3650000000000452
aF-0.3000000000000451
aF0.41999999999995535
aF0.7549999999999556
aF0.8199999999999557
aF0.9049999999999557
aF0.9649999999999558
aF1.0599999999999545
aF-0.3750000000000452
aF-0.34000000000004515
aF-0.32500000000004514
aF-0.23000000000004506
aF-0.04500000000004492
aF-0.015000000000044922
aF0.18499999999995517
aF0.2749999999999552
aF0.28499999999995523
aF0.29499999999995524
aF0.30499999999995525
aF0.5649999999999554
aF0.6199999999999555
aF0.6399999999999555
aF1.5599999999999439
aF1.3099999999999492
aF-0.3800000000000452
aF-0.3700000000000452
aF-0.2750000000000451
aF0.05499999999995507
aF0.07499999999995507
aF0.27999999999995523
aF0.5749999999999554
aF0.6099999999999555
aF0.8249999999999557
aF0.8599999999999557
aF0.9499999999999558
aF1.0149999999999555
aF1.1599999999999524
aF1.1649999999999523
aF1.1699999999999522
aF1.174999999999952
aF1.179999999999952
aF1.1849999999999519
aF1.1899999999999518
aF1.1949999999999517
aF1.1999999999999515
aF-0.31500000000004513
aF-0.2900000000000451
aF-0.2750000000000451
aF-0.2550000000000451
aF-0.23000000000004506
aF-0.08000000000004492
aF-0.04000000000004492
aF-0.035000000000044926
aF0.01999999999995508
aF0.29499999999995524
aF0.5849999999999554
aF0.7449999999999556
aF1.5199999999999447
aF1.464999999999946
aF1.0049999999999557
aF1.2949999999999495
aF-0.2700000000000451
aF-0.23500000000004506
aF-0.21500000000004504
aF-0.180000000000045
aF-0.170000000000045
aF-0.160000000000045
aF0.06999999999995507
aF0.24999999999995523
aF0.2749999999999552
aF0.5349999999999554
aF0.5799999999999554
aF1.0749999999999542
aF-0.21500000000004504
aF-0.180000000000045
aF-0.155000000000045
aF-0.12500000000004496
aF-0.030000000000044925
aF0.18499999999995517
aF0.3349999999999553
aF0.4699999999999554
aF0.5199999999999554
aF0.7599999999999556
aF1.5249999999999446
aF1.3899999999999475
aF-0.14000000000004498
aF-0.12500000000004496
aF-0.11000000000004495
aF0.04999999999995507
aF0.07999999999995508
aF0.13499999999995513
aF0.29999999999995525
aF0.32499999999995527
aF0.4499999999999554
aF0.5599999999999554
aF0.9099999999999557
aF0.9949999999999558
aF-0.12000000000004496
aF-0.11500000000004496
aF-0.10500000000004495
aF-0.09500000000004494
aF-0.08500000000004493
aF-0.025000000000044924
aF0.14499999999995514
aF0.2299999999999552
aF0.6799999999999555
aF0.9149999999999557
aF1.0499999999999547
aF1.129999999999953
aF1.369999999999948
aF-0.07000000000004492
aF-0.035000000000044926
aF0.30499999999995525
aF0.42999999999995536
aF0.4799999999999554
aF0.5999999999999555
aF0.6749999999999555
aF0.8349999999999557
aF0.8899999999999557
aF1.1199999999999533
aF-0.030000000000044925
aF-0.020000000000044923
aF0.03499999999995508
aF0.04999999999995507
aF0.07999999999995508
aF0.09499999999995509
aF0.11499999999995511
aF0.14999999999995514
aF0.3849999999999553
aF0.5749999999999554
aF0.8699999999999557
aF1.0499999999999547
aF1.2499999999999505
aF1.2549999999999504
aF1.2949999999999495
aF1.2999999999999494
aF0.01499999999995508
aF0.024999999999955082
aF0.044999999999955076
aF0.16999999999995516
aF0.2549999999999552
aF0.5549999999999554
aF0.5899999999999554
aF0.7699999999999556
aF0.8099999999999556
aF0.8549999999999557
aF0.8799999999999557
aF0.9699999999999558
aF1.4799999999999456
aF1.2099999999999513
aF0.05499999999995507
aF0.06499999999995507
aF0.09499999999995509
aF0.11499999999995511
aF0.19499999999995518
aF0.3299999999999553
aF0.4899999999999554
aF0.5599999999999554
aF1.0149999999999555
aF1.509999999999945
aF1.1949999999999517
aF0.12499999999995512
aF0.2049999999999552
aF0.2549999999999552
aF0.3449999999999553
aF0.3699999999999553
aF0.3899999999999553
aF0.4899999999999554
aF1.1149999999999534
aF0.13999999999995513
aF0.14999999999995514
aF0.2749999999999552
aF0.3549999999999553
aF0.5349999999999554
aF0.8899999999999557
aF1.1199999999999533
aF0.17499999999995516
aF0.23999999999995522
aF0.4449999999999554
aF0.5449999999999554
aF0.6549999999999555
aF1.1899999999999518
aF0.2249999999999552
aF0.24499999999995523
aF0.28999999999995524
aF0.3699999999999553
aF0.3749999999999553
aF0.3799999999999553
aF0.3849999999999553
aF0.3899999999999553
aF0.9399999999999558
aF1.0199999999999554
aF1.5349999999999444
aF1.3099999999999492
aF1.414999999999947
aF0.2699999999999552
aF0.2749999999999552
aF0.3449999999999553
aF0.3899999999999553
aF0.43499999999995537
aF0.5149999999999554
aF0.8549999999999557
aF1.2999999999999494
aF1.4499999999999462
aF0.3499999999999553
aF0.4749999999999554
aF0.5299999999999554
aF0.5649999999999554
aF0.6299999999999555
aF0.7949999999999556
aF0.8549999999999557
aF1.1149999999999534
aF0.3299999999999553
aF0.3449999999999553
aF0.3499999999999553
aF0.42499999999995536
aF1.224999999999951
aF1.3099999999999492
aF1.4999999999999452
aF0.39499999999995533
aF0.43499999999995537
aF0.4449999999999554
aF0.5449999999999554
aF0.5949999999999555
aF0.7699999999999556
aF0.8899999999999557
aF1.5199999999999447
aF0.4799999999999554
aF0.5749999999999554
aF0.6249999999999555
aF0.7899999999999556
aF0.9249999999999557
aF1.0199999999999554
aF1.0949999999999538
aF1.2549999999999504
aF1.5349999999999444
aF0.4699999999999554
aF0.4899999999999554
aF0.5049999999999554
aF0.5149999999999554
aF0.5549999999999554
aF0.5999999999999555
aF0.7999999999999556
aF1.2199999999999511
aF1.3549999999999482
aF0.5099999999999554
aF0.5999999999999555
aF0.6199999999999555
aF0.6599999999999555
aF0.6999999999999555
aF0.7299999999999556
aF0.7549999999999556
aF0.8549999999999557
aF0.9049999999999557
aF1.1049999999999536
aF1.554999999999944
aF0.5199999999999554
aF0.6049999999999555
aF0.6849999999999555
aF0.9399999999999558
aF0.9849999999999558
aF1.2599999999999503
aF1.314999999999949
aF1.4049999999999472
aF1.554999999999944
aF0.5649999999999554
aF0.7049999999999556
aF1.2049999999999514
aF1.2399999999999507
aF1.3399999999999486
aF1.4449999999999463
aF1.5449999999999442
aF0.5949999999999555
aF0.5999999999999555
aF0.6249999999999555
aF0.6449999999999555
aF0.6549999999999555
aF0.6699999999999555
aF0.7549999999999556
aF0.9849999999999558
aF1.1449999999999527
aF1.1699999999999522
aF0.6849999999999555
aF0.8599999999999557
aF0.9049999999999557
aF0.9149999999999557
aF0.9249999999999557
aF0.9699999999999558
aF1.1049999999999536
aF1.1249999999999531
aF1.2899999999999496
aF1.3999999999999473
aF0.6849999999999555
aF0.8149999999999556
aF0.8549999999999557
aF0.8699999999999557
aF0.9399999999999558
aF0.9949999999999558
aF1.0199999999999554
aF1.129999999999953
aF1.2799999999999498
aF0.7149999999999556
aF0.7499999999999556
aF0.8099999999999556
aF1.4899999999999454
aF0.7849999999999556
aF0.8349999999999557
aF0.8549999999999557
aF0.8899999999999557
aF0.9399999999999558
aF1.129999999999953
aF1.224999999999951
aF1.27499999999995
aF1.3049999999999493
aF1.3399999999999486
aF0.7999999999999556
aF0.8299999999999557
aF0.8699999999999557
aF0.8749999999999557
aF0.8849999999999557
aF0.9849999999999558
aF1.0749999999999542
aF1.0999999999999537
aF1.3749999999999478
aF1.0499999999999547
aF1.0599999999999545
aF1.0699999999999543
aF1.2849999999999497
aF1.5699999999999437
aF0.8849999999999557
aF1.079999999999954
aF1.089999999999954
aF1.0999999999999537
aF1.2349999999999508
aF1.2949999999999495
aF1.3449999999999485
aF0.9799999999999558
aF0.9849999999999558
aF0.9899999999999558
aF1.1649999999999523
aF1.1899999999999518
aF1.2499999999999505
aF1.414999999999947
aF1.4549999999999461
aF1.0449999999999549
aF1.2099999999999513
aF1.459999999999946
aF1.084999999999954
aF1.3599999999999481
aF1.4699999999999458
aF1.2549999999999504
aF1.129999999999953
aF1.134999999999953
aF1.1399999999999528
aF1.3049999999999493
aF1.4449999999999463
aF1.5399999999999443
aF1.2199999999999511
aF1.319999999999949
aF1.3449999999999485
aF1.4249999999999468
aF1.5249999999999446
aF1.2899999999999496
aF1.3499999999999484
aF1.3599999999999481
aF1.464999999999946
aF1.4049999999999472
aF1.4399999999999464
aF1.5199999999999447
a.