(lp0
F-0.45999999999999974
aF-0.45999999999999974
aF-0.45999999999999974
aF-0.45999999999999974
aF-0.45999999999999974
aF-0.45999999999999974
aF-0.45999999999999974
aF-0.45999999999999974
aF-0.45999999999999974
aF-0.45999999999999974
aF-0.44999999999999973
aF-0.44999999999999973
aF-0.44999999999999973
aF-0.44999999999999973
aF-0.44999999999999973
aF-0.44999999999999973
aF-0.44999999999999973
aF-0.44999999999999973
aF-0.44999999999999973
aF-0.44999999999999973
aF-0.4399999999999997
aF-0.4399999999999997
aF-0.4399999999999997
aF-0.4399999999999997
aF-0.4399999999999997
aF-0.4399999999999997
aF-0.4399999999999997
aF-0.4399999999999997
aF-0.4399999999999997
aF-0.4399999999999997
aF-0.4299999999999997
aF-0.4299999999999997
aF-0.4299999999999997
aF-0.4299999999999997
aF-0.4299999999999997
aF-0.4299999999999997
aF-0.4299999999999997
aF-0.4299999999999997
aF-0.4299999999999997
aF-0.4199999999999997
aF-0.4199999999999997
aF-0.4199999999999997
aF-0.4199999999999997
aF-0.4199999999999997
aF-0.4199999999999997
aF-0.4199999999999997
aF-0.4199999999999997
aF-0.4199999999999997
aF-0.4199999999999997
aF-0.4099999999999997
aF-0.4099999999999997
aF-0.4099999999999997
aF-0.3999999999999997
aF-0.3999999999999997
aF-0.3999999999999997
aF-0.3999999999999997
aF-0.3999999999999997
aF-0.3999999999999997
aF-0.3999999999999997
aF-0.3999999999999997
aF-0.3999999999999997
aF-0.3999999999999997
aF-0.3999999999999997
aF-0.3899999999999997
aF-0.3899999999999997
aF-0.3899999999999997
aF-0.3899999999999997
aF-0.3899999999999997
aF-0.3899999999999997
aF-0.3899999999999997
aF-0.37999999999999967
aF-0.37999999999999967
aF-0.37999999999999967
aF-0.37999999999999967
aF-0.37999999999999967
aF-0.37999999999999967
aF-0.37999999999999967
aF-0.37999999999999967
aF-0.37999999999999967
aF-0.37999999999999967
aF-0.37999999999999967
aF-0.37999999999999967
aF-0.36999999999999966
aF-0.36999999999999966
aF-0.36999999999999966
aF-0.36999999999999966
aF-0.36999999999999966
aF-0.36999999999999966
aF-0.36999999999999966
aF-0.36999999999999966
aF-0.36999999999999966
aF-0.36999999999999966
aF-0.36999999999999966
aF-0.36999999999999966
aF-0.36999999999999966
aF-0.35999999999999965
aF-0.35999999999999965
aF-0.35999999999999965
aF-0.35999999999999965
aF-0.35999999999999965
aF-0.35999999999999965
aF-0.35999999999999965
aF-0.35999999999999965
aF-0.35999999999999965
aF-0.35999999999999965
aF-0.35999999999999965
aF-0.35999999999999965
aF-0.35999999999999965
aF-0.35999999999999965
aF-0.35999999999999965
aF-0.35999999999999965
aF-0.35999999999999965
aF-0.34999999999999964
aF-0.34999999999999964
aF-0.34999999999999964
aF-0.34999999999999964
aF-0.34999999999999964
aF-0.34999999999999964
aF-0.34999999999999964
aF-0.34999999999999964
aF-0.34999999999999964
aF-0.34999999999999964
aF-0.33999999999999964
aF-0.33999999999999964
aF-0.33999999999999964
aF-0.33999999999999964
aF-0.33999999999999964
aF-0.33999999999999964
aF-0.33999999999999964
aF-0.33999999999999964
aF-0.33999999999999964
aF-0.33999999999999964
aF-0.33999999999999964
aF-0.33999999999999964
aF-0.33999999999999964
aF-0.33999999999999964
aF-0.33999999999999964
aF-0.33999999999999964
aF-0.33999999999999964
aF-0.33999999999999964
aF-0.3299999999999996
aF-0.3299999999999996
aF-0.3299999999999996
aF-0.3299999999999996
aF-0.3299999999999996
aF-0.3299999999999996
aF-0.3299999999999996
aF-0.3299999999999996
aF-0.3299999999999996
aF-0.3199999999999996
aF-0.3199999999999996
aF-0.3199999999999996
aF-0.3199999999999996
aF-0.3199999999999996
aF-0.3199999999999996
aF-0.3199999999999996
aF-0.3199999999999996
aF-0.3099999999999996
aF-0.3099999999999996
aF-0.3099999999999996
aF-0.3099999999999996
aF-0.3099999999999996
aF-0.3099999999999996
aF-0.3099999999999996
aF-0.3099999999999996
aF-0.3099999999999996
aF-0.2999999999999996
aF-0.2999999999999996
aF-0.2999999999999996
aF-0.2999999999999996
aF-0.2999999999999996
aF-0.2999999999999996
aF-0.2999999999999996
aF-0.2999999999999996
aF-0.2999999999999996
aF-0.2899999999999996
aF-0.2899999999999996
aF-0.2899999999999996
aF-0.2899999999999996
aF-0.2899999999999996
aF-0.2899999999999996
aF-0.2899999999999996
aF-0.2899999999999996
aF-0.2899999999999996
aF-0.2899999999999996
aF-0.2799999999999996
aF-0.2799999999999996
aF-0.2799999999999996
aF-0.2799999999999996
aF-0.2799999999999996
aF-0.2799999999999996
aF-0.2799999999999996
aF-0.2799999999999996
aF-0.2799999999999996
aF-0.2699999999999996
aF-0.2699999999999996
aF-0.2699999999999996
aF-0.2699999999999996
aF-0.2699999999999996
aF-0.2699999999999996
aF-0.2699999999999996
aF-0.2699999999999996
aF-0.2699999999999996
aF-0.2699999999999996
aF-0.25999999999999956
aF-0.25999999999999956
aF-0.25999999999999956
aF-0.25999999999999956
aF-0.25999999999999956
aF-0.25999999999999956
aF-0.25999999999999956
aF-0.25999999999999956
aF-0.25999999999999956
aF-0.25999999999999956
aF-0.25999999999999956
aF-0.25999999999999956
aF-0.25999999999999956
aF-0.25999999999999956
aF-0.24999999999999956
aF-0.24999999999999956
aF-0.24999999999999956
aF-0.24999999999999956
aF-0.24999999999999956
aF-0.24999999999999956
aF-0.24999999999999956
aF-0.23999999999999955
aF-0.23999999999999955
aF-0.23999999999999955
aF-0.23999999999999955
aF-0.23999999999999955
aF-0.23999999999999955
aF-0.23999999999999955
aF-0.23999999999999955
aF-0.23999999999999955
aF-0.23999999999999955
aF-0.23999999999999955
aF-0.23999999999999955
aF-0.23999999999999955
aF-0.22999999999999954
aF-0.22999999999999954
aF-0.22999999999999954
aF-0.22999999999999954
aF-0.22999999999999954
aF-0.22999999999999954
aF-0.22999999999999954
aF-0.22999999999999954
aF-0.22999999999999954
aF-0.22999999999999954
aF-0.22999999999999954
aF-0.21999999999999953
aF-0.21999999999999953
aF-0.21999999999999953
aF-0.21999999999999953
aF-0.21999999999999953
aF-0.21999999999999953
aF-0.21999999999999953
aF-0.21999999999999953
aF-0.21999999999999953
aF-0.21999999999999953
aF-0.21999999999999953
aF-0.21999999999999953
aF-0.21999999999999953
aF-0.21999999999999953
aF-0.21999999999999953
aF-0.21999999999999953
aF-0.20999999999999952
aF-0.20999999999999952
aF-0.20999999999999952
aF-0.20999999999999952
aF-0.20999999999999952
aF-0.20999999999999952
aF-0.20999999999999952
aF-0.20999999999999952
aF-0.20999999999999952
aF-0.20999999999999952
aF-0.20999999999999952
aF-0.1999999999999995
aF-0.1999999999999995
aF-0.1999999999999995
aF-0.1999999999999995
aF-0.1999999999999995
aF-0.1999999999999995
aF-0.1999999999999995
aF-0.1999999999999995
aF-0.1999999999999995
aF-0.1999999999999995
aF-0.1999999999999995
aF-0.1899999999999995
aF-0.1899999999999995
aF-0.1899999999999995
aF-0.1899999999999995
aF-0.1899999999999995
aF-0.1899999999999995
aF-0.1899999999999995
aF-0.1899999999999995
aF-0.1899999999999995
aF-0.1899999999999995
aF-0.1799999999999995
aF-0.1799999999999995
aF-0.1799999999999995
aF-0.1799999999999995
aF-0.1799999999999995
aF-0.1799999999999995
aF-0.1799999999999995
aF-0.1799999999999995
aF-0.1799999999999995
aF-0.1799999999999995
aF-0.1799999999999995
aF-0.1799999999999995
aF-0.1799999999999995
aF-0.1799999999999995
aF-0.1799999999999995
aF-0.1799999999999995
aF-0.1799999999999995
aF-0.16999999999999948
aF-0.16999999999999948
aF-0.16999999999999948
aF-0.16999999999999948
aF-0.16999999999999948
aF-0.16999999999999948
aF-0.16999999999999948
aF-0.16999999999999948
aF-0.16999999999999948
aF-0.16999999999999948
aF-0.16999999999999948
aF-0.16999999999999948
aF-0.16999999999999948
aF-0.16999999999999948
aF-0.15999999999999948
aF-0.15999999999999948
aF-0.15999999999999948
aF-0.15999999999999948
aF-0.15999999999999948
aF-0.15999999999999948
aF-0.15999999999999948
aF-0.15999999999999948
aF-0.15999999999999948
aF-0.15999999999999948
aF-0.14999999999999947
aF-0.14999999999999947
aF-0.14999999999999947
aF-0.14999999999999947
aF-0.14999999999999947
aF-0.14999999999999947
aF-0.14999999999999947
aF-0.14999999999999947
aF-0.14999999999999947
aF-0.14999999999999947
aF-0.13999999999999946
aF-0.13999999999999946
aF-0.13999999999999946
aF-0.13999999999999946
aF-0.13999999999999946
aF-0.13999999999999946
aF-0.13999999999999946
aF-0.13999999999999946
aF-0.13999999999999946
aF-0.13999999999999946
aF-0.13999999999999946
aF-0.12999999999999945
aF-0.12999999999999945
aF-0.12999999999999945
aF-0.12999999999999945
aF-0.12999999999999945
aF-0.12999999999999945
aF-0.12999999999999945
aF-0.12999999999999945
aF-0.12999999999999945
aF-0.12999999999999945
aF-0.12999999999999945
aF-0.12999999999999945
aF-0.12999999999999945
aF-0.12999999999999945
aF-0.11999999999999945
aF-0.11999999999999945
aF-0.11999999999999945
aF-0.11999999999999945
aF-0.11999999999999945
aF-0.11999999999999945
aF-0.11999999999999945
aF-0.11999999999999945
aF-0.11999999999999945
aF-0.11999999999999945
aF-0.10999999999999946
aF-0.10999999999999946
aF-0.10999999999999946
aF-0.10999999999999946
aF-0.10999999999999946
aF-0.10999999999999946
aF-0.10999999999999946
aF-0.10999999999999946
aF-0.10999999999999946
aF-0.10999999999999946
aF-0.10999999999999946
aF-0.10999999999999946
aF-0.10999999999999946
aF-0.10999999999999946
aF-0.10999999999999946
aF-0.10999999999999946
aF-0.09999999999999946
aF-0.09999999999999946
aF-0.09999999999999946
aF-0.09999999999999946
aF-0.09999999999999946
aF-0.09999999999999946
aF-0.09999999999999946
aF-0.09999999999999946
aF-0.09999999999999946
aF-0.09999999999999946
aF-0.09999999999999946
aF-0.09999999999999946
aF-0.09999999999999946
aF-0.09999999999999946
aF-0.09999999999999946
aF-0.09999999999999946
aF-0.09999999999999946
aF-0.09999999999999946
aF-0.09999999999999946
aF-0.09999999999999946
aF-0.09999999999999946
aF-0.08999999999999947
aF-0.08999999999999947
aF-0.08999999999999947
aF-0.08999999999999947
aF-0.08999999999999947
aF-0.08999999999999947
aF-0.08999999999999947
aF-0.08999999999999947
aF-0.08999999999999947
aF-0.08999999999999947
aF-0.08999999999999947
aF-0.08999999999999947
aF-0.08999999999999947
aF-0.08999999999999947
aF-0.08999999999999947
aF-0.08999999999999947
aF-0.08999999999999947
aF-0.08999999999999947
aF-0.08999999999999947
aF-0.08999999999999947
aF-0.07999999999999947
aF-0.07999999999999947
aF-0.07999999999999947
aF-0.07999999999999947
aF-0.07999999999999947
aF-0.07999999999999947
aF-0.07999999999999947
aF-0.07999999999999947
aF-0.07999999999999947
aF-0.07999999999999947
aF-0.07999999999999947
aF-0.07999999999999947
aF-0.07999999999999947
aF-0.07999999999999947
aF-0.07999999999999947
aF-0.07999999999999947
aF-0.07999999999999947
aF-0.07999999999999947
aF-0.07999999999999947
aF-0.07999999999999947
aF-0.07999999999999947
aF-0.07999999999999947
aF-0.07999999999999947
aF-0.06999999999999948
aF-0.06999999999999948
aF-0.06999999999999948
aF-0.06999999999999948
aF-0.06999999999999948
aF-0.06999999999999948
aF-0.06999999999999948
aF-0.06999999999999948
aF-0.06999999999999948
aF-0.06999999999999948
aF-0.06999999999999948
aF-0.06999999999999948
aF-0.06999999999999948
aF-0.06999999999999948
aF-0.06999999999999948
aF-0.06999999999999948
aF-0.06999999999999948
aF-0.06999999999999948
aF-0.06999999999999948
aF-0.06999999999999948
aF-0.06999999999999948
aF-0.06999999999999948
aF-0.06999999999999948
aF-0.06999999999999948
aF-0.06999999999999948
aF-0.06999999999999948
aF-0.06999999999999948
aF-0.06999999999999948
aF-0.06999999999999948
aF-0.06999999999999948
aF-0.06999999999999948
aF-0.06999999999999948
aF-0.06999999999999948
aF-0.06999999999999948
aF-0.06999999999999948
aF-0.06999999999999948
aF-0.05999999999999948
aF-0.05999999999999948
aF-0.05999999999999948
aF-0.05999999999999948
aF-0.05999999999999948
aF-0.05999999999999948
aF-0.05999999999999948
aF-0.05999999999999948
aF-0.05999999999999948
aF-0.05999999999999948
aF-0.05999999999999948
aF-0.05999999999999948
aF-0.05999999999999948
aF-0.05999999999999948
aF-0.049999999999999475
aF-0.049999999999999475
aF-0.049999999999999475
aF-0.049999999999999475
aF-0.049999999999999475
aF-0.049999999999999475
aF-0.049999999999999475
aF-0.049999999999999475
aF-0.049999999999999475
aF-0.049999999999999475
aF-0.049999999999999475
aF-0.049999999999999475
aF-0.049999999999999475
aF-0.049999999999999475
aF-0.049999999999999475
aF-0.049999999999999475
aF-0.049999999999999475
aF-0.049999999999999475
aF-0.049999999999999475
aF-0.049999999999999475
aF-0.049999999999999475
aF-0.049999999999999475
aF-0.039999999999999473
aF-0.039999999999999473
aF-0.039999999999999473
aF-0.039999999999999473
aF-0.039999999999999473
aF-0.039999999999999473
aF-0.039999999999999473
aF-0.039999999999999473
aF-0.039999999999999473
aF-0.039999999999999473
aF-0.039999999999999473
aF-0.039999999999999473
aF-0.039999999999999473
aF-0.039999999999999473
aF-0.02999999999999947
aF-0.02999999999999947
aF-0.02999999999999947
aF-0.02999999999999947
aF-0.02999999999999947
aF-0.02999999999999947
aF-0.02999999999999947
aF-0.02999999999999947
aF-0.02999999999999947
aF-0.02999999999999947
aF-0.02999999999999947
aF-0.02999999999999947
aF-0.02999999999999947
aF-0.01999999999999947
aF-0.01999999999999947
aF-0.01999999999999947
aF-0.01999999999999947
aF-0.01999999999999947
aF-0.01999999999999947
aF-0.01999999999999947
aF-0.01999999999999947
aF-0.01999999999999947
aF-0.01999999999999947
aF-0.01999999999999947
aF-0.01999999999999947
aF-0.00999999999999947
aF-0.00999999999999947
aF-0.00999999999999947
aF-0.00999999999999947
aF-0.00999999999999947
aF-0.00999999999999947
aF-0.00999999999999947
aF-0.00999999999999947
aF-0.00999999999999947
aF-0.00999999999999947
aF-0.00999999999999947
aF-0.00999999999999947
aF-0.00999999999999947
aF-0.00999999999999947
aF5.30825383648903e-16
aF5.30825383648903e-16
aF5.30825383648903e-16
aF5.30825383648903e-16
aF5.30825383648903e-16
aF5.30825383648903e-16
aF5.30825383648903e-16
aF5.30825383648903e-16
aF5.30825383648903e-16
aF5.30825383648903e-16
aF5.30825383648903e-16
aF5.30825383648903e-16
aF0.010000000000000531
aF0.010000000000000531
aF0.010000000000000531
aF0.010000000000000531
aF0.010000000000000531
aF0.010000000000000531
aF0.010000000000000531
aF0.010000000000000531
aF0.010000000000000531
aF0.010000000000000531
aF0.010000000000000531
aF0.010000000000000531
aF0.010000000000000531
aF0.010000000000000531
aF0.010000000000000531
aF0.010000000000000531
aF0.010000000000000531
aF0.02000000000000053
aF0.02000000000000053
aF0.02000000000000053
aF0.02000000000000053
aF0.02000000000000053
aF0.02000000000000053
aF0.02000000000000053
aF0.02000000000000053
aF0.02000000000000053
aF0.02000000000000053
aF0.02000000000000053
aF0.02000000000000053
aF0.02000000000000053
aF0.02000000000000053
aF0.02000000000000053
aF0.02000000000000053
aF0.030000000000000533
aF0.030000000000000533
aF0.030000000000000533
aF0.030000000000000533
aF0.030000000000000533
aF0.030000000000000533
aF0.030000000000000533
aF0.030000000000000533
aF0.030000000000000533
aF0.040000000000000535
aF0.040000000000000535
aF0.040000000000000535
aF0.040000000000000535
aF0.040000000000000535
aF0.040000000000000535
aF0.040000000000000535
aF0.040000000000000535
aF0.040000000000000535
aF0.040000000000000535
aF0.040000000000000535
aF0.040000000000000535
aF0.040000000000000535
aF0.040000000000000535
aF0.040000000000000535
aF0.040000000000000535
aF0.040000000000000535
aF0.040000000000000535
aF0.05000000000000054
aF0.05000000000000054
aF0.05000000000000054
aF0.05000000000000054
aF0.05000000000000054
aF0.05000000000000054
aF0.05000000000000054
aF0.05000000000000054
aF0.05000000000000054
aF0.05000000000000054
aF0.05000000000000054
aF0.05000000000000054
aF0.05000000000000054
aF0.05000000000000054
aF0.05000000000000054
aF0.05000000000000054
aF0.05000000000000054
aF0.05000000000000054
aF0.06000000000000054
aF0.06000000000000054
aF0.06000000000000054
aF0.06000000000000054
aF0.06000000000000054
aF0.06000000000000054
aF0.06000000000000054
aF0.06000000000000054
aF0.06000000000000054
aF0.06000000000000054
aF0.06000000000000054
aF0.06000000000000054
aF0.06000000000000054
aF0.06000000000000054
aF0.06000000000000054
aF0.06000000000000054
aF0.06000000000000054
aF0.06000000000000054
aF0.06000000000000054
aF0.06000000000000054
aF0.06000000000000054
aF0.06000000000000054
aF0.07000000000000053
aF0.07000000000000053
aF0.07000000000000053
aF0.07000000000000053
aF0.07000000000000053
aF0.07000000000000053
aF0.07000000000000053
aF0.07000000000000053
aF0.07000000000000053
aF0.07000000000000053
aF0.07000000000000053
aF0.07000000000000053
aF0.07000000000000053
aF0.07000000000000053
aF0.07000000000000053
aF0.07000000000000053
aF0.07000000000000053
aF0.07000000000000053
aF0.07000000000000053
aF0.07000000000000053
aF0.07000000000000053
aF0.07000000000000053
aF0.07000000000000053
aF0.07000000000000053
aF0.07000000000000053
aF0.07000000000000053
aF0.07000000000000053
aF0.07000000000000053
aF0.07000000000000053
aF0.07000000000000053
aF0.07000000000000053
aF0.07000000000000053
aF0.07000000000000053
aF0.07000000000000053
aF0.07000000000000053
aF0.08000000000000053
aF0.08000000000000053
aF0.08000000000000053
aF0.08000000000000053
aF0.08000000000000053
aF0.08000000000000053
aF0.08000000000000053
aF0.08000000000000053
aF0.08000000000000053
aF0.08000000000000053
aF0.08000000000000053
aF0.08000000000000053
aF0.08000000000000053
aF0.08000000000000053
aF0.08000000000000053
aF0.08000000000000053
aF0.08000000000000053
aF0.08000000000000053
aF0.08000000000000053
aF0.08000000000000053
aF0.08000000000000053
aF0.08000000000000053
aF0.08000000000000053
aF0.08000000000000053
aF0.08000000000000053
aF0.08000000000000053
aF0.09000000000000052
aF0.09000000000000052
aF0.09000000000000052
aF0.09000000000000052
aF0.09000000000000052
aF0.09000000000000052
aF0.09000000000000052
aF0.09000000000000052
aF0.09000000000000052
aF0.09000000000000052
aF0.09000000000000052
aF0.09000000000000052
aF0.09000000000000052
aF0.09000000000000052
aF0.09000000000000052
aF0.09000000000000052
aF0.09000000000000052
aF0.09000000000000052
aF0.09000000000000052
aF0.10000000000000052
aF0.10000000000000052
aF0.10000000000000052
aF0.10000000000000052
aF0.10000000000000052
aF0.10000000000000052
aF0.10000000000000052
aF0.10000000000000052
aF0.10000000000000052
aF0.10000000000000052
aF0.10000000000000052
aF0.11000000000000051
aF0.11000000000000051
aF0.11000000000000051
aF0.11000000000000051
aF0.11000000000000051
aF0.11000000000000051
aF0.11000000000000051
aF0.11000000000000051
aF0.11000000000000051
aF0.11000000000000051
aF0.11000000000000051
aF0.11000000000000051
aF0.11000000000000051
aF0.11000000000000051
aF0.11000000000000051
aF0.11000000000000051
aF0.11000000000000051
aF0.12000000000000051
aF0.12000000000000051
aF0.12000000000000051
aF0.12000000000000051
aF0.12000000000000051
aF0.12000000000000051
aF0.12000000000000051
aF0.12000000000000051
aF0.12000000000000051
aF0.12000000000000051
aF0.12000000000000051
aF0.12000000000000051
aF0.12000000000000051
aF0.12000000000000051
aF0.12000000000000051
aF0.12000000000000051
aF0.12000000000000051
aF0.12000000000000051
aF0.12000000000000051
aF0.12000000000000051
aF0.12000000000000051
aF0.1300000000000005
aF0.1300000000000005
aF0.1300000000000005
aF0.1300000000000005
aF0.1300000000000005
aF0.1300000000000005
aF0.1300000000000005
aF0.1300000000000005
aF0.1300000000000005
aF0.1300000000000005
aF0.1300000000000005
aF0.1300000000000005
aF0.1300000000000005
aF0.1300000000000005
aF0.1300000000000005
aF0.1400000000000005
aF0.1400000000000005
aF0.1400000000000005
aF0.1400000000000005
aF0.1400000000000005
aF0.1400000000000005
aF0.1400000000000005
aF0.1400000000000005
aF0.1400000000000005
aF0.1400000000000005
aF0.1400000000000005
aF0.1400000000000005
aF0.1400000000000005
aF0.1400000000000005
aF0.15000000000000052
aF0.15000000000000052
aF0.15000000000000052
aF0.15000000000000052
aF0.15000000000000052
aF0.15000000000000052
aF0.15000000000000052
aF0.15000000000000052
aF0.15000000000000052
aF0.15000000000000052
aF0.15000000000000052
aF0.15000000000000052
aF0.15000000000000052
aF0.16000000000000053
aF0.16000000000000053
aF0.16000000000000053
aF0.16000000000000053
aF0.16000000000000053
aF0.16000000000000053
aF0.16000000000000053
aF0.16000000000000053
aF0.16000000000000053
aF0.16000000000000053
aF0.16000000000000053
aF0.16000000000000053
aF0.17000000000000054
aF0.17000000000000054
aF0.17000000000000054
aF0.17000000000000054
aF0.17000000000000054
aF0.17000000000000054
aF0.17000000000000054
aF0.17000000000000054
aF0.17000000000000054
aF0.17000000000000054
aF0.17000000000000054
aF0.17000000000000054
aF0.17000000000000054
aF0.17000000000000054
aF0.17000000000000054
aF0.17000000000000054
aF0.17000000000000054
aF0.17000000000000054
aF0.17000000000000054
aF0.17000000000000054
aF0.18000000000000055
aF0.18000000000000055
aF0.18000000000000055
aF0.18000000000000055
aF0.18000000000000055
aF0.18000000000000055
aF0.18000000000000055
aF0.18000000000000055
aF0.18000000000000055
aF0.18000000000000055
aF0.18000000000000055
aF0.18000000000000055
aF0.18000000000000055
aF0.19000000000000056
aF0.19000000000000056
aF0.19000000000000056
aF0.19000000000000056
aF0.19000000000000056
aF0.19000000000000056
aF0.19000000000000056
aF0.19000000000000056
aF0.20000000000000057
aF0.20000000000000057
aF0.20000000000000057
aF0.20000000000000057
aF0.20000000000000057
aF0.20000000000000057
aF0.20000000000000057
aF0.20000000000000057
aF0.20000000000000057
aF0.20000000000000057
aF0.20000000000000057
aF0.20000000000000057
aF0.21000000000000058
aF0.21000000000000058
aF0.21000000000000058
aF0.21000000000000058
aF0.21000000000000058
aF0.21000000000000058
aF0.21000000000000058
aF0.22000000000000058
aF0.22000000000000058
aF0.22000000000000058
aF0.22000000000000058
aF0.22000000000000058
aF0.22000000000000058
aF0.22000000000000058
aF0.22000000000000058
aF0.2300000000000006
aF0.2300000000000006
aF0.2300000000000006
aF0.2300000000000006
aF0.2300000000000006
aF0.2300000000000006
aF0.2300000000000006
aF0.2300000000000006
aF0.2300000000000006
aF0.2300000000000006
aF0.2300000000000006
aF0.2400000000000006
aF0.2400000000000006
aF0.2400000000000006
aF0.2400000000000006
aF0.2400000000000006
aF0.2400000000000006
aF0.2400000000000006
aF0.2400000000000006
aF0.2400000000000006
aF0.2400000000000006
aF0.2500000000000006
aF0.2500000000000006
aF0.2500000000000006
aF0.2500000000000006
aF0.2500000000000006
aF0.2500000000000006
aF0.2500000000000006
aF0.2500000000000006
aF0.2500000000000006
aF0.2500000000000006
aF0.2500000000000006
aF0.2500000000000006
aF0.2600000000000006
aF0.2600000000000006
aF0.2600000000000006
aF0.2600000000000006
aF0.2600000000000006
aF0.2600000000000006
aF0.2600000000000006
aF0.2600000000000006
aF0.2600000000000006
aF0.2600000000000006
aF0.2600000000000006
aF0.2600000000000006
aF0.27000000000000063
aF0.27000000000000063
aF0.27000000000000063
aF0.27000000000000063
aF0.27000000000000063
aF0.27000000000000063
aF0.27000000000000063
aF0.27000000000000063
aF0.27000000000000063
aF0.27000000000000063
aF0.27000000000000063
aF0.27000000000000063
aF0.28000000000000064
aF0.28000000000000064
aF0.28000000000000064
aF0.28000000000000064
aF0.28000000000000064
aF0.28000000000000064
aF0.28000000000000064
aF0.28000000000000064
aF0.28000000000000064
aF0.28000000000000064
aF0.28000000000000064
aF0.28000000000000064
aF0.29000000000000065
aF0.29000000000000065
aF0.29000000000000065
aF0.29000000000000065
aF0.29000000000000065
aF0.29000000000000065
aF0.29000000000000065
aF0.30000000000000066
aF0.30000000000000066
aF0.30000000000000066
aF0.30000000000000066
aF0.30000000000000066
aF0.30000000000000066
aF0.30000000000000066
aF0.30000000000000066
aF0.30000000000000066
aF0.30000000000000066
aF0.30000000000000066
aF0.30000000000000066
aF0.30000000000000066
aF0.30000000000000066
aF0.30000000000000066
aF0.31000000000000066
aF0.31000000000000066
aF0.31000000000000066
aF0.31000000000000066
aF0.31000000000000066
aF0.31000000000000066
aF0.31000000000000066
aF0.31000000000000066
aF0.31000000000000066
aF0.31000000000000066
aF0.31000000000000066
aF0.31000000000000066
aF0.31000000000000066
aF0.3200000000000007
aF0.3200000000000007
aF0.3200000000000007
aF0.3200000000000007
aF0.3200000000000007
aF0.3200000000000007
aF0.3200000000000007
aF0.3300000000000007
aF0.3300000000000007
aF0.3300000000000007
aF0.3300000000000007
aF0.3300000000000007
aF0.3300000000000007
aF0.3300000000000007
aF0.3300000000000007
aF0.3300000000000007
aF0.3300000000000007
aF0.3300000000000007
aF0.3300000000000007
aF0.3300000000000007
aF0.3400000000000007
aF0.3400000000000007
aF0.3400000000000007
aF0.3400000000000007
aF0.3400000000000007
aF0.3400000000000007
aF0.3400000000000007
aF0.3400000000000007
aF0.3500000000000007
aF0.3500000000000007
aF0.3500000000000007
aF0.3500000000000007
aF0.3500000000000007
aF0.3500000000000007
aF0.3500000000000007
aF0.3500000000000007
aF0.3500000000000007
aF0.3500000000000007
aF0.3500000000000007
aF0.3500000000000007
aF0.3500000000000007
aF0.3600000000000007
aF0.3600000000000007
aF0.3600000000000007
aF0.3600000000000007
aF0.3600000000000007
aF0.3600000000000007
aF0.3600000000000007
aF0.3600000000000007
aF0.3600000000000007
aF0.3700000000000007
aF0.3700000000000007
aF0.3700000000000007
aF0.3700000000000007
aF0.3700000000000007
aF0.3700000000000007
aF0.3700000000000007
aF0.3700000000000007
aF0.3700000000000007
aF0.3800000000000007
aF0.3800000000000007
aF0.3800000000000007
aF0.3800000000000007
aF0.3800000000000007
aF0.3800000000000007
aF0.3800000000000007
aF0.3800000000000007
aF0.3800000000000007
aF0.3800000000000007
aF0.3800000000000007
aF0.3800000000000007
aF0.39000000000000073
aF0.39000000000000073
aF0.39000000000000073
aF0.39000000000000073
aF0.39000000000000073
aF0.39000000000000073
aF0.39000000000000073
aF0.39000000000000073
aF0.39000000000000073
aF0.39000000000000073
aF0.40000000000000074
aF0.40000000000000074
aF0.40000000000000074
aF0.40000000000000074
aF0.40000000000000074
aF0.40000000000000074
aF0.40000000000000074
aF0.40000000000000074
aF0.41000000000000075
aF0.41000000000000075
aF0.41000000000000075
aF0.41000000000000075
aF0.41000000000000075
aF0.42000000000000076
aF0.42000000000000076
aF0.42000000000000076
aF0.42000000000000076
aF0.42000000000000076
aF0.42000000000000076
aF0.42000000000000076
aF0.42000000000000076
aF0.42000000000000076
aF0.42000000000000076
aF0.42000000000000076
aF0.42000000000000076
aF0.43000000000000077
aF0.43000000000000077
aF0.43000000000000077
aF0.43000000000000077
aF0.43000000000000077
aF0.43000000000000077
aF0.4400000000000008
aF0.4400000000000008
aF0.4400000000000008
aF0.4400000000000008
aF0.4400000000000008
aF0.4400000000000008
aF0.4500000000000008
aF0.4500000000000008
aF0.4500000000000008
aF0.4500000000000008
aF0.4500000000000008
aF0.4500000000000008
aF0.4500000000000008
aF0.4500000000000008
aF0.4500000000000008
aF0.4600000000000008
aF0.4600000000000008
aF0.4600000000000008
aF0.4600000000000008
a.