(lp0
F-3.15
aF-3.15
aF-3.15
aF-3.15
aF-3.15
aF-3.15
aF-3.15
aF-3.14
aF-3.14
aF-3.14
aF-3.14
aF-3.1300000000000003
aF-3.1300000000000003
aF-3.1300000000000003
aF-3.1200000000000006
aF-3.1200000000000006
aF-3.1200000000000006
aF-3.1200000000000006
aF-3.1200000000000006
aF-3.1100000000000008
aF-3.1100000000000008
aF-3.1100000000000008
aF-3.1100000000000008
aF-3.1100000000000008
aF-3.1100000000000008
aF-3.1100000000000008
aF-3.1100000000000008
aF-3.1100000000000008
aF-3.100000000000001
aF-3.100000000000001
aF-3.100000000000001
aF-3.100000000000001
aF-3.100000000000001
aF-3.100000000000001
aF-3.090000000000001
aF-3.090000000000001
aF-3.090000000000001
aF-3.090000000000001
aF-3.090000000000001
aF-3.090000000000001
aF-3.090000000000001
aF-3.090000000000001
aF-3.090000000000001
aF-3.090000000000001
aF-3.0800000000000014
aF-3.0800000000000014
aF-3.0800000000000014
aF-3.0800000000000014
aF-3.0800000000000014
aF-3.0800000000000014
aF-3.0800000000000014
aF-3.0800000000000014
aF-3.0700000000000016
aF-3.0700000000000016
aF-3.0700000000000016
aF-3.0700000000000016
aF-3.0700000000000016
aF-3.0700000000000016
aF-3.0700000000000016
aF-3.0700000000000016
aF-3.0700000000000016
aF-3.0700000000000016
aF-3.0700000000000016
aF-3.060000000000002
aF-3.060000000000002
aF-3.060000000000002
aF-3.060000000000002
aF-3.060000000000002
aF-3.060000000000002
aF-3.060000000000002
aF-3.060000000000002
aF-3.060000000000002
aF-3.060000000000002
aF-3.060000000000002
aF-3.060000000000002
aF-3.050000000000002
aF-3.050000000000002
aF-3.050000000000002
aF-3.050000000000002
aF-3.050000000000002
aF-3.050000000000002
aF-3.050000000000002
aF-3.050000000000002
aF-3.050000000000002
aF-3.0400000000000023
aF-3.0400000000000023
aF-3.0400000000000023
aF-3.0400000000000023
aF-3.0400000000000023
aF-3.0400000000000023
aF-3.0400000000000023
aF-3.0400000000000023
aF-3.0400000000000023
aF-3.0400000000000023
aF-3.0300000000000025
aF-3.0300000000000025
aF-3.0300000000000025
aF-3.0300000000000025
aF-3.0300000000000025
aF-3.0300000000000025
aF-3.0200000000000027
aF-3.0200000000000027
aF-3.0200000000000027
aF-3.0200000000000027
aF-3.010000000000003
aF-3.010000000000003
aF-3.010000000000003
aF-3.010000000000003
aF-3.010000000000003
aF-3.010000000000003
aF-3.000000000000003
aF-3.000000000000003
aF-3.000000000000003
aF-3.000000000000003
aF-3.000000000000003
aF-3.000000000000003
aF-3.000000000000003
aF-3.000000000000003
aF-3.000000000000003
aF-3.000000000000003
aF-2.9900000000000033
aF-2.9900000000000033
aF-2.9900000000000033
aF-2.9900000000000033
aF-2.9900000000000033
aF-2.9900000000000033
aF-2.9900000000000033
aF-2.9900000000000033
aF-2.9900000000000033
aF-2.9900000000000033
aF-2.9800000000000035
aF-2.9800000000000035
aF-2.9800000000000035
aF-2.9800000000000035
aF-2.9800000000000035
aF-2.9800000000000035
aF-2.9800000000000035
aF-2.9700000000000037
aF-2.9700000000000037
aF-2.9700000000000037
aF-2.9700000000000037
aF-2.9700000000000037
aF-2.9700000000000037
aF-2.9700000000000037
aF-2.9700000000000037
aF-2.9700000000000037
aF-2.9700000000000037
aF-2.960000000000004
aF-2.960000000000004
aF-2.960000000000004
aF-2.960000000000004
aF-2.960000000000004
aF-2.960000000000004
aF-2.960000000000004
aF-2.960000000000004
aF-2.960000000000004
aF-2.960000000000004
aF-2.960000000000004
aF-2.960000000000004
aF-2.960000000000004
aF-2.950000000000004
aF-2.950000000000004
aF-2.950000000000004
aF-2.950000000000004
aF-2.950000000000004
aF-2.950000000000004
aF-2.950000000000004
aF-2.950000000000004
aF-2.950000000000004
aF-2.950000000000004
aF-2.950000000000004
aF-2.9400000000000044
aF-2.9400000000000044
aF-2.9400000000000044
aF-2.9400000000000044
aF-2.9400000000000044
aF-2.9400000000000044
aF-2.9400000000000044
aF-2.9400000000000044
aF-2.9400000000000044
aF-2.9400000000000044
aF-2.9400000000000044
aF-2.9400000000000044
aF-2.9400000000000044
aF-2.9400000000000044
aF-2.9400000000000044
aF-2.9300000000000046
aF-2.9300000000000046
aF-2.9300000000000046
aF-2.9300000000000046
aF-2.9300000000000046
aF-2.9300000000000046
aF-2.9300000000000046
aF-2.9300000000000046
aF-2.9300000000000046
aF-2.9300000000000046
aF-2.9300000000000046
aF-2.9300000000000046
aF-2.9300000000000046
aF-2.9300000000000046
aF-2.920000000000005
aF-2.920000000000005
aF-2.920000000000005
aF-2.920000000000005
aF-2.920000000000005
aF-2.920000000000005
aF-2.920000000000005
aF-2.920000000000005
aF-2.920000000000005
aF-2.920000000000005
aF-2.920000000000005
aF-2.910000000000005
aF-2.910000000000005
aF-2.910000000000005
aF-2.910000000000005
aF-2.910000000000005
aF-2.910000000000005
aF-2.910000000000005
aF-2.910000000000005
aF-2.910000000000005
aF-2.9000000000000052
aF-2.9000000000000052
aF-2.9000000000000052
aF-2.9000000000000052
aF-2.9000000000000052
aF-2.9000000000000052
aF-2.9000000000000052
aF-2.9000000000000052
aF-2.9000000000000052
aF-2.9000000000000052
aF-2.9000000000000052
aF-2.9000000000000052
aF-2.8900000000000055
aF-2.8900000000000055
aF-2.8900000000000055
aF-2.8900000000000055
aF-2.8900000000000055
aF-2.8900000000000055
aF-2.8900000000000055
aF-2.8900000000000055
aF-2.8800000000000057
aF-2.8800000000000057
aF-2.8800000000000057
aF-2.8800000000000057
aF-2.8800000000000057
aF-2.870000000000006
aF-2.870000000000006
aF-2.870000000000006
aF-2.870000000000006
aF-2.870000000000006
aF-2.870000000000006
aF-2.860000000000006
aF-2.860000000000006
aF-2.860000000000006
aF-2.860000000000006
aF-2.860000000000006
aF-2.860000000000006
aF-2.8500000000000063
aF-2.8500000000000063
aF-2.8500000000000063
aF-2.8500000000000063
aF-2.8500000000000063
aF-2.8500000000000063
aF-2.8500000000000063
aF-2.8400000000000065
aF-2.8400000000000065
aF-2.8400000000000065
aF-2.8400000000000065
aF-2.8400000000000065
aF-2.8400000000000065
aF-2.8400000000000065
aF-2.8400000000000065
aF-2.8400000000000065
aF-2.8300000000000067
aF-2.8300000000000067
aF-2.8300000000000067
aF-2.820000000000007
aF-2.820000000000007
aF-2.820000000000007
aF-2.820000000000007
aF-2.820000000000007
aF-2.820000000000007
aF-2.820000000000007
aF-2.820000000000007
aF-2.820000000000007
aF-2.820000000000007
aF-2.820000000000007
aF-0.33000000000002294
aF-0.33000000000002294
aF-0.33000000000002294
aF-0.33000000000002294
aF-0.33000000000002294
aF-0.33000000000002294
aF-0.33000000000002294
aF-0.33000000000002294
aF-0.32000000000002293
aF-0.32000000000002293
aF-0.32000000000002293
aF-0.32000000000002293
aF-0.32000000000002293
aF-0.32000000000002293
aF-0.32000000000002293
aF-0.32000000000002293
aF-0.3100000000000229
aF-0.3100000000000229
aF-0.3100000000000229
aF-0.3100000000000229
aF-0.3100000000000229
aF-0.3100000000000229
aF-0.3100000000000229
aF-0.3100000000000229
aF-0.3000000000000229
aF-0.3000000000000229
aF-0.2900000000000229
aF-0.2900000000000229
aF-0.2900000000000229
aF-0.2900000000000229
aF-0.2900000000000229
aF-0.2900000000000229
aF-0.2900000000000229
aF-0.2900000000000229
aF-0.2900000000000229
aF-0.2900000000000229
aF-0.2800000000000229
aF-0.2800000000000229
aF-0.2800000000000229
aF-0.2800000000000229
aF-0.2800000000000229
aF-0.2800000000000229
aF-0.2800000000000229
aF-0.2800000000000229
aF-0.2800000000000229
aF-0.2800000000000229
aF-0.2800000000000229
aF-0.2800000000000229
aF-0.2700000000000229
aF-0.2700000000000229
aF-0.2700000000000229
aF-0.2700000000000229
aF-0.2700000000000229
aF-0.2700000000000229
aF-0.2700000000000229
aF-0.2700000000000229
aF-0.2600000000000229
aF-0.2600000000000229
aF-0.2600000000000229
aF-0.2600000000000229
aF-0.2600000000000229
aF-0.2600000000000229
aF-0.2600000000000229
aF-0.25000000000002287
aF-0.25000000000002287
aF-0.25000000000002287
aF-0.25000000000002287
aF-0.25000000000002287
aF-0.25000000000002287
aF-0.25000000000002287
aF-0.25000000000002287
aF-0.25000000000002287
aF-0.24000000000002286
aF-0.24000000000002286
aF-0.24000000000002286
aF-0.24000000000002286
aF-0.24000000000002286
aF-0.24000000000002286
aF-0.23000000000002285
aF-0.23000000000002285
aF-0.23000000000002285
aF-0.23000000000002285
aF-0.23000000000002285
aF-0.23000000000002285
aF-0.23000000000002285
aF-0.23000000000002285
aF-0.23000000000002285
aF-0.23000000000002285
aF-0.23000000000002285
aF-0.23000000000002285
aF-0.23000000000002285
aF-0.22000000000002284
aF-0.22000000000002284
aF-0.22000000000002284
aF-0.22000000000002284
aF-0.22000000000002284
aF-0.22000000000002284
aF-0.22000000000002284
aF-0.22000000000002284
aF-0.22000000000002284
aF-0.22000000000002284
aF-0.22000000000002284
aF-0.22000000000002284
aF-0.22000000000002284
aF-0.21000000000002284
aF-0.21000000000002284
aF-0.21000000000002284
aF-0.21000000000002284
aF-0.21000000000002284
aF-0.21000000000002284
aF-0.21000000000002284
aF-0.21000000000002284
aF-0.21000000000002284
aF-0.21000000000002284
aF-0.20000000000002283
aF-0.20000000000002283
aF-0.20000000000002283
aF-0.20000000000002283
aF-0.20000000000002283
aF-0.20000000000002283
aF-0.20000000000002283
aF-0.20000000000002283
aF-0.20000000000002283
aF-0.20000000000002283
aF-0.20000000000002283
aF-0.20000000000002283
aF-0.20000000000002283
aF-0.20000000000002283
aF-0.20000000000002283
aF-0.20000000000002283
aF-0.20000000000002283
aF-0.20000000000002283
aF-0.20000000000002283
aF-0.20000000000002283
aF-0.20000000000002283
aF-0.20000000000002283
aF-0.19000000000002282
aF-0.19000000000002282
aF-0.19000000000002282
aF-0.19000000000002282
aF-0.19000000000002282
aF-0.19000000000002282
aF-0.19000000000002282
aF-0.19000000000002282
aF-0.19000000000002282
aF-0.19000000000002282
aF-0.19000000000002282
aF-0.19000000000002282
aF-0.19000000000002282
aF-0.19000000000002282
aF-0.1800000000000228
aF-0.1800000000000228
aF-0.1800000000000228
aF-0.1800000000000228
aF-0.1800000000000228
aF-0.1800000000000228
aF-0.1800000000000228
aF-0.1700000000000228
aF-0.1700000000000228
aF-0.1700000000000228
aF-0.1700000000000228
aF-0.1700000000000228
aF-0.1700000000000228
aF-0.1700000000000228
aF-0.1700000000000228
aF-0.1700000000000228
aF-0.1700000000000228
aF-0.1700000000000228
aF-0.1700000000000228
aF-0.1700000000000228
aF-0.1600000000000228
aF-0.1600000000000228
aF-0.1600000000000228
aF-0.1600000000000228
aF-0.1600000000000228
aF-0.1600000000000228
aF-0.1600000000000228
aF-0.1600000000000228
aF-0.1600000000000228
aF-0.15000000000002278
aF-0.15000000000002278
aF-0.15000000000002278
aF-0.15000000000002278
aF-0.15000000000002278
aF-0.15000000000002278
aF-0.15000000000002278
aF-0.15000000000002278
aF-0.15000000000002278
aF-0.15000000000002278
aF-0.14000000000002277
aF-0.14000000000002277
aF-0.14000000000002277
aF-0.14000000000002277
aF-0.14000000000002277
aF-0.14000000000002277
aF-0.14000000000002277
aF-0.14000000000002277
aF-0.14000000000002277
aF-0.13000000000002276
aF-0.13000000000002276
aF-0.13000000000002276
aF-0.13000000000002276
aF-0.13000000000002276
aF-0.13000000000002276
aF-0.13000000000002276
aF-0.13000000000002276
aF-0.13000000000002276
aF-0.13000000000002276
aF-0.12000000000002277
aF-0.12000000000002277
aF-0.12000000000002277
aF-0.12000000000002277
aF-0.12000000000002277
aF-0.12000000000002277
aF-0.12000000000002277
aF-0.12000000000002277
aF-0.12000000000002277
aF-0.12000000000002277
aF-0.12000000000002277
aF-0.11000000000002277
aF-0.11000000000002277
aF-0.11000000000002277
aF-0.11000000000002277
aF-0.11000000000002277
aF-0.11000000000002277
aF-0.11000000000002277
aF-0.10000000000002278
aF-0.10000000000002278
aF-0.10000000000002278
aF-0.10000000000002278
aF-0.10000000000002278
aF-0.09000000000002278
aF-0.09000000000002278
aF-0.09000000000002278
aF-0.09000000000002278
aF-0.09000000000002278
aF-0.09000000000002278
aF-0.08000000000002279
aF-0.08000000000002279
aF-0.08000000000002279
aF-0.08000000000002279
aF-0.08000000000002279
aF-0.08000000000002279
aF-0.0700000000000228
aF-0.0700000000000228
aF-0.0700000000000228
aF-0.0700000000000228
aF-0.0700000000000228
aF-0.0700000000000228
aF-0.0700000000000228
aF-0.0700000000000228
aF-0.0700000000000228
aF-0.0700000000000228
aF-0.0700000000000228
aF-0.0700000000000228
aF-0.0700000000000228
aF-0.0700000000000228
aF-0.06000000000002279
aF-0.06000000000002279
aF-0.06000000000002279
aF-0.05000000000002279
aF-0.05000000000002279
aF-0.05000000000002279
aF-0.05000000000002279
aF-0.05000000000002279
aF-0.05000000000002279
aF-0.05000000000002279
aF-0.05000000000002279
aF-0.04000000000002279
aF-0.04000000000002279
aF-0.04000000000002279
aF-0.04000000000002279
aF-0.04000000000002279
aF-0.030000000000022786
aF-0.030000000000022786
aF-0.030000000000022786
aF-0.030000000000022786
aF-0.030000000000022786
aF-0.030000000000022786
aF-0.030000000000022786
aF-0.030000000000022786
aF-0.030000000000022786
aF-0.030000000000022786
aF-0.030000000000022786
aF-0.020000000000022784
aF-0.020000000000022784
aF-0.020000000000022784
aF-0.020000000000022784
aF-0.020000000000022784
aF-0.020000000000022784
aF-0.020000000000022784
aF-0.020000000000022784
aF-0.020000000000022784
aF-0.020000000000022784
aF-0.020000000000022784
aF-0.010000000000022784
aF-0.010000000000022784
aF-0.010000000000022784
aF-0.010000000000022784
aF-0.010000000000022784
aF-0.010000000000022784
aF-2.2783858133479384e-14
aF-2.2783858133479384e-14
aF-2.2783858133479384e-14
aF-2.2783858133479384e-14
aF-2.2783858133479384e-14
aF-2.2783858133479384e-14
aF-2.2783858133479384e-14
aF-2.2783858133479384e-14
aF0.009999999999977216
aF0.009999999999977216
aF0.009999999999977216
aF0.009999999999977216
aF0.009999999999977216
aF0.009999999999977216
aF0.009999999999977216
aF0.009999999999977216
aF0.009999999999977216
aF0.009999999999977216
aF0.019999999999977217
aF0.019999999999977217
aF0.019999999999977217
aF0.019999999999977217
aF0.019999999999977217
aF0.019999999999977217
aF0.02999999999997722
aF0.02999999999997722
aF0.02999999999997722
aF0.02999999999997722
aF0.02999999999997722
aF0.03999999999997722
aF0.03999999999997722
aF0.03999999999997722
aF0.03999999999997722
aF0.03999999999997722
aF0.03999999999997722
aF0.03999999999997722
aF0.03999999999997722
aF0.04999999999997722
aF0.04999999999997722
aF0.04999999999997722
aF0.04999999999997722
aF0.04999999999997722
aF0.059999999999977224
aF0.059999999999977224
aF0.059999999999977224
aF0.059999999999977224
aF0.059999999999977224
aF0.059999999999977224
aF0.059999999999977224
aF0.059999999999977224
aF0.06999999999997722
aF0.06999999999997722
aF0.06999999999997722
aF0.06999999999997722
aF0.06999999999997722
aF0.06999999999997722
aF0.06999999999997722
aF0.06999999999997722
aF0.06999999999997722
aF0.07999999999997721
aF0.07999999999997721
aF0.07999999999997721
aF0.07999999999997721
aF0.07999999999997721
aF0.07999999999997721
aF0.08999999999997721
aF0.08999999999997721
aF0.08999999999997721
aF0.08999999999997721
aF0.08999999999997721
aF0.08999999999997721
aF0.08999999999997721
aF0.08999999999997721
aF0.0999999999999772
aF0.0999999999999772
aF0.0999999999999772
aF0.1099999999999772
aF0.1099999999999772
aF0.1099999999999772
aF0.1099999999999772
aF0.1099999999999772
aF0.1099999999999772
aF0.1099999999999772
aF0.1099999999999772
aF0.1099999999999772
aF0.1099999999999772
aF0.1099999999999772
aF0.1199999999999772
aF0.1199999999999772
aF0.1199999999999772
aF0.1199999999999772
aF0.1199999999999772
aF0.1199999999999772
aF0.1299999999999772
aF0.1299999999999772
aF0.1299999999999772
aF0.1299999999999772
aF0.1299999999999772
aF0.1299999999999772
aF0.1299999999999772
aF0.1399999999999772
aF0.1399999999999772
aF0.1399999999999772
aF0.1399999999999772
aF0.1399999999999772
aF0.1399999999999772
aF0.1399999999999772
aF0.1399999999999772
aF0.1399999999999772
aF0.1399999999999772
aF0.1399999999999772
aF0.1399999999999772
aF0.1399999999999772
aF0.1399999999999772
aF0.1499999999999772
aF0.1499999999999772
aF0.1499999999999772
aF0.1499999999999772
aF0.1499999999999772
aF0.1499999999999772
aF0.1499999999999772
aF0.1499999999999772
aF0.1499999999999772
aF0.1499999999999772
aF0.15999999999997722
aF0.15999999999997722
aF0.15999999999997722
aF0.15999999999997722
aF0.15999999999997722
aF0.15999999999997722
aF0.15999999999997722
aF0.15999999999997722
aF0.15999999999997722
aF0.15999999999997722
aF0.15999999999997722
aF0.15999999999997722
aF0.16999999999997722
aF0.16999999999997722
aF0.16999999999997722
aF0.16999999999997722
aF0.16999999999997722
aF0.16999999999997722
aF0.16999999999997722
aF0.16999999999997722
aF0.16999999999997722
aF0.16999999999997722
aF0.16999999999997722
aF0.16999999999997722
aF0.17999999999997723
aF0.17999999999997723
aF0.17999999999997723
aF0.17999999999997723
aF0.17999999999997723
aF0.17999999999997723
aF0.17999999999997723
aF0.17999999999997723
aF0.17999999999997723
aF0.17999999999997723
aF0.17999999999997723
aF0.17999999999997723
aF0.17999999999997723
aF0.17999999999997723
aF0.17999999999997723
aF0.18999999999997724
aF0.18999999999997724
aF0.18999999999997724
aF0.18999999999997724
aF0.18999999999997724
aF0.18999999999997724
aF0.18999999999997724
aF0.18999999999997724
aF0.18999999999997724
aF0.18999999999997724
aF0.18999999999997724
aF0.18999999999997724
aF0.19999999999997725
aF0.19999999999997725
aF0.19999999999997725
aF0.19999999999997725
aF0.19999999999997725
aF0.19999999999997725
aF0.19999999999997725
aF0.19999999999997725
aF0.19999999999997725
aF0.19999999999997725
aF0.19999999999997725
aF0.20999999999997726
aF0.20999999999997726
aF0.20999999999997726
aF0.20999999999997726
aF0.20999999999997726
aF0.21999999999997727
aF0.21999999999997727
aF0.21999999999997727
aF0.21999999999997727
aF0.21999999999997727
aF0.21999999999997727
aF0.22999999999997728
aF0.22999999999997728
aF0.22999999999997728
aF0.22999999999997728
aF0.22999999999997728
aF0.22999999999997728
aF0.22999999999997728
aF0.22999999999997728
aF0.2399999999999773
aF0.2399999999999773
aF0.2399999999999773
aF0.2399999999999773
aF0.2399999999999773
aF0.2399999999999773
aF0.2399999999999773
aF0.2399999999999773
aF0.2399999999999773
aF0.2499999999999773
aF0.2499999999999773
aF0.2499999999999773
aF0.2499999999999773
aF0.2499999999999773
aF0.2499999999999773
aF0.2499999999999773
aF0.2499999999999773
aF0.2599999999999773
aF0.2599999999999773
aF0.2599999999999773
aF0.2599999999999773
aF0.2599999999999773
aF0.2599999999999773
aF0.2599999999999773
aF0.2599999999999773
aF0.2599999999999773
aF0.2599999999999773
aF0.2599999999999773
aF0.2599999999999773
aF0.2599999999999773
aF0.2599999999999773
aF0.2699999999999773
aF0.2699999999999773
aF0.2699999999999773
aF0.2699999999999773
aF0.2699999999999773
aF0.2699999999999773
aF0.2699999999999773
aF0.2799999999999773
aF0.2799999999999773
aF0.2799999999999773
aF0.2799999999999773
aF0.2799999999999773
aF0.2799999999999773
aF0.28999999999997733
aF0.28999999999997733
aF0.28999999999997733
aF0.28999999999997733
aF0.28999999999997733
aF0.28999999999997733
aF0.28999999999997733
aF0.28999999999997733
aF0.28999999999997733
aF0.28999999999997733
aF0.29999999999997734
aF0.29999999999997734
aF0.29999999999997734
aF0.29999999999997734
aF0.29999999999997734
aF0.29999999999997734
aF0.30999999999997735
aF0.30999999999997735
aF0.30999999999997735
aF0.30999999999997735
aF0.30999999999997735
aF0.30999999999997735
aF0.30999999999997735
aF0.30999999999997735
aF0.30999999999997735
aF0.30999999999997735
aF0.30999999999997735
aF0.30999999999997735
aF0.31999999999997736
aF0.31999999999997736
aF0.31999999999997736
aF0.31999999999997736
aF0.32999999999997737
aF0.32999999999997737
aF0.32999999999997737
aF0.32999999999997737
aF2.819999999999961
aF2.819999999999961
aF2.819999999999961
aF2.819999999999961
aF2.819999999999961
aF2.819999999999961
aF2.829999999999961
aF2.829999999999961
aF2.829999999999961
aF2.829999999999961
aF2.829999999999961
aF2.829999999999961
aF2.829999999999961
aF2.839999999999961
aF2.839999999999961
aF2.839999999999961
aF2.839999999999961
aF2.839999999999961
aF2.839999999999961
aF2.839999999999961
aF2.839999999999961
aF2.8499999999999606
aF2.8499999999999606
aF2.8499999999999606
aF2.8499999999999606
aF2.8499999999999606
aF2.8499999999999606
aF2.8499999999999606
aF2.8599999999999604
aF2.8599999999999604
aF2.8599999999999604
aF2.8599999999999604
aF2.8599999999999604
aF2.8599999999999604
aF2.8599999999999604
aF2.8599999999999604
aF2.86999999999996
aF2.86999999999996
aF2.86999999999996
aF2.86999999999996
aF2.87999999999996
aF2.87999999999996
aF2.87999999999996
aF2.87999999999996
aF2.87999999999996
aF2.87999999999996
aF2.87999999999996
aF2.87999999999996
aF2.8899999999999597
aF2.8899999999999597
aF2.8899999999999597
aF2.8899999999999597
aF2.8899999999999597
aF2.8899999999999597
aF2.8999999999999595
aF2.8999999999999595
aF2.8999999999999595
aF2.8999999999999595
aF2.8999999999999595
aF2.8999999999999595
aF2.9099999999999593
aF2.9099999999999593
aF2.9099999999999593
aF2.9099999999999593
aF2.9099999999999593
aF2.9099999999999593
aF2.9099999999999593
aF2.9099999999999593
aF2.9099999999999593
aF2.9099999999999593
aF2.9099999999999593
aF2.9099999999999593
aF2.9099999999999593
aF2.9099999999999593
aF2.919999999999959
aF2.919999999999959
aF2.919999999999959
aF2.919999999999959
aF2.919999999999959
aF2.919999999999959
aF2.919999999999959
aF2.919999999999959
aF2.919999999999959
aF2.919999999999959
aF2.919999999999959
aF2.919999999999959
aF2.919999999999959
aF2.929999999999959
aF2.929999999999959
aF2.929999999999959
aF2.929999999999959
aF2.929999999999959
aF2.929999999999959
aF2.929999999999959
aF2.929999999999959
aF2.929999999999959
aF2.929999999999959
aF2.929999999999959
aF2.929999999999959
aF2.929999999999959
aF2.929999999999959
aF2.9399999999999586
aF2.9399999999999586
aF2.9399999999999586
aF2.9399999999999586
aF2.9399999999999586
aF2.9399999999999586
aF2.9399999999999586
aF2.9399999999999586
aF2.9399999999999586
aF2.9399999999999586
aF2.9399999999999586
aF2.9399999999999586
aF2.9399999999999586
aF2.9399999999999586
aF2.9399999999999586
aF2.9399999999999586
aF2.9399999999999586
aF2.9399999999999586
aF2.9399999999999586
aF2.9399999999999586
aF2.9399999999999586
aF2.9499999999999584
aF2.9499999999999584
aF2.9499999999999584
aF2.9499999999999584
aF2.9499999999999584
aF2.9499999999999584
aF2.9499999999999584
aF2.9499999999999584
aF2.9499999999999584
aF2.9499999999999584
aF2.9499999999999584
aF2.9499999999999584
aF2.9499999999999584
aF2.9499999999999584
aF2.9499999999999584
aF2.959999999999958
aF2.959999999999958
aF2.959999999999958
aF2.959999999999958
aF2.959999999999958
aF2.959999999999958
aF2.959999999999958
aF2.959999999999958
aF2.959999999999958
aF2.959999999999958
aF2.959999999999958
aF2.959999999999958
aF2.959999999999958
aF2.959999999999958
aF2.959999999999958
aF2.959999999999958
aF2.959999999999958
aF2.959999999999958
aF2.959999999999958
aF2.969999999999958
aF2.969999999999958
aF2.969999999999958
aF2.969999999999958
aF2.969999999999958
aF2.969999999999958
aF2.969999999999958
aF2.969999999999958
aF2.969999999999958
aF2.969999999999958
aF2.969999999999958
aF2.969999999999958
aF2.979999999999958
aF2.979999999999958
aF2.979999999999958
aF2.979999999999958
aF2.979999999999958
aF2.979999999999958
aF2.979999999999958
aF2.979999999999958
aF2.9899999999999576
aF2.9899999999999576
aF2.9899999999999576
aF2.9899999999999576
aF2.9899999999999576
aF2.9899999999999576
aF2.9899999999999576
aF2.9999999999999574
aF2.9999999999999574
aF2.9999999999999574
aF2.9999999999999574
aF2.9999999999999574
aF2.9999999999999574
aF3.009999999999957
aF3.009999999999957
aF3.009999999999957
aF3.009999999999957
aF3.009999999999957
aF3.009999999999957
aF3.009999999999957
aF3.009999999999957
aF3.009999999999957
aF3.009999999999957
aF3.009999999999957
aF3.009999999999957
aF3.019999999999957
aF3.019999999999957
aF3.019999999999957
aF3.019999999999957
aF3.019999999999957
aF3.019999999999957
aF3.019999999999957
aF3.019999999999957
aF3.019999999999957
aF3.019999999999957
aF3.019999999999957
aF3.0299999999999567
aF3.0299999999999567
aF3.0299999999999567
aF3.0299999999999567
aF3.0299999999999567
aF3.0299999999999567
aF3.0299999999999567
aF3.0299999999999567
aF3.0299999999999567
aF3.0299999999999567
aF3.0299999999999567
aF3.0399999999999565
aF3.0399999999999565
aF3.0399999999999565
aF3.0399999999999565
aF3.0399999999999565
aF3.0399999999999565
aF3.0399999999999565
aF3.0399999999999565
aF3.0399999999999565
aF3.0499999999999563
aF3.0499999999999563
aF3.0499999999999563
aF3.0499999999999563
aF3.0499999999999563
aF3.059999999999956
aF3.059999999999956
aF3.059999999999956
aF3.059999999999956
aF3.059999999999956
aF3.059999999999956
aF3.059999999999956
aF3.059999999999956
aF3.059999999999956
aF3.059999999999956
aF3.069999999999956
aF3.069999999999956
aF3.069999999999956
aF3.069999999999956
aF3.069999999999956
aF3.069999999999956
aF3.069999999999956
aF3.069999999999956
aF3.069999999999956
aF3.069999999999956
aF3.0799999999999557
aF3.0799999999999557
aF3.0799999999999557
aF3.0799999999999557
aF3.0799999999999557
aF3.0799999999999557
aF3.0799999999999557
aF3.0799999999999557
aF3.0799999999999557
aF3.0799999999999557
aF3.0799999999999557
aF3.0899999999999554
aF3.0899999999999554
aF3.0899999999999554
aF3.0899999999999554
aF3.0899999999999554
aF3.0899999999999554
aF3.0899999999999554
aF3.0899999999999554
aF3.0999999999999552
aF3.0999999999999552
aF3.0999999999999552
aF3.0999999999999552
aF3.109999999999955
aF3.109999999999955
aF3.109999999999955
aF3.109999999999955
aF3.109999999999955
aF3.109999999999955
aF3.109999999999955
aF3.109999999999955
aF3.119999999999955
aF3.119999999999955
aF3.119999999999955
aF3.119999999999955
aF3.119999999999955
aF3.119999999999955
aF3.119999999999955
aF3.1299999999999546
aF3.1299999999999546
aF3.1299999999999546
aF3.1299999999999546
aF3.1299999999999546
aF3.1299999999999546
aF3.1299999999999546
aF3.1299999999999546
aF3.1299999999999546
aF3.1399999999999544
aF3.1399999999999544
aF3.1399999999999544
aF3.1399999999999544
aF3.1399999999999544
aF3.1399999999999544
aF3.149999999999954
aF3.149999999999954
aF3.149999999999954
a.